
armvoip.elf:     file format elf32-littlearm


Disassembly of section .text:

20000000 <low_level_init>:
20000000:	e3a00000 	mov	r0, #0
20000004:	e321f0d2 	msr	CPSR_c, #210	; 0xd2
20000008:	e1a0d000 	mov	sp, r0
2000000c:	e2400000 	sub	r0, r0, #0
20000010:	e321f0d3 	msr	CPSR_c, #211	; 0xd3
20000014:	e1a0d000 	mov	sp, r0
20000018:	e2400000 	sub	r0, r0, #0
2000001c:	e321f050 	msr	CPSR_c, #80	; 0x50
20000020:	e1a0d000 	mov	sp, r0
20000024:	eb004b54 	bl	20012d7c <main>
20000028:	eafffff4 	b	20000000 <low_level_init>

2000002c <plug_holes>:
2000002c:	e52db004 	push	{fp}		; (str fp, [sp, #-4]!)
20000030:	e28db000 	add	fp, sp, #0
20000034:	e24dd014 	sub	sp, sp, #20
20000038:	e50b0010 	str	r0, [fp, #-16]
2000003c:	e59f314c 	ldr	r3, [pc, #332]	; 20000190 <plug_holes+0x164>
20000040:	e5933000 	ldr	r3, [r3]
20000044:	e51b2010 	ldr	r2, [fp, #-16]
20000048:	e1d220b0 	ldrh	r2, [r2]
2000004c:	e0833002 	add	r3, r3, r2
20000050:	e50b3008 	str	r3, [fp, #-8]
20000054:	e51b2010 	ldr	r2, [fp, #-16]
20000058:	e51b3008 	ldr	r3, [fp, #-8]
2000005c:	e1520003 	cmp	r2, r3
20000060:	0a000020 	beq	200000e8 <plug_holes+0xbc>
20000064:	e51b3008 	ldr	r3, [fp, #-8]
20000068:	e5d33004 	ldrb	r3, [r3, #4]
2000006c:	e3530000 	cmp	r3, #0
20000070:	1a00001c 	bne	200000e8 <plug_holes+0xbc>
20000074:	e59f3118 	ldr	r3, [pc, #280]	; 20000194 <plug_holes+0x168>
20000078:	e5933000 	ldr	r3, [r3]
2000007c:	e51b2008 	ldr	r2, [fp, #-8]
20000080:	e1520003 	cmp	r2, r3
20000084:	0a000017 	beq	200000e8 <plug_holes+0xbc>
20000088:	e59f3108 	ldr	r3, [pc, #264]	; 20000198 <plug_holes+0x16c>
2000008c:	e5932000 	ldr	r2, [r3]
20000090:	e51b3008 	ldr	r3, [fp, #-8]
20000094:	e1520003 	cmp	r2, r3
20000098:	1a000002 	bne	200000a8 <plug_holes+0x7c>
2000009c:	e59f20f4 	ldr	r2, [pc, #244]	; 20000198 <plug_holes+0x16c>
200000a0:	e51b3010 	ldr	r3, [fp, #-16]
200000a4:	e5823000 	str	r3, [r2]
200000a8:	e51b3008 	ldr	r3, [fp, #-8]
200000ac:	e1d320b0 	ldrh	r2, [r3]
200000b0:	e51b3010 	ldr	r3, [fp, #-16]
200000b4:	e1c320b0 	strh	r2, [r3]
200000b8:	e59f30d0 	ldr	r3, [pc, #208]	; 20000190 <plug_holes+0x164>
200000bc:	e5933000 	ldr	r3, [r3]
200000c0:	e51b2008 	ldr	r2, [fp, #-8]
200000c4:	e1d220b0 	ldrh	r2, [r2]
200000c8:	e0833002 	add	r3, r3, r2
200000cc:	e51b2010 	ldr	r2, [fp, #-16]
200000d0:	e59f10b8 	ldr	r1, [pc, #184]	; 20000190 <plug_holes+0x164>
200000d4:	e5911000 	ldr	r1, [r1]
200000d8:	e0612002 	rsb	r2, r1, r2
200000dc:	e1a02802 	lsl	r2, r2, #16
200000e0:	e1a02822 	lsr	r2, r2, #16
200000e4:	e1c320b2 	strh	r2, [r3, #2]
200000e8:	e59f30a0 	ldr	r3, [pc, #160]	; 20000190 <plug_holes+0x164>
200000ec:	e5933000 	ldr	r3, [r3]
200000f0:	e51b2010 	ldr	r2, [fp, #-16]
200000f4:	e1d220b2 	ldrh	r2, [r2, #2]
200000f8:	e0833002 	add	r3, r3, r2
200000fc:	e50b300c 	str	r3, [fp, #-12]
20000100:	e51b200c 	ldr	r2, [fp, #-12]
20000104:	e51b3010 	ldr	r3, [fp, #-16]
20000108:	e1520003 	cmp	r2, r3
2000010c:	0a00001b 	beq	20000180 <plug_holes+0x154>
20000110:	e51b300c 	ldr	r3, [fp, #-12]
20000114:	e5d33004 	ldrb	r3, [r3, #4]
20000118:	e3530000 	cmp	r3, #0
2000011c:	1a000017 	bne	20000180 <plug_holes+0x154>
20000120:	e59f3070 	ldr	r3, [pc, #112]	; 20000198 <plug_holes+0x16c>
20000124:	e5932000 	ldr	r2, [r3]
20000128:	e51b3010 	ldr	r3, [fp, #-16]
2000012c:	e1520003 	cmp	r2, r3
20000130:	1a000002 	bne	20000140 <plug_holes+0x114>
20000134:	e59f205c 	ldr	r2, [pc, #92]	; 20000198 <plug_holes+0x16c>
20000138:	e51b300c 	ldr	r3, [fp, #-12]
2000013c:	e5823000 	str	r3, [r2]
20000140:	e51b3010 	ldr	r3, [fp, #-16]
20000144:	e1d320b0 	ldrh	r2, [r3]
20000148:	e51b300c 	ldr	r3, [fp, #-12]
2000014c:	e1c320b0 	strh	r2, [r3]
20000150:	e59f3038 	ldr	r3, [pc, #56]	; 20000190 <plug_holes+0x164>
20000154:	e5933000 	ldr	r3, [r3]
20000158:	e51b2010 	ldr	r2, [fp, #-16]
2000015c:	e1d220b0 	ldrh	r2, [r2]
20000160:	e0833002 	add	r3, r3, r2
20000164:	e51b200c 	ldr	r2, [fp, #-12]
20000168:	e59f1020 	ldr	r1, [pc, #32]	; 20000190 <plug_holes+0x164>
2000016c:	e5911000 	ldr	r1, [r1]
20000170:	e0612002 	rsb	r2, r1, r2
20000174:	e1a02802 	lsl	r2, r2, #16
20000178:	e1a02822 	lsr	r2, r2, #16
2000017c:	e1c320b2 	strh	r2, [r3, #2]
20000180:	e1a00000 	nop			; (mov r0, r0)
20000184:	e24bd000 	sub	sp, fp, #0
20000188:	e49db004 	pop	{fp}		; (ldr fp, [sp], #4)
2000018c:	e12fff1e 	bx	lr
20000190:	200141e0 	.word	0x200141e0
20000194:	200141e4 	.word	0x200141e4
20000198:	200141e8 	.word	0x200141e8

2000019c <mem_init>:
2000019c:	e52db004 	push	{fp}		; (str fp, [sp, #-4]!)
200001a0:	e28db000 	add	fp, sp, #0
200001a4:	e24dd00c 	sub	sp, sp, #12
200001a8:	e59f30bc 	ldr	r3, [pc, #188]	; 2000026c <mem_init+0xd0>
200001ac:	e2833003 	add	r3, r3, #3
200001b0:	e3c33003 	bic	r3, r3, #3
200001b4:	e1a02003 	mov	r2, r3
200001b8:	e59f30b0 	ldr	r3, [pc, #176]	; 20000270 <mem_init+0xd4>
200001bc:	e5832000 	str	r2, [r3]
200001c0:	e59f30a8 	ldr	r3, [pc, #168]	; 20000270 <mem_init+0xd4>
200001c4:	e5933000 	ldr	r3, [r3]
200001c8:	e50b3008 	str	r3, [fp, #-8]
200001cc:	e51b3008 	ldr	r3, [fp, #-8]
200001d0:	e3a02ffa 	mov	r2, #1000	; 0x3e8
200001d4:	e1c320b0 	strh	r2, [r3]
200001d8:	e51b3008 	ldr	r3, [fp, #-8]
200001dc:	e3a02000 	mov	r2, #0
200001e0:	e1c320b2 	strh	r2, [r3, #2]
200001e4:	e51b3008 	ldr	r3, [fp, #-8]
200001e8:	e3a02000 	mov	r2, #0
200001ec:	e5c32004 	strb	r2, [r3, #4]
200001f0:	e59f3078 	ldr	r3, [pc, #120]	; 20000270 <mem_init+0xd4>
200001f4:	e5933000 	ldr	r3, [r3]
200001f8:	e2833ffa 	add	r3, r3, #1000	; 0x3e8
200001fc:	e59f2070 	ldr	r2, [pc, #112]	; 20000274 <mem_init+0xd8>
20000200:	e5823000 	str	r3, [r2]
20000204:	e59f3068 	ldr	r3, [pc, #104]	; 20000274 <mem_init+0xd8>
20000208:	e5933000 	ldr	r3, [r3]
2000020c:	e3a02001 	mov	r2, #1
20000210:	e5c32004 	strb	r2, [r3, #4]
20000214:	e59f3058 	ldr	r3, [pc, #88]	; 20000274 <mem_init+0xd8>
20000218:	e5933000 	ldr	r3, [r3]
2000021c:	e3a02ffa 	mov	r2, #1000	; 0x3e8
20000220:	e1c320b0 	strh	r2, [r3]
20000224:	e59f3048 	ldr	r3, [pc, #72]	; 20000274 <mem_init+0xd8>
20000228:	e5933000 	ldr	r3, [r3]
2000022c:	e3a02ffa 	mov	r2, #1000	; 0x3e8
20000230:	e1c320b2 	strh	r2, [r3, #2]
20000234:	e59f303c 	ldr	r3, [pc, #60]	; 20000278 <mem_init+0xdc>
20000238:	e3a02001 	mov	r2, #1
2000023c:	e5c32000 	strb	r2, [r3]
20000240:	e59f3028 	ldr	r3, [pc, #40]	; 20000270 <mem_init+0xd4>
20000244:	e5933000 	ldr	r3, [r3]
20000248:	e59f202c 	ldr	r2, [pc, #44]	; 2000027c <mem_init+0xe0>
2000024c:	e5823000 	str	r3, [r2]
20000250:	e59f3028 	ldr	r3, [pc, #40]	; 20000280 <mem_init+0xe4>
20000254:	e3a02ffa 	mov	r2, #1000	; 0x3e8
20000258:	e1c32ab8 	strh	r2, [r3, #168]	; 0xa8
2000025c:	e1a00000 	nop			; (mov r0, r0)
20000260:	e24bd000 	sub	sp, fp, #0
20000264:	e49db004 	pop	{fp}		; (ldr fp, [sp], #4)
20000268:	e12fff1e 	bx	lr
2000026c:	20013de4 	.word	0x20013de4
20000270:	200141e0 	.word	0x200141e0
20000274:	200141e4 	.word	0x200141e4
20000278:	200141ec 	.word	0x200141ec
2000027c:	200141e8 	.word	0x200141e8
20000280:	20015630 	.word	0x20015630

20000284 <mem_free>:
20000284:	e92d4800 	push	{fp, lr}
20000288:	e28db004 	add	fp, sp, #4
2000028c:	e24dd010 	sub	sp, sp, #16
20000290:	e50b0010 	str	r0, [fp, #-16]
20000294:	e51b3010 	ldr	r3, [fp, #-16]
20000298:	e3530000 	cmp	r3, #0
2000029c:	0a000038 	beq	20000384 <mem_free+0x100>
200002a0:	e59f30ec 	ldr	r3, [pc, #236]	; 20000394 <mem_free+0x110>
200002a4:	e5933000 	ldr	r3, [r3]
200002a8:	e51b2010 	ldr	r2, [fp, #-16]
200002ac:	e1520003 	cmp	r2, r3
200002b0:	e59f30dc 	ldr	r3, [pc, #220]	; 20000394 <mem_free+0x110>
200002b4:	e5933000 	ldr	r3, [r3]
200002b8:	e51b2010 	ldr	r2, [fp, #-16]
200002bc:	e1520003 	cmp	r2, r3
200002c0:	3a000004 	bcc	200002d8 <mem_free+0x54>
200002c4:	e59f30cc 	ldr	r3, [pc, #204]	; 20000398 <mem_free+0x114>
200002c8:	e5933000 	ldr	r3, [r3]
200002cc:	e51b2010 	ldr	r2, [fp, #-16]
200002d0:	e1520003 	cmp	r2, r3
200002d4:	3a000007 	bcc	200002f8 <mem_free+0x74>
200002d8:	e59f30bc 	ldr	r3, [pc, #188]	; 2000039c <mem_free+0x118>
200002dc:	e1d33bb0 	ldrh	r3, [r3, #176]	; 0xb0
200002e0:	e2833001 	add	r3, r3, #1
200002e4:	e1a03803 	lsl	r3, r3, #16
200002e8:	e1a03823 	lsr	r3, r3, #16
200002ec:	e59f20a8 	ldr	r2, [pc, #168]	; 2000039c <mem_free+0x118>
200002f0:	e1c23bb0 	strh	r3, [r2, #176]	; 0xb0
200002f4:	ea000023 	b	20000388 <mem_free+0x104>
200002f8:	e51b3010 	ldr	r3, [fp, #-16]
200002fc:	e2433008 	sub	r3, r3, #8
20000300:	e50b3008 	str	r3, [fp, #-8]
20000304:	e51b3008 	ldr	r3, [fp, #-8]
20000308:	e3a02000 	mov	r2, #0
2000030c:	e5c32004 	strb	r2, [r3, #4]
20000310:	e59f3088 	ldr	r3, [pc, #136]	; 200003a0 <mem_free+0x11c>
20000314:	e5933000 	ldr	r3, [r3]
20000318:	e51b2008 	ldr	r2, [fp, #-8]
2000031c:	e1520003 	cmp	r2, r3
20000320:	2a000002 	bcs	20000330 <mem_free+0xac>
20000324:	e59f2074 	ldr	r2, [pc, #116]	; 200003a0 <mem_free+0x11c>
20000328:	e51b3008 	ldr	r3, [fp, #-8]
2000032c:	e5823000 	str	r3, [r2]
20000330:	e59f3064 	ldr	r3, [pc, #100]	; 2000039c <mem_free+0x118>
20000334:	e1d32aba 	ldrh	r2, [r3, #170]	; 0xaa
20000338:	e51b3008 	ldr	r3, [fp, #-8]
2000033c:	e59f1050 	ldr	r1, [pc, #80]	; 20000394 <mem_free+0x110>
20000340:	e5911000 	ldr	r1, [r1]
20000344:	e0613003 	rsb	r3, r1, r3
20000348:	e1a03803 	lsl	r3, r3, #16
2000034c:	e1a01823 	lsr	r1, r3, #16
20000350:	e51b3008 	ldr	r3, [fp, #-8]
20000354:	e1d330b0 	ldrh	r3, [r3]
20000358:	e0633001 	rsb	r3, r3, r1
2000035c:	e1a03803 	lsl	r3, r3, #16
20000360:	e1a03823 	lsr	r3, r3, #16
20000364:	e0823003 	add	r3, r2, r3
20000368:	e1a03803 	lsl	r3, r3, #16
2000036c:	e1a03823 	lsr	r3, r3, #16
20000370:	e59f2024 	ldr	r2, [pc, #36]	; 2000039c <mem_free+0x118>
20000374:	e1c23aba 	strh	r3, [r2, #170]	; 0xaa
20000378:	e51b0008 	ldr	r0, [fp, #-8]
2000037c:	ebffff2a 	bl	2000002c <plug_holes>
20000380:	ea000000 	b	20000388 <mem_free+0x104>
20000384:	e1a00000 	nop			; (mov r0, r0)
20000388:	e24bd004 	sub	sp, fp, #4
2000038c:	e8bd4800 	pop	{fp, lr}
20000390:	e12fff1e 	bx	lr
20000394:	200141e0 	.word	0x200141e0
20000398:	200141e4 	.word	0x200141e4
2000039c:	20015630 	.word	0x20015630
200003a0:	200141e8 	.word	0x200141e8

200003a4 <mem_realloc>:
200003a4:	e52db004 	push	{fp}		; (str fp, [sp, #-4]!)
200003a8:	e28db000 	add	fp, sp, #0
200003ac:	e24dd01c 	sub	sp, sp, #28
200003b0:	e50b0018 	str	r0, [fp, #-24]	; 0xffffffe8
200003b4:	e1a03001 	mov	r3, r1
200003b8:	e14b31ba 	strh	r3, [fp, #-26]	; 0xffffffe6
200003bc:	e15b31ba 	ldrh	r3, [fp, #-26]	; 0xffffffe6
200003c0:	e2833003 	add	r3, r3, #3
200003c4:	e1a03803 	lsl	r3, r3, #16
200003c8:	e1a03823 	lsr	r3, r3, #16
200003cc:	e3c33003 	bic	r3, r3, #3
200003d0:	e14b31ba 	strh	r3, [fp, #-26]	; 0xffffffe6
200003d4:	e15b31ba 	ldrh	r3, [fp, #-26]	; 0xffffffe6
200003d8:	e353000b 	cmp	r3, #11
200003dc:	8a000001 	bhi	200003e8 <mem_realloc+0x44>
200003e0:	e3a0300c 	mov	r3, #12
200003e4:	e14b31ba 	strh	r3, [fp, #-26]	; 0xffffffe6
200003e8:	e15b31ba 	ldrh	r3, [fp, #-26]	; 0xffffffe6
200003ec:	e3530ffa 	cmp	r3, #1000	; 0x3e8
200003f0:	9a000001 	bls	200003fc <mem_realloc+0x58>
200003f4:	e3a03000 	mov	r3, #0
200003f8:	ea0000ac 	b	200006b0 <mem_realloc+0x30c>
200003fc:	e59f32bc 	ldr	r3, [pc, #700]	; 200006c0 <mem_realloc+0x31c>
20000400:	e5933000 	ldr	r3, [r3]
20000404:	e51b2018 	ldr	r2, [fp, #-24]	; 0xffffffe8
20000408:	e1520003 	cmp	r2, r3
2000040c:	e59f32ac 	ldr	r3, [pc, #684]	; 200006c0 <mem_realloc+0x31c>
20000410:	e5933000 	ldr	r3, [r3]
20000414:	e51b2018 	ldr	r2, [fp, #-24]	; 0xffffffe8
20000418:	e1520003 	cmp	r2, r3
2000041c:	3a000004 	bcc	20000434 <mem_realloc+0x90>
20000420:	e59f329c 	ldr	r3, [pc, #668]	; 200006c4 <mem_realloc+0x320>
20000424:	e5933000 	ldr	r3, [r3]
20000428:	e51b2018 	ldr	r2, [fp, #-24]	; 0xffffffe8
2000042c:	e1520003 	cmp	r2, r3
20000430:	3a000008 	bcc	20000458 <mem_realloc+0xb4>
20000434:	e59f328c 	ldr	r3, [pc, #652]	; 200006c8 <mem_realloc+0x324>
20000438:	e1d33bb0 	ldrh	r3, [r3, #176]	; 0xb0
2000043c:	e2833001 	add	r3, r3, #1
20000440:	e1a03803 	lsl	r3, r3, #16
20000444:	e1a03823 	lsr	r3, r3, #16
20000448:	e59f2278 	ldr	r2, [pc, #632]	; 200006c8 <mem_realloc+0x324>
2000044c:	e1c23bb0 	strh	r3, [r2, #176]	; 0xb0
20000450:	e51b3018 	ldr	r3, [fp, #-24]	; 0xffffffe8
20000454:	ea000095 	b	200006b0 <mem_realloc+0x30c>
20000458:	e51b3018 	ldr	r3, [fp, #-24]	; 0xffffffe8
2000045c:	e2433008 	sub	r3, r3, #8
20000460:	e50b3008 	str	r3, [fp, #-8]
20000464:	e51b3008 	ldr	r3, [fp, #-8]
20000468:	e59f2250 	ldr	r2, [pc, #592]	; 200006c0 <mem_realloc+0x31c>
2000046c:	e5922000 	ldr	r2, [r2]
20000470:	e0623003 	rsb	r3, r2, r3
20000474:	e14b30ba 	strh	r3, [fp, #-10]
20000478:	e51b3008 	ldr	r3, [fp, #-8]
2000047c:	e1d320b0 	ldrh	r2, [r3]
20000480:	e15b30ba 	ldrh	r3, [fp, #-10]
20000484:	e0633002 	rsb	r3, r3, r2
20000488:	e1a03803 	lsl	r3, r3, #16
2000048c:	e1a03823 	lsr	r3, r3, #16
20000490:	e2433008 	sub	r3, r3, #8
20000494:	e14b30bc 	strh	r3, [fp, #-12]
20000498:	e15b21ba 	ldrh	r2, [fp, #-26]	; 0xffffffe6
2000049c:	e15b30bc 	ldrh	r3, [fp, #-12]
200004a0:	e1520003 	cmp	r2, r3
200004a4:	9a000001 	bls	200004b0 <mem_realloc+0x10c>
200004a8:	e3a03000 	mov	r3, #0
200004ac:	ea00007f 	b	200006b0 <mem_realloc+0x30c>
200004b0:	e15b21ba 	ldrh	r2, [fp, #-26]	; 0xffffffe6
200004b4:	e15b30bc 	ldrh	r3, [fp, #-12]
200004b8:	e1520003 	cmp	r2, r3
200004bc:	1a000001 	bne	200004c8 <mem_realloc+0x124>
200004c0:	e51b3018 	ldr	r3, [fp, #-24]	; 0xffffffe8
200004c4:	ea000079 	b	200006b0 <mem_realloc+0x30c>
200004c8:	e59f31f8 	ldr	r3, [pc, #504]	; 200006c8 <mem_realloc+0x324>
200004cc:	e1d32aba 	ldrh	r2, [r3, #170]	; 0xaa
200004d0:	e15b11ba 	ldrh	r1, [fp, #-26]	; 0xffffffe6
200004d4:	e15b30bc 	ldrh	r3, [fp, #-12]
200004d8:	e0633001 	rsb	r3, r3, r1
200004dc:	e1a03803 	lsl	r3, r3, #16
200004e0:	e1a03823 	lsr	r3, r3, #16
200004e4:	e0823003 	add	r3, r2, r3
200004e8:	e1a03803 	lsl	r3, r3, #16
200004ec:	e1a03823 	lsr	r3, r3, #16
200004f0:	e59f21d0 	ldr	r2, [pc, #464]	; 200006c8 <mem_realloc+0x324>
200004f4:	e1c23aba 	strh	r3, [r2, #170]	; 0xaa
200004f8:	e59f31c0 	ldr	r3, [pc, #448]	; 200006c0 <mem_realloc+0x31c>
200004fc:	e5933000 	ldr	r3, [r3]
20000500:	e51b2008 	ldr	r2, [fp, #-8]
20000504:	e1d220b0 	ldrh	r2, [r2]
20000508:	e0833002 	add	r3, r3, r2
2000050c:	e50b3010 	str	r3, [fp, #-16]
20000510:	e51b3010 	ldr	r3, [fp, #-16]
20000514:	e5d33004 	ldrb	r3, [r3, #4]
20000518:	e3530000 	cmp	r3, #0
2000051c:	1a000031 	bne	200005e8 <mem_realloc+0x244>
20000520:	e51b3010 	ldr	r3, [fp, #-16]
20000524:	e1d330b0 	ldrh	r3, [r3]
20000528:	e14b31b2 	strh	r3, [fp, #-18]	; 0xffffffee
2000052c:	e15b20ba 	ldrh	r2, [fp, #-10]
20000530:	e15b31ba 	ldrh	r3, [fp, #-26]	; 0xffffffe6
20000534:	e0823003 	add	r3, r2, r3
20000538:	e1a03803 	lsl	r3, r3, #16
2000053c:	e1a03823 	lsr	r3, r3, #16
20000540:	e2833008 	add	r3, r3, #8
20000544:	e14b31b4 	strh	r3, [fp, #-20]	; 0xffffffec
20000548:	e59f317c 	ldr	r3, [pc, #380]	; 200006cc <mem_realloc+0x328>
2000054c:	e5932000 	ldr	r2, [r3]
20000550:	e51b3010 	ldr	r3, [fp, #-16]
20000554:	e1520003 	cmp	r2, r3
20000558:	1a000005 	bne	20000574 <mem_realloc+0x1d0>
2000055c:	e59f315c 	ldr	r3, [pc, #348]	; 200006c0 <mem_realloc+0x31c>
20000560:	e5932000 	ldr	r2, [r3]
20000564:	e15b31b4 	ldrh	r3, [fp, #-20]	; 0xffffffec
20000568:	e0823003 	add	r3, r2, r3
2000056c:	e59f2158 	ldr	r2, [pc, #344]	; 200006cc <mem_realloc+0x328>
20000570:	e5823000 	str	r3, [r2]
20000574:	e59f3144 	ldr	r3, [pc, #324]	; 200006c0 <mem_realloc+0x31c>
20000578:	e5932000 	ldr	r2, [r3]
2000057c:	e15b31b4 	ldrh	r3, [fp, #-20]	; 0xffffffec
20000580:	e0823003 	add	r3, r2, r3
20000584:	e50b3010 	str	r3, [fp, #-16]
20000588:	e51b3010 	ldr	r3, [fp, #-16]
2000058c:	e3a02000 	mov	r2, #0
20000590:	e5c32004 	strb	r2, [r3, #4]
20000594:	e51b3010 	ldr	r3, [fp, #-16]
20000598:	e15b21b2 	ldrh	r2, [fp, #-18]	; 0xffffffee
2000059c:	e1c320b0 	strh	r2, [r3]
200005a0:	e51b3010 	ldr	r3, [fp, #-16]
200005a4:	e15b20ba 	ldrh	r2, [fp, #-10]
200005a8:	e1c320b2 	strh	r2, [r3, #2]
200005ac:	e51b3008 	ldr	r3, [fp, #-8]
200005b0:	e15b21b4 	ldrh	r2, [fp, #-20]	; 0xffffffec
200005b4:	e1c320b0 	strh	r2, [r3]
200005b8:	e51b3010 	ldr	r3, [fp, #-16]
200005bc:	e1d330b0 	ldrh	r3, [r3]
200005c0:	e3530ffa 	cmp	r3, #1000	; 0x3e8
200005c4:	0a000038 	beq	200006ac <mem_realloc+0x308>
200005c8:	e59f30f0 	ldr	r3, [pc, #240]	; 200006c0 <mem_realloc+0x31c>
200005cc:	e5933000 	ldr	r3, [r3]
200005d0:	e51b2010 	ldr	r2, [fp, #-16]
200005d4:	e1d220b0 	ldrh	r2, [r2]
200005d8:	e0833002 	add	r3, r3, r2
200005dc:	e15b21b4 	ldrh	r2, [fp, #-20]	; 0xffffffec
200005e0:	e1c320b2 	strh	r2, [r3, #2]
200005e4:	ea000030 	b	200006ac <mem_realloc+0x308>
200005e8:	e15b31ba 	ldrh	r3, [fp, #-26]	; 0xffffffe6
200005ec:	e2832014 	add	r2, r3, #20
200005f0:	e15b30bc 	ldrh	r3, [fp, #-12]
200005f4:	e1520003 	cmp	r2, r3
200005f8:	8a00002b 	bhi	200006ac <mem_realloc+0x308>
200005fc:	e15b20ba 	ldrh	r2, [fp, #-10]
20000600:	e15b31ba 	ldrh	r3, [fp, #-26]	; 0xffffffe6
20000604:	e0823003 	add	r3, r2, r3
20000608:	e1a03803 	lsl	r3, r3, #16
2000060c:	e1a03823 	lsr	r3, r3, #16
20000610:	e2833008 	add	r3, r3, #8
20000614:	e14b31b4 	strh	r3, [fp, #-20]	; 0xffffffec
20000618:	e59f30a0 	ldr	r3, [pc, #160]	; 200006c0 <mem_realloc+0x31c>
2000061c:	e5932000 	ldr	r2, [r3]
20000620:	e15b31b4 	ldrh	r3, [fp, #-20]	; 0xffffffec
20000624:	e0823003 	add	r3, r2, r3
20000628:	e50b3010 	str	r3, [fp, #-16]
2000062c:	e59f3098 	ldr	r3, [pc, #152]	; 200006cc <mem_realloc+0x328>
20000630:	e5933000 	ldr	r3, [r3]
20000634:	e51b2010 	ldr	r2, [fp, #-16]
20000638:	e1520003 	cmp	r2, r3
2000063c:	2a000002 	bcs	2000064c <mem_realloc+0x2a8>
20000640:	e59f2084 	ldr	r2, [pc, #132]	; 200006cc <mem_realloc+0x328>
20000644:	e51b3010 	ldr	r3, [fp, #-16]
20000648:	e5823000 	str	r3, [r2]
2000064c:	e51b3010 	ldr	r3, [fp, #-16]
20000650:	e3a02000 	mov	r2, #0
20000654:	e5c32004 	strb	r2, [r3, #4]
20000658:	e51b3008 	ldr	r3, [fp, #-8]
2000065c:	e1d320b0 	ldrh	r2, [r3]
20000660:	e51b3010 	ldr	r3, [fp, #-16]
20000664:	e1c320b0 	strh	r2, [r3]
20000668:	e51b3010 	ldr	r3, [fp, #-16]
2000066c:	e15b20ba 	ldrh	r2, [fp, #-10]
20000670:	e1c320b2 	strh	r2, [r3, #2]
20000674:	e51b3008 	ldr	r3, [fp, #-8]
20000678:	e15b21b4 	ldrh	r2, [fp, #-20]	; 0xffffffec
2000067c:	e1c320b0 	strh	r2, [r3]
20000680:	e51b3010 	ldr	r3, [fp, #-16]
20000684:	e1d330b0 	ldrh	r3, [r3]
20000688:	e3530ffa 	cmp	r3, #1000	; 0x3e8
2000068c:	0a000006 	beq	200006ac <mem_realloc+0x308>
20000690:	e59f3028 	ldr	r3, [pc, #40]	; 200006c0 <mem_realloc+0x31c>
20000694:	e5933000 	ldr	r3, [r3]
20000698:	e51b2010 	ldr	r2, [fp, #-16]
2000069c:	e1d220b0 	ldrh	r2, [r2]
200006a0:	e0833002 	add	r3, r3, r2
200006a4:	e15b21b4 	ldrh	r2, [fp, #-20]	; 0xffffffec
200006a8:	e1c320b2 	strh	r2, [r3, #2]
200006ac:	e51b3018 	ldr	r3, [fp, #-24]	; 0xffffffe8
200006b0:	e1a00003 	mov	r0, r3
200006b4:	e24bd000 	sub	sp, fp, #0
200006b8:	e49db004 	pop	{fp}		; (ldr fp, [sp], #4)
200006bc:	e12fff1e 	bx	lr
200006c0:	200141e0 	.word	0x200141e0
200006c4:	200141e4 	.word	0x200141e4
200006c8:	20015630 	.word	0x20015630
200006cc:	200141e8 	.word	0x200141e8

200006d0 <mem_malloc>:
200006d0:	e52db004 	push	{fp}		; (str fp, [sp, #-4]!)
200006d4:	e28db000 	add	fp, sp, #0
200006d8:	e24dd01c 	sub	sp, sp, #28
200006dc:	e1a03000 	mov	r3, r0
200006e0:	e14b31b6 	strh	r3, [fp, #-22]	; 0xffffffea
200006e4:	e15b31b6 	ldrh	r3, [fp, #-22]	; 0xffffffea
200006e8:	e3530000 	cmp	r3, #0
200006ec:	1a000001 	bne	200006f8 <mem_malloc+0x28>
200006f0:	e3a03000 	mov	r3, #0
200006f4:	ea0000c4 	b	20000a0c <mem_malloc+0x33c>
200006f8:	e15b31b6 	ldrh	r3, [fp, #-22]	; 0xffffffea
200006fc:	e2833003 	add	r3, r3, #3
20000700:	e1a03803 	lsl	r3, r3, #16
20000704:	e1a03823 	lsr	r3, r3, #16
20000708:	e3c33003 	bic	r3, r3, #3
2000070c:	e14b31b6 	strh	r3, [fp, #-22]	; 0xffffffea
20000710:	e15b31b6 	ldrh	r3, [fp, #-22]	; 0xffffffea
20000714:	e353000b 	cmp	r3, #11
20000718:	8a000001 	bhi	20000724 <mem_malloc+0x54>
2000071c:	e3a0300c 	mov	r3, #12
20000720:	e14b31b6 	strh	r3, [fp, #-22]	; 0xffffffea
20000724:	e15b31b6 	ldrh	r3, [fp, #-22]	; 0xffffffea
20000728:	e3530ffa 	cmp	r3, #1000	; 0x3e8
2000072c:	9a000001 	bls	20000738 <mem_malloc+0x68>
20000730:	e3a03000 	mov	r3, #0
20000734:	ea0000b4 	b	20000a0c <mem_malloc+0x33c>
20000738:	e59f32dc 	ldr	r3, [pc, #732]	; 20000a1c <mem_malloc+0x34c>
2000073c:	e5933000 	ldr	r3, [r3]
20000740:	e1a02003 	mov	r2, r3
20000744:	e59f32d4 	ldr	r3, [pc, #724]	; 20000a20 <mem_malloc+0x350>
20000748:	e5933000 	ldr	r3, [r3]
2000074c:	e0633002 	rsb	r3, r3, r2
20000750:	e14b30b6 	strh	r3, [fp, #-6]
20000754:	ea00009f 	b	200009d8 <mem_malloc+0x308>
20000758:	e59f32c0 	ldr	r3, [pc, #704]	; 20000a20 <mem_malloc+0x350>
2000075c:	e5932000 	ldr	r2, [r3]
20000760:	e15b30b6 	ldrh	r3, [fp, #-6]
20000764:	e0823003 	add	r3, r2, r3
20000768:	e50b300c 	str	r3, [fp, #-12]
2000076c:	e51b300c 	ldr	r3, [fp, #-12]
20000770:	e5d33004 	ldrb	r3, [r3, #4]
20000774:	e3530000 	cmp	r3, #0
20000778:	1a000090 	bne	200009c0 <mem_malloc+0x2f0>
2000077c:	e51b300c 	ldr	r3, [fp, #-12]
20000780:	e1d330b0 	ldrh	r3, [r3]
20000784:	e1a02003 	mov	r2, r3
20000788:	e15b30b6 	ldrh	r3, [fp, #-6]
2000078c:	e0633002 	rsb	r3, r3, r2
20000790:	e2432008 	sub	r2, r3, #8
20000794:	e15b31b6 	ldrh	r3, [fp, #-22]	; 0xffffffea
20000798:	e1520003 	cmp	r2, r3
2000079c:	3a000087 	bcc	200009c0 <mem_malloc+0x2f0>
200007a0:	e51b300c 	ldr	r3, [fp, #-12]
200007a4:	e1d330b0 	ldrh	r3, [r3]
200007a8:	e1a02003 	mov	r2, r3
200007ac:	e15b30b6 	ldrh	r3, [fp, #-6]
200007b0:	e0633002 	rsb	r3, r3, r2
200007b4:	e2432008 	sub	r2, r3, #8
200007b8:	e15b31b6 	ldrh	r3, [fp, #-22]	; 0xffffffea
200007bc:	e2833014 	add	r3, r3, #20
200007c0:	e1520003 	cmp	r2, r3
200007c4:	3a00003c 	bcc	200008bc <mem_malloc+0x1ec>
200007c8:	e15b20b6 	ldrh	r2, [fp, #-6]
200007cc:	e15b31b6 	ldrh	r3, [fp, #-22]	; 0xffffffea
200007d0:	e0823003 	add	r3, r2, r3
200007d4:	e1a03803 	lsl	r3, r3, #16
200007d8:	e1a03823 	lsr	r3, r3, #16
200007dc:	e2833008 	add	r3, r3, #8
200007e0:	e14b30be 	strh	r3, [fp, #-14]
200007e4:	e59f3234 	ldr	r3, [pc, #564]	; 20000a20 <mem_malloc+0x350>
200007e8:	e5932000 	ldr	r2, [r3]
200007ec:	e15b30be 	ldrh	r3, [fp, #-14]
200007f0:	e0823003 	add	r3, r2, r3
200007f4:	e50b3014 	str	r3, [fp, #-20]	; 0xffffffec
200007f8:	e51b3014 	ldr	r3, [fp, #-20]	; 0xffffffec
200007fc:	e3a02000 	mov	r2, #0
20000800:	e5c32004 	strb	r2, [r3, #4]
20000804:	e51b300c 	ldr	r3, [fp, #-12]
20000808:	e1d320b0 	ldrh	r2, [r3]
2000080c:	e51b3014 	ldr	r3, [fp, #-20]	; 0xffffffec
20000810:	e1c320b0 	strh	r2, [r3]
20000814:	e51b3014 	ldr	r3, [fp, #-20]	; 0xffffffec
20000818:	e15b20b6 	ldrh	r2, [fp, #-6]
2000081c:	e1c320b2 	strh	r2, [r3, #2]
20000820:	e51b300c 	ldr	r3, [fp, #-12]
20000824:	e15b20be 	ldrh	r2, [fp, #-14]
20000828:	e1c320b0 	strh	r2, [r3]
2000082c:	e51b300c 	ldr	r3, [fp, #-12]
20000830:	e3a02001 	mov	r2, #1
20000834:	e5c32004 	strb	r2, [r3, #4]
20000838:	e51b3014 	ldr	r3, [fp, #-20]	; 0xffffffec
2000083c:	e1d330b0 	ldrh	r3, [r3]
20000840:	e3530ffa 	cmp	r3, #1000	; 0x3e8
20000844:	0a000006 	beq	20000864 <mem_malloc+0x194>
20000848:	e59f31d0 	ldr	r3, [pc, #464]	; 20000a20 <mem_malloc+0x350>
2000084c:	e5933000 	ldr	r3, [r3]
20000850:	e51b2014 	ldr	r2, [fp, #-20]	; 0xffffffec
20000854:	e1d220b0 	ldrh	r2, [r2]
20000858:	e0833002 	add	r3, r3, r2
2000085c:	e15b20be 	ldrh	r2, [fp, #-14]
20000860:	e1c320b2 	strh	r2, [r3, #2]
20000864:	e59f31b8 	ldr	r3, [pc, #440]	; 20000a24 <mem_malloc+0x354>
20000868:	e1d32aba 	ldrh	r2, [r3, #170]	; 0xaa
2000086c:	e15b31b6 	ldrh	r3, [fp, #-22]	; 0xffffffea
20000870:	e0823003 	add	r3, r2, r3
20000874:	e1a03803 	lsl	r3, r3, #16
20000878:	e1a03823 	lsr	r3, r3, #16
2000087c:	e2833008 	add	r3, r3, #8
20000880:	e1a03803 	lsl	r3, r3, #16
20000884:	e1a03823 	lsr	r3, r3, #16
20000888:	e59f2194 	ldr	r2, [pc, #404]	; 20000a24 <mem_malloc+0x354>
2000088c:	e1c23aba 	strh	r3, [r2, #170]	; 0xaa
20000890:	e59f318c 	ldr	r3, [pc, #396]	; 20000a24 <mem_malloc+0x354>
20000894:	e1d32abc 	ldrh	r2, [r3, #172]	; 0xac
20000898:	e59f3184 	ldr	r3, [pc, #388]	; 20000a24 <mem_malloc+0x354>
2000089c:	e1d33aba 	ldrh	r3, [r3, #170]	; 0xaa
200008a0:	e1520003 	cmp	r2, r3
200008a4:	2a000024 	bcs	2000093c <mem_malloc+0x26c>
200008a8:	e59f3174 	ldr	r3, [pc, #372]	; 20000a24 <mem_malloc+0x354>
200008ac:	e1d33aba 	ldrh	r3, [r3, #170]	; 0xaa
200008b0:	e59f216c 	ldr	r2, [pc, #364]	; 20000a24 <mem_malloc+0x354>
200008b4:	e1c23abc 	strh	r3, [r2, #172]	; 0xac
200008b8:	ea00001f 	b	2000093c <mem_malloc+0x26c>
200008bc:	e51b300c 	ldr	r3, [fp, #-12]
200008c0:	e3a02001 	mov	r2, #1
200008c4:	e5c32004 	strb	r2, [r3, #4]
200008c8:	e59f3154 	ldr	r3, [pc, #340]	; 20000a24 <mem_malloc+0x354>
200008cc:	e1d32aba 	ldrh	r2, [r3, #170]	; 0xaa
200008d0:	e51b300c 	ldr	r3, [fp, #-12]
200008d4:	e1d310b0 	ldrh	r1, [r3]
200008d8:	e59f3140 	ldr	r3, [pc, #320]	; 20000a20 <mem_malloc+0x350>
200008dc:	e5933000 	ldr	r3, [r3]
200008e0:	e1a00003 	mov	r0, r3
200008e4:	e51b300c 	ldr	r3, [fp, #-12]
200008e8:	e0633000 	rsb	r3, r3, r0
200008ec:	e1a03803 	lsl	r3, r3, #16
200008f0:	e1a03823 	lsr	r3, r3, #16
200008f4:	e0813003 	add	r3, r1, r3
200008f8:	e1a03803 	lsl	r3, r3, #16
200008fc:	e1a03823 	lsr	r3, r3, #16
20000900:	e0823003 	add	r3, r2, r3
20000904:	e1a03803 	lsl	r3, r3, #16
20000908:	e1a03823 	lsr	r3, r3, #16
2000090c:	e59f2110 	ldr	r2, [pc, #272]	; 20000a24 <mem_malloc+0x354>
20000910:	e1c23aba 	strh	r3, [r2, #170]	; 0xaa
20000914:	e59f3108 	ldr	r3, [pc, #264]	; 20000a24 <mem_malloc+0x354>
20000918:	e1d32abc 	ldrh	r2, [r3, #172]	; 0xac
2000091c:	e59f3100 	ldr	r3, [pc, #256]	; 20000a24 <mem_malloc+0x354>
20000920:	e1d33aba 	ldrh	r3, [r3, #170]	; 0xaa
20000924:	e1520003 	cmp	r2, r3
20000928:	2a000003 	bcs	2000093c <mem_malloc+0x26c>
2000092c:	e59f30f0 	ldr	r3, [pc, #240]	; 20000a24 <mem_malloc+0x354>
20000930:	e1d33aba 	ldrh	r3, [r3, #170]	; 0xaa
20000934:	e59f20e8 	ldr	r2, [pc, #232]	; 20000a24 <mem_malloc+0x354>
20000938:	e1c23abc 	strh	r3, [r2, #172]	; 0xac
2000093c:	e59f30d8 	ldr	r3, [pc, #216]	; 20000a1c <mem_malloc+0x34c>
20000940:	e5933000 	ldr	r3, [r3]
20000944:	e51b200c 	ldr	r2, [fp, #-12]
20000948:	e1520003 	cmp	r2, r3
2000094c:	1a000018 	bne	200009b4 <mem_malloc+0x2e4>
20000950:	ea000007 	b	20000974 <mem_malloc+0x2a4>
20000954:	e59f30c4 	ldr	r3, [pc, #196]	; 20000a20 <mem_malloc+0x350>
20000958:	e5933000 	ldr	r3, [r3]
2000095c:	e59f20b8 	ldr	r2, [pc, #184]	; 20000a1c <mem_malloc+0x34c>
20000960:	e5922000 	ldr	r2, [r2]
20000964:	e1d220b0 	ldrh	r2, [r2]
20000968:	e0833002 	add	r3, r3, r2
2000096c:	e59f20a8 	ldr	r2, [pc, #168]	; 20000a1c <mem_malloc+0x34c>
20000970:	e5823000 	str	r3, [r2]
20000974:	e59f30a0 	ldr	r3, [pc, #160]	; 20000a1c <mem_malloc+0x34c>
20000978:	e5933000 	ldr	r3, [r3]
2000097c:	e5d33004 	ldrb	r3, [r3, #4]
20000980:	e3530000 	cmp	r3, #0
20000984:	0a000005 	beq	200009a0 <mem_malloc+0x2d0>
20000988:	e59f308c 	ldr	r3, [pc, #140]	; 20000a1c <mem_malloc+0x34c>
2000098c:	e5932000 	ldr	r2, [r3]
20000990:	e59f3090 	ldr	r3, [pc, #144]	; 20000a28 <mem_malloc+0x358>
20000994:	e5933000 	ldr	r3, [r3]
20000998:	e1520003 	cmp	r2, r3
2000099c:	1affffec 	bne	20000954 <mem_malloc+0x284>
200009a0:	e59f3074 	ldr	r3, [pc, #116]	; 20000a1c <mem_malloc+0x34c>
200009a4:	e5932000 	ldr	r2, [r3]
200009a8:	e59f3078 	ldr	r3, [pc, #120]	; 20000a28 <mem_malloc+0x358>
200009ac:	e5933000 	ldr	r3, [r3]
200009b0:	e1520003 	cmp	r2, r3
200009b4:	e51b300c 	ldr	r3, [fp, #-12]
200009b8:	e2833008 	add	r3, r3, #8
200009bc:	ea000012 	b	20000a0c <mem_malloc+0x33c>
200009c0:	e59f3058 	ldr	r3, [pc, #88]	; 20000a20 <mem_malloc+0x350>
200009c4:	e5932000 	ldr	r2, [r3]
200009c8:	e15b30b6 	ldrh	r3, [fp, #-6]
200009cc:	e0823003 	add	r3, r2, r3
200009d0:	e1d330b0 	ldrh	r3, [r3]
200009d4:	e14b30b6 	strh	r3, [fp, #-6]
200009d8:	e15b20b6 	ldrh	r2, [fp, #-6]
200009dc:	e15b31b6 	ldrh	r3, [fp, #-22]	; 0xffffffea
200009e0:	e2633ffa 	rsb	r3, r3, #1000	; 0x3e8
200009e4:	e1520003 	cmp	r2, r3
200009e8:	baffff5a 	blt	20000758 <mem_malloc+0x88>
200009ec:	e59f3030 	ldr	r3, [pc, #48]	; 20000a24 <mem_malloc+0x354>
200009f0:	e1d33abe 	ldrh	r3, [r3, #174]	; 0xae
200009f4:	e2833001 	add	r3, r3, #1
200009f8:	e1a03803 	lsl	r3, r3, #16
200009fc:	e1a03823 	lsr	r3, r3, #16
20000a00:	e59f201c 	ldr	r2, [pc, #28]	; 20000a24 <mem_malloc+0x354>
20000a04:	e1c23abe 	strh	r3, [r2, #174]	; 0xae
20000a08:	e3a03000 	mov	r3, #0
20000a0c:	e1a00003 	mov	r0, r3
20000a10:	e24bd000 	sub	sp, fp, #0
20000a14:	e49db004 	pop	{fp}		; (ldr fp, [sp], #4)
20000a18:	e12fff1e 	bx	lr
20000a1c:	200141e8 	.word	0x200141e8
20000a20:	200141e0 	.word	0x200141e0
20000a24:	20015630 	.word	0x20015630
20000a28:	200141e4 	.word	0x200141e4

20000a2c <mem_calloc>:
20000a2c:	e92d4800 	push	{fp, lr}
20000a30:	e28db004 	add	fp, sp, #4
20000a34:	e24dd010 	sub	sp, sp, #16
20000a38:	e1a02000 	mov	r2, r0
20000a3c:	e1a03001 	mov	r3, r1
20000a40:	e14b20be 	strh	r2, [fp, #-14]
20000a44:	e14b31b0 	strh	r3, [fp, #-16]
20000a48:	e15b30be 	ldrh	r3, [fp, #-14]
20000a4c:	e15b21b0 	ldrh	r2, [fp, #-16]
20000a50:	e0030392 	mul	r3, r2, r3
20000a54:	e1a03803 	lsl	r3, r3, #16
20000a58:	e1a03823 	lsr	r3, r3, #16
20000a5c:	e1a00003 	mov	r0, r3
20000a60:	ebffff1a 	bl	200006d0 <mem_malloc>
20000a64:	e50b0008 	str	r0, [fp, #-8]
20000a68:	e51b3008 	ldr	r3, [fp, #-8]
20000a6c:	e3530000 	cmp	r3, #0
20000a70:	0a000006 	beq	20000a90 <mem_calloc+0x64>
20000a74:	e15b30be 	ldrh	r3, [fp, #-14]
20000a78:	e15b21b0 	ldrh	r2, [fp, #-16]
20000a7c:	e0030392 	mul	r3, r2, r3
20000a80:	e1a02003 	mov	r2, r3
20000a84:	e3a01000 	mov	r1, #0
20000a88:	e51b0008 	ldr	r0, [fp, #-8]
20000a8c:	eb004c8a 	bl	20013cbc <memset>
20000a90:	e51b3008 	ldr	r3, [fp, #-8]
20000a94:	e1a00003 	mov	r0, r3
20000a98:	e24bd004 	sub	sp, fp, #4
20000a9c:	e8bd4800 	pop	{fp, lr}
20000aa0:	e12fff1e 	bx	lr

20000aa4 <memp_init>:
20000aa4:	e52db004 	push	{fp}		; (str fp, [sp, #-4]!)
20000aa8:	e28db000 	add	fp, sp, #0
20000aac:	e24dd00c 	sub	sp, sp, #12
20000ab0:	e3a03000 	mov	r3, #0
20000ab4:	e14b30ba 	strh	r3, [fp, #-10]
20000ab8:	ea00002e 	b	20000b78 <memp_init+0xd4>
20000abc:	e15b20ba 	ldrh	r2, [fp, #-10]
20000ac0:	e59f1190 	ldr	r1, [pc, #400]	; 20000c58 <memp_init+0x1b4>
20000ac4:	e1a03002 	mov	r3, r2
20000ac8:	e1a03103 	lsl	r3, r3, #2
20000acc:	e0833002 	add	r3, r3, r2
20000ad0:	e1a03083 	lsl	r3, r3, #1
20000ad4:	e0813003 	add	r3, r1, r3
20000ad8:	e28330b4 	add	r3, r3, #180	; 0xb4
20000adc:	e3a02000 	mov	r2, #0
20000ae0:	e1c320b0 	strh	r2, [r3]
20000ae4:	e15b20ba 	ldrh	r2, [fp, #-10]
20000ae8:	e59f1168 	ldr	r1, [pc, #360]	; 20000c58 <memp_init+0x1b4>
20000aec:	e1a03002 	mov	r3, r2
20000af0:	e1a03103 	lsl	r3, r3, #2
20000af4:	e0833002 	add	r3, r3, r2
20000af8:	e1a03083 	lsl	r3, r3, #1
20000afc:	e0813003 	add	r3, r1, r3
20000b00:	e28330b6 	add	r3, r3, #182	; 0xb6
20000b04:	e3a02000 	mov	r2, #0
20000b08:	e1c320b0 	strh	r2, [r3]
20000b0c:	e15b20ba 	ldrh	r2, [fp, #-10]
20000b10:	e59f1140 	ldr	r1, [pc, #320]	; 20000c58 <memp_init+0x1b4>
20000b14:	e1a03002 	mov	r3, r2
20000b18:	e1a03103 	lsl	r3, r3, #2
20000b1c:	e0833002 	add	r3, r3, r2
20000b20:	e1a03083 	lsl	r3, r3, #1
20000b24:	e0813003 	add	r3, r1, r3
20000b28:	e28330b8 	add	r3, r3, #184	; 0xb8
20000b2c:	e3a02000 	mov	r2, #0
20000b30:	e1c320b0 	strh	r2, [r3]
20000b34:	e15b20ba 	ldrh	r2, [fp, #-10]
20000b38:	e15b30ba 	ldrh	r3, [fp, #-10]
20000b3c:	e59f1118 	ldr	r1, [pc, #280]	; 20000c5c <memp_init+0x1b8>
20000b40:	e1a03083 	lsl	r3, r3, #1
20000b44:	e0813003 	add	r3, r1, r3
20000b48:	e1d310b0 	ldrh	r1, [r3]
20000b4c:	e59f0104 	ldr	r0, [pc, #260]	; 20000c58 <memp_init+0x1b4>
20000b50:	e1a03002 	mov	r3, r2
20000b54:	e1a03103 	lsl	r3, r3, #2
20000b58:	e0833002 	add	r3, r3, r2
20000b5c:	e1a03083 	lsl	r3, r3, #1
20000b60:	e0803003 	add	r3, r0, r3
20000b64:	e28330b2 	add	r3, r3, #178	; 0xb2
20000b68:	e1c310b0 	strh	r1, [r3]
20000b6c:	e15b30ba 	ldrh	r3, [fp, #-10]
20000b70:	e2833001 	add	r3, r3, #1
20000b74:	e14b30ba 	strh	r3, [fp, #-10]
20000b78:	e15b30ba 	ldrh	r3, [fp, #-10]
20000b7c:	e3530009 	cmp	r3, #9
20000b80:	9affffcd 	bls	20000abc <memp_init+0x18>
20000b84:	e59f30d4 	ldr	r3, [pc, #212]	; 20000c60 <memp_init+0x1bc>
20000b88:	e2833003 	add	r3, r3, #3
20000b8c:	e3c33003 	bic	r3, r3, #3
20000b90:	e50b3008 	str	r3, [fp, #-8]
20000b94:	e3a03000 	mov	r3, #0
20000b98:	e14b30ba 	strh	r3, [fp, #-10]
20000b9c:	ea000026 	b	20000c3c <memp_init+0x198>
20000ba0:	e15b30ba 	ldrh	r3, [fp, #-10]
20000ba4:	e59f20b8 	ldr	r2, [pc, #184]	; 20000c64 <memp_init+0x1c0>
20000ba8:	e3a01000 	mov	r1, #0
20000bac:	e7821103 	str	r1, [r2, r3, lsl #2]
20000bb0:	e3a03000 	mov	r3, #0
20000bb4:	e14b30bc 	strh	r3, [fp, #-12]
20000bb8:	ea000014 	b	20000c10 <memp_init+0x16c>
20000bbc:	e15b30ba 	ldrh	r3, [fp, #-10]
20000bc0:	e59f209c 	ldr	r2, [pc, #156]	; 20000c64 <memp_init+0x1c0>
20000bc4:	e7922103 	ldr	r2, [r2, r3, lsl #2]
20000bc8:	e51b3008 	ldr	r3, [fp, #-8]
20000bcc:	e5832000 	str	r2, [r3]
20000bd0:	e15b30ba 	ldrh	r3, [fp, #-10]
20000bd4:	e59f1088 	ldr	r1, [pc, #136]	; 20000c64 <memp_init+0x1c0>
20000bd8:	e51b2008 	ldr	r2, [fp, #-8]
20000bdc:	e7812103 	str	r2, [r1, r3, lsl #2]
20000be0:	e15b30ba 	ldrh	r3, [fp, #-10]
20000be4:	e59f207c 	ldr	r2, [pc, #124]	; 20000c68 <memp_init+0x1c4>
20000be8:	e1a03083 	lsl	r3, r3, #1
20000bec:	e0823003 	add	r3, r2, r3
20000bf0:	e1d330b0 	ldrh	r3, [r3]
20000bf4:	e1a02003 	mov	r2, r3
20000bf8:	e51b3008 	ldr	r3, [fp, #-8]
20000bfc:	e0833002 	add	r3, r3, r2
20000c00:	e50b3008 	str	r3, [fp, #-8]
20000c04:	e15b30bc 	ldrh	r3, [fp, #-12]
20000c08:	e2833001 	add	r3, r3, #1
20000c0c:	e14b30bc 	strh	r3, [fp, #-12]
20000c10:	e15b30ba 	ldrh	r3, [fp, #-10]
20000c14:	e59f2040 	ldr	r2, [pc, #64]	; 20000c5c <memp_init+0x1b8>
20000c18:	e1a03083 	lsl	r3, r3, #1
20000c1c:	e0823003 	add	r3, r2, r3
20000c20:	e1d330b0 	ldrh	r3, [r3]
20000c24:	e15b20bc 	ldrh	r2, [fp, #-12]
20000c28:	e1520003 	cmp	r2, r3
20000c2c:	3affffe2 	bcc	20000bbc <memp_init+0x118>
20000c30:	e15b30ba 	ldrh	r3, [fp, #-10]
20000c34:	e2833001 	add	r3, r3, #1
20000c38:	e14b30ba 	strh	r3, [fp, #-10]
20000c3c:	e15b30ba 	ldrh	r3, [fp, #-10]
20000c40:	e3530009 	cmp	r3, #9
20000c44:	9affffd5 	bls	20000ba0 <memp_init+0xfc>
20000c48:	e1a00000 	nop			; (mov r0, r0)
20000c4c:	e24bd000 	sub	sp, fp, #0
20000c50:	e49db004 	pop	{fp}		; (ldr fp, [sp], #4)
20000c54:	e12fff1e 	bx	lr
20000c58:	20015630 	.word	0x20015630
20000c5c:	2001355c 	.word	0x2001355c
20000c60:	20014218 	.word	0x20014218
20000c64:	200141f0 	.word	0x200141f0
20000c68:	20013548 	.word	0x20013548

20000c6c <memp_malloc>:
20000c6c:	e52db004 	push	{fp}		; (str fp, [sp, #-4]!)
20000c70:	e28db000 	add	fp, sp, #0
20000c74:	e24dd014 	sub	sp, sp, #20
20000c78:	e1a03000 	mov	r3, r0
20000c7c:	e54b300d 	strb	r3, [fp, #-13]
20000c80:	e55b300d 	ldrb	r3, [fp, #-13]
20000c84:	e3530009 	cmp	r3, #9
20000c88:	9a000001 	bls	20000c94 <memp_malloc+0x28>
20000c8c:	e3a03000 	mov	r3, #0
20000c90:	ea00005b 	b	20000e04 <memp_malloc+0x198>
20000c94:	e55b300d 	ldrb	r3, [fp, #-13]
20000c98:	e59f2174 	ldr	r2, [pc, #372]	; 20000e14 <memp_malloc+0x1a8>
20000c9c:	e7923103 	ldr	r3, [r2, r3, lsl #2]
20000ca0:	e50b3008 	str	r3, [fp, #-8]
20000ca4:	e51b3008 	ldr	r3, [fp, #-8]
20000ca8:	e3530000 	cmp	r3, #0
20000cac:	0a00003f 	beq	20000db0 <memp_malloc+0x144>
20000cb0:	e55b300d 	ldrb	r3, [fp, #-13]
20000cb4:	e51b2008 	ldr	r2, [fp, #-8]
20000cb8:	e5922000 	ldr	r2, [r2]
20000cbc:	e59f1150 	ldr	r1, [pc, #336]	; 20000e14 <memp_malloc+0x1a8>
20000cc0:	e7812103 	str	r2, [r1, r3, lsl #2]
20000cc4:	e55b200d 	ldrb	r2, [fp, #-13]
20000cc8:	e59f1148 	ldr	r1, [pc, #328]	; 20000e18 <memp_malloc+0x1ac>
20000ccc:	e1a03002 	mov	r3, r2
20000cd0:	e1a03103 	lsl	r3, r3, #2
20000cd4:	e0833002 	add	r3, r3, r2
20000cd8:	e1a03083 	lsl	r3, r3, #1
20000cdc:	e0813003 	add	r3, r1, r3
20000ce0:	e28330b4 	add	r3, r3, #180	; 0xb4
20000ce4:	e1d330b0 	ldrh	r3, [r3]
20000ce8:	e2833001 	add	r3, r3, #1
20000cec:	e1a03803 	lsl	r3, r3, #16
20000cf0:	e1a01823 	lsr	r1, r3, #16
20000cf4:	e59f011c 	ldr	r0, [pc, #284]	; 20000e18 <memp_malloc+0x1ac>
20000cf8:	e1a03002 	mov	r3, r2
20000cfc:	e1a03103 	lsl	r3, r3, #2
20000d00:	e0833002 	add	r3, r3, r2
20000d04:	e1a03083 	lsl	r3, r3, #1
20000d08:	e0803003 	add	r3, r0, r3
20000d0c:	e28330b4 	add	r3, r3, #180	; 0xb4
20000d10:	e1c310b0 	strh	r1, [r3]
20000d14:	e55b200d 	ldrb	r2, [fp, #-13]
20000d18:	e59f10f8 	ldr	r1, [pc, #248]	; 20000e18 <memp_malloc+0x1ac>
20000d1c:	e1a03002 	mov	r3, r2
20000d20:	e1a03103 	lsl	r3, r3, #2
20000d24:	e0833002 	add	r3, r3, r2
20000d28:	e1a03083 	lsl	r3, r3, #1
20000d2c:	e0813003 	add	r3, r1, r3
20000d30:	e28330b6 	add	r3, r3, #182	; 0xb6
20000d34:	e1d310b0 	ldrh	r1, [r3]
20000d38:	e55b200d 	ldrb	r2, [fp, #-13]
20000d3c:	e59f00d4 	ldr	r0, [pc, #212]	; 20000e18 <memp_malloc+0x1ac>
20000d40:	e1a03002 	mov	r3, r2
20000d44:	e1a03103 	lsl	r3, r3, #2
20000d48:	e0833002 	add	r3, r3, r2
20000d4c:	e1a03083 	lsl	r3, r3, #1
20000d50:	e0803003 	add	r3, r0, r3
20000d54:	e28330b4 	add	r3, r3, #180	; 0xb4
20000d58:	e1d330b0 	ldrh	r3, [r3]
20000d5c:	e1510003 	cmp	r1, r3
20000d60:	2a000026 	bcs	20000e00 <memp_malloc+0x194>
20000d64:	e55b200d 	ldrb	r2, [fp, #-13]
20000d68:	e55b100d 	ldrb	r1, [fp, #-13]
20000d6c:	e59f00a4 	ldr	r0, [pc, #164]	; 20000e18 <memp_malloc+0x1ac>
20000d70:	e1a03001 	mov	r3, r1
20000d74:	e1a03103 	lsl	r3, r3, #2
20000d78:	e0833001 	add	r3, r3, r1
20000d7c:	e1a03083 	lsl	r3, r3, #1
20000d80:	e0803003 	add	r3, r0, r3
20000d84:	e28330b4 	add	r3, r3, #180	; 0xb4
20000d88:	e1d310b0 	ldrh	r1, [r3]
20000d8c:	e59f0084 	ldr	r0, [pc, #132]	; 20000e18 <memp_malloc+0x1ac>
20000d90:	e1a03002 	mov	r3, r2
20000d94:	e1a03103 	lsl	r3, r3, #2
20000d98:	e0833002 	add	r3, r3, r2
20000d9c:	e1a03083 	lsl	r3, r3, #1
20000da0:	e0803003 	add	r3, r0, r3
20000da4:	e28330b6 	add	r3, r3, #182	; 0xb6
20000da8:	e1c310b0 	strh	r1, [r3]
20000dac:	ea000013 	b	20000e00 <memp_malloc+0x194>
20000db0:	e55b200d 	ldrb	r2, [fp, #-13]
20000db4:	e59f105c 	ldr	r1, [pc, #92]	; 20000e18 <memp_malloc+0x1ac>
20000db8:	e1a03002 	mov	r3, r2
20000dbc:	e1a03103 	lsl	r3, r3, #2
20000dc0:	e0833002 	add	r3, r3, r2
20000dc4:	e1a03083 	lsl	r3, r3, #1
20000dc8:	e0813003 	add	r3, r1, r3
20000dcc:	e28330b8 	add	r3, r3, #184	; 0xb8
20000dd0:	e1d330b0 	ldrh	r3, [r3]
20000dd4:	e2833001 	add	r3, r3, #1
20000dd8:	e1a03803 	lsl	r3, r3, #16
20000ddc:	e1a01823 	lsr	r1, r3, #16
20000de0:	e59f0030 	ldr	r0, [pc, #48]	; 20000e18 <memp_malloc+0x1ac>
20000de4:	e1a03002 	mov	r3, r2
20000de8:	e1a03103 	lsl	r3, r3, #2
20000dec:	e0833002 	add	r3, r3, r2
20000df0:	e1a03083 	lsl	r3, r3, #1
20000df4:	e0803003 	add	r3, r0, r3
20000df8:	e28330b8 	add	r3, r3, #184	; 0xb8
20000dfc:	e1c310b0 	strh	r1, [r3]
20000e00:	e51b3008 	ldr	r3, [fp, #-8]
20000e04:	e1a00003 	mov	r0, r3
20000e08:	e24bd000 	sub	sp, fp, #0
20000e0c:	e49db004 	pop	{fp}		; (ldr fp, [sp], #4)
20000e10:	e12fff1e 	bx	lr
20000e14:	200141f0 	.word	0x200141f0
20000e18:	20015630 	.word	0x20015630

20000e1c <memp_free>:
20000e1c:	e52db004 	push	{fp}		; (str fp, [sp, #-4]!)
20000e20:	e28db000 	add	fp, sp, #0
20000e24:	e24dd014 	sub	sp, sp, #20
20000e28:	e1a03000 	mov	r3, r0
20000e2c:	e50b1014 	str	r1, [fp, #-20]	; 0xffffffec
20000e30:	e54b300d 	strb	r3, [fp, #-13]
20000e34:	e51b3014 	ldr	r3, [fp, #-20]	; 0xffffffec
20000e38:	e3530000 	cmp	r3, #0
20000e3c:	0a00001f 	beq	20000ec0 <memp_free+0xa4>
20000e40:	e51b3014 	ldr	r3, [fp, #-20]	; 0xffffffec
20000e44:	e50b3008 	str	r3, [fp, #-8]
20000e48:	e55b200d 	ldrb	r2, [fp, #-13]
20000e4c:	e59f107c 	ldr	r1, [pc, #124]	; 20000ed0 <memp_free+0xb4>
20000e50:	e1a03002 	mov	r3, r2
20000e54:	e1a03103 	lsl	r3, r3, #2
20000e58:	e0833002 	add	r3, r3, r2
20000e5c:	e1a03083 	lsl	r3, r3, #1
20000e60:	e0813003 	add	r3, r1, r3
20000e64:	e28330b4 	add	r3, r3, #180	; 0xb4
20000e68:	e1d330b0 	ldrh	r3, [r3]
20000e6c:	e2433001 	sub	r3, r3, #1
20000e70:	e1a03803 	lsl	r3, r3, #16
20000e74:	e1a01823 	lsr	r1, r3, #16
20000e78:	e59f0050 	ldr	r0, [pc, #80]	; 20000ed0 <memp_free+0xb4>
20000e7c:	e1a03002 	mov	r3, r2
20000e80:	e1a03103 	lsl	r3, r3, #2
20000e84:	e0833002 	add	r3, r3, r2
20000e88:	e1a03083 	lsl	r3, r3, #1
20000e8c:	e0803003 	add	r3, r0, r3
20000e90:	e28330b4 	add	r3, r3, #180	; 0xb4
20000e94:	e1c310b0 	strh	r1, [r3]
20000e98:	e55b300d 	ldrb	r3, [fp, #-13]
20000e9c:	e59f2030 	ldr	r2, [pc, #48]	; 20000ed4 <memp_free+0xb8>
20000ea0:	e7922103 	ldr	r2, [r2, r3, lsl #2]
20000ea4:	e51b3008 	ldr	r3, [fp, #-8]
20000ea8:	e5832000 	str	r2, [r3]
20000eac:	e55b300d 	ldrb	r3, [fp, #-13]
20000eb0:	e59f101c 	ldr	r1, [pc, #28]	; 20000ed4 <memp_free+0xb8>
20000eb4:	e51b2008 	ldr	r2, [fp, #-8]
20000eb8:	e7812103 	str	r2, [r1, r3, lsl #2]
20000ebc:	ea000000 	b	20000ec4 <memp_free+0xa8>
20000ec0:	e1a00000 	nop			; (mov r0, r0)
20000ec4:	e24bd000 	sub	sp, fp, #0
20000ec8:	e49db004 	pop	{fp}		; (ldr fp, [sp], #4)
20000ecc:	e12fff1e 	bx	lr
20000ed0:	20015630 	.word	0x20015630
20000ed4:	200141f0 	.word	0x200141f0

20000ed8 <netif_add>:
20000ed8:	e92d4800 	push	{fp, lr}
20000edc:	e28db004 	add	fp, sp, #4
20000ee0:	e24dd010 	sub	sp, sp, #16
20000ee4:	e50b0008 	str	r0, [fp, #-8]
20000ee8:	e50b100c 	str	r1, [fp, #-12]
20000eec:	e50b2010 	str	r2, [fp, #-16]
20000ef0:	e50b3014 	str	r3, [fp, #-20]	; 0xffffffec
20000ef4:	e51b3008 	ldr	r3, [fp, #-8]
20000ef8:	e3a02000 	mov	r2, #0
20000efc:	e5832004 	str	r2, [r3, #4]
20000f00:	e51b3008 	ldr	r3, [fp, #-8]
20000f04:	e3a02000 	mov	r2, #0
20000f08:	e5832008 	str	r2, [r3, #8]
20000f0c:	e51b3008 	ldr	r3, [fp, #-8]
20000f10:	e3a02000 	mov	r2, #0
20000f14:	e583200c 	str	r2, [r3, #12]
20000f18:	e51b3008 	ldr	r3, [fp, #-8]
20000f1c:	e3a02000 	mov	r2, #0
20000f20:	e5c32029 	strb	r2, [r3, #41]	; 0x29
20000f24:	e51b3008 	ldr	r3, [fp, #-8]
20000f28:	e59b2004 	ldr	r2, [fp, #4]
20000f2c:	e583201c 	str	r2, [r3, #28]
20000f30:	e59f308c 	ldr	r3, [pc, #140]	; 20000fc4 <netif_add+0xec>
20000f34:	e5d33000 	ldrb	r3, [r3]
20000f38:	e2832001 	add	r2, r3, #1
20000f3c:	e20210ff 	and	r1, r2, #255	; 0xff
20000f40:	e59f207c 	ldr	r2, [pc, #124]	; 20000fc4 <netif_add+0xec>
20000f44:	e5c21000 	strb	r1, [r2]
20000f48:	e51b2008 	ldr	r2, [fp, #-8]
20000f4c:	e5c2302c 	strb	r3, [r2, #44]	; 0x2c
20000f50:	e51b3008 	ldr	r3, [fp, #-8]
20000f54:	e59b200c 	ldr	r2, [fp, #12]
20000f58:	e5832010 	str	r2, [r3, #16]
20000f5c:	e51b3014 	ldr	r3, [fp, #-20]	; 0xffffffec
20000f60:	e51b2010 	ldr	r2, [fp, #-16]
20000f64:	e51b100c 	ldr	r1, [fp, #-12]
20000f68:	e51b0008 	ldr	r0, [fp, #-8]
20000f6c:	eb000016 	bl	20000fcc <netif_set_addr>
20000f70:	e59b3008 	ldr	r3, [fp, #8]
20000f74:	e51b0008 	ldr	r0, [fp, #-8]
20000f78:	e1a0e00f 	mov	lr, pc
20000f7c:	e12fff13 	bx	r3
20000f80:	e1a03000 	mov	r3, r0
20000f84:	e3530000 	cmp	r3, #0
20000f88:	0a000001 	beq	20000f94 <netif_add+0xbc>
20000f8c:	e3a03000 	mov	r3, #0
20000f90:	ea000007 	b	20000fb4 <netif_add+0xdc>
20000f94:	e59f302c 	ldr	r3, [pc, #44]	; 20000fc8 <netif_add+0xf0>
20000f98:	e5932000 	ldr	r2, [r3]
20000f9c:	e51b3008 	ldr	r3, [fp, #-8]
20000fa0:	e5832000 	str	r2, [r3]
20000fa4:	e59f201c 	ldr	r2, [pc, #28]	; 20000fc8 <netif_add+0xf0>
20000fa8:	e51b3008 	ldr	r3, [fp, #-8]
20000fac:	e5823000 	str	r3, [r2]
20000fb0:	e51b3008 	ldr	r3, [fp, #-8]
20000fb4:	e1a00003 	mov	r0, r3
20000fb8:	e24bd004 	sub	sp, fp, #4
20000fbc:	e8bd4800 	pop	{fp, lr}
20000fc0:	e12fff1e 	bx	lr
20000fc4:	20014b8c 	.word	0x20014b8c
20000fc8:	20015628 	.word	0x20015628

20000fcc <netif_set_addr>:
20000fcc:	e92d4800 	push	{fp, lr}
20000fd0:	e28db004 	add	fp, sp, #4
20000fd4:	e24dd010 	sub	sp, sp, #16
20000fd8:	e50b0008 	str	r0, [fp, #-8]
20000fdc:	e50b100c 	str	r1, [fp, #-12]
20000fe0:	e50b2010 	str	r2, [fp, #-16]
20000fe4:	e50b3014 	str	r3, [fp, #-20]	; 0xffffffec
20000fe8:	e51b100c 	ldr	r1, [fp, #-12]
20000fec:	e51b0008 	ldr	r0, [fp, #-8]
20000ff0:	eb000073 	bl	200011c4 <netif_set_ipaddr>
20000ff4:	e51b1010 	ldr	r1, [fp, #-16]
20000ff8:	e51b0008 	ldr	r0, [fp, #-8]
20000ffc:	eb0000fd 	bl	200013f8 <netif_set_netmask>
20001000:	e51b1014 	ldr	r1, [fp, #-20]	; 0xffffffec
20001004:	e51b0008 	ldr	r0, [fp, #-8]
20001008:	eb0000de 	bl	20001388 <netif_set_gw>
2000100c:	e1a00000 	nop			; (mov r0, r0)
20001010:	e24bd004 	sub	sp, fp, #4
20001014:	e8bd4800 	pop	{fp, lr}
20001018:	e12fff1e 	bx	lr

2000101c <netif_remove>:
2000101c:	e92d4800 	push	{fp, lr}
20001020:	e28db004 	add	fp, sp, #4
20001024:	e24dd010 	sub	sp, sp, #16
20001028:	e50b0010 	str	r0, [fp, #-16]
2000102c:	e51b3010 	ldr	r3, [fp, #-16]
20001030:	e3530000 	cmp	r3, #0
20001034:	0a000028 	beq	200010dc <netif_remove+0xc0>
20001038:	e59f30b4 	ldr	r3, [pc, #180]	; 200010f4 <netif_remove+0xd8>
2000103c:	e5932000 	ldr	r2, [r3]
20001040:	e51b3010 	ldr	r3, [fp, #-16]
20001044:	e1520003 	cmp	r2, r3
20001048:	1a000004 	bne	20001060 <netif_remove+0x44>
2000104c:	e51b3010 	ldr	r3, [fp, #-16]
20001050:	e5933000 	ldr	r3, [r3]
20001054:	e59f2098 	ldr	r2, [pc, #152]	; 200010f4 <netif_remove+0xd8>
20001058:	e5823000 	str	r3, [r2]
2000105c:	ea000016 	b	200010bc <netif_remove+0xa0>
20001060:	e59f308c 	ldr	r3, [pc, #140]	; 200010f4 <netif_remove+0xd8>
20001064:	e5933000 	ldr	r3, [r3]
20001068:	e50b3008 	str	r3, [fp, #-8]
2000106c:	ea00000c 	b	200010a4 <netif_remove+0x88>
20001070:	e51b3008 	ldr	r3, [fp, #-8]
20001074:	e5932000 	ldr	r2, [r3]
20001078:	e51b3010 	ldr	r3, [fp, #-16]
2000107c:	e1520003 	cmp	r2, r3
20001080:	1a000004 	bne	20001098 <netif_remove+0x7c>
20001084:	e51b3010 	ldr	r3, [fp, #-16]
20001088:	e5932000 	ldr	r2, [r3]
2000108c:	e51b3008 	ldr	r3, [fp, #-8]
20001090:	e5832000 	str	r2, [r3]
20001094:	ea000005 	b	200010b0 <netif_remove+0x94>
20001098:	e51b3008 	ldr	r3, [fp, #-8]
2000109c:	e5933000 	ldr	r3, [r3]
200010a0:	e50b3008 	str	r3, [fp, #-8]
200010a4:	e51b3008 	ldr	r3, [fp, #-8]
200010a8:	e3530000 	cmp	r3, #0
200010ac:	1affffef 	bne	20001070 <netif_remove+0x54>
200010b0:	e51b3008 	ldr	r3, [fp, #-8]
200010b4:	e3530000 	cmp	r3, #0
200010b8:	0a000009 	beq	200010e4 <netif_remove+0xc8>
200010bc:	e59f3034 	ldr	r3, [pc, #52]	; 200010f8 <netif_remove+0xdc>
200010c0:	e5932000 	ldr	r2, [r3]
200010c4:	e51b3010 	ldr	r3, [fp, #-16]
200010c8:	e1520003 	cmp	r2, r3
200010cc:	1a000005 	bne	200010e8 <netif_remove+0xcc>
200010d0:	e3a00000 	mov	r0, #0
200010d4:	eb0000e3 	bl	20001468 <netif_set_default>
200010d8:	ea000002 	b	200010e8 <netif_remove+0xcc>
200010dc:	e1a00000 	nop			; (mov r0, r0)
200010e0:	ea000000 	b	200010e8 <netif_remove+0xcc>
200010e4:	e1a00000 	nop			; (mov r0, r0)
200010e8:	e24bd004 	sub	sp, fp, #4
200010ec:	e8bd4800 	pop	{fp, lr}
200010f0:	e12fff1e 	bx	lr
200010f4:	20015628 	.word	0x20015628
200010f8:	2001562c 	.word	0x2001562c

200010fc <netif_find>:
200010fc:	e52db004 	push	{fp}		; (str fp, [sp, #-4]!)
20001100:	e28db000 	add	fp, sp, #0
20001104:	e24dd014 	sub	sp, sp, #20
20001108:	e50b0010 	str	r0, [fp, #-16]
2000110c:	e51b3010 	ldr	r3, [fp, #-16]
20001110:	e3530000 	cmp	r3, #0
20001114:	1a000001 	bne	20001120 <netif_find+0x24>
20001118:	e3a03000 	mov	r3, #0
2000111c:	ea000023 	b	200011b0 <netif_find+0xb4>
20001120:	e51b3010 	ldr	r3, [fp, #-16]
20001124:	e2833002 	add	r3, r3, #2
20001128:	e5d33000 	ldrb	r3, [r3]
2000112c:	e2433030 	sub	r3, r3, #48	; 0x30
20001130:	e54b3009 	strb	r3, [fp, #-9]
20001134:	e59f3084 	ldr	r3, [pc, #132]	; 200011c0 <netif_find+0xc4>
20001138:	e5933000 	ldr	r3, [r3]
2000113c:	e50b3008 	str	r3, [fp, #-8]
20001140:	ea000016 	b	200011a0 <netif_find+0xa4>
20001144:	e51b3008 	ldr	r3, [fp, #-8]
20001148:	e5d3302c 	ldrb	r3, [r3, #44]	; 0x2c
2000114c:	e55b2009 	ldrb	r2, [fp, #-9]
20001150:	e1520003 	cmp	r2, r3
20001154:	1a00000e 	bne	20001194 <netif_find+0x98>
20001158:	e51b3010 	ldr	r3, [fp, #-16]
2000115c:	e5d32000 	ldrb	r2, [r3]
20001160:	e51b3008 	ldr	r3, [fp, #-8]
20001164:	e5d3302a 	ldrb	r3, [r3, #42]	; 0x2a
20001168:	e1520003 	cmp	r2, r3
2000116c:	1a000008 	bne	20001194 <netif_find+0x98>
20001170:	e51b3010 	ldr	r3, [fp, #-16]
20001174:	e2833001 	add	r3, r3, #1
20001178:	e5d32000 	ldrb	r2, [r3]
2000117c:	e51b3008 	ldr	r3, [fp, #-8]
20001180:	e5d3302b 	ldrb	r3, [r3, #43]	; 0x2b
20001184:	e1520003 	cmp	r2, r3
20001188:	1a000001 	bne	20001194 <netif_find+0x98>
2000118c:	e51b3008 	ldr	r3, [fp, #-8]
20001190:	ea000006 	b	200011b0 <netif_find+0xb4>
20001194:	e51b3008 	ldr	r3, [fp, #-8]
20001198:	e5933000 	ldr	r3, [r3]
2000119c:	e50b3008 	str	r3, [fp, #-8]
200011a0:	e51b3008 	ldr	r3, [fp, #-8]
200011a4:	e3530000 	cmp	r3, #0
200011a8:	1affffe5 	bne	20001144 <netif_find+0x48>
200011ac:	e3a03000 	mov	r3, #0
200011b0:	e1a00003 	mov	r0, r3
200011b4:	e24bd000 	sub	sp, fp, #0
200011b8:	e49db004 	pop	{fp}		; (ldr fp, [sp], #4)
200011bc:	e12fff1e 	bx	lr
200011c0:	20015628 	.word	0x20015628

200011c4 <netif_set_ipaddr>:
200011c4:	e92d4800 	push	{fp, lr}
200011c8:	e28db004 	add	fp, sp, #4
200011cc:	e24dd018 	sub	sp, sp, #24
200011d0:	e50b0018 	str	r0, [fp, #-24]	; 0xffffffe8
200011d4:	e50b101c 	str	r1, [fp, #-28]	; 0xffffffe4
200011d8:	e51b301c 	ldr	r3, [fp, #-28]	; 0xffffffe4
200011dc:	e5d32000 	ldrb	r2, [r3]
200011e0:	e5d31001 	ldrb	r1, [r3, #1]
200011e4:	e1a01401 	lsl	r1, r1, #8
200011e8:	e1812002 	orr	r2, r1, r2
200011ec:	e5d31002 	ldrb	r1, [r3, #2]
200011f0:	e1a01801 	lsl	r1, r1, #16
200011f4:	e1812002 	orr	r2, r1, r2
200011f8:	e5d33003 	ldrb	r3, [r3, #3]
200011fc:	e1a03c03 	lsl	r3, r3, #24
20001200:	e1833002 	orr	r3, r3, r2
20001204:	e1a02003 	mov	r2, r3
20001208:	e51b3018 	ldr	r3, [fp, #-24]	; 0xffffffe8
2000120c:	e5933004 	ldr	r3, [r3, #4]
20001210:	e1520003 	cmp	r2, r3
20001214:	0a000042 	beq	20001324 <netif_set_ipaddr+0x160>
20001218:	e59f3160 	ldr	r3, [pc, #352]	; 20001380 <netif_set_ipaddr+0x1bc>
2000121c:	e5933000 	ldr	r3, [r3]
20001220:	e50b3008 	str	r3, [fp, #-8]
20001224:	ea000011 	b	20001270 <netif_set_ipaddr+0xac>
20001228:	e51b3008 	ldr	r3, [fp, #-8]
2000122c:	e5932000 	ldr	r2, [r3]
20001230:	e51b3018 	ldr	r3, [fp, #-24]	; 0xffffffe8
20001234:	e5933004 	ldr	r3, [r3, #4]
20001238:	e1520003 	cmp	r2, r3
2000123c:	1a000008 	bne	20001264 <netif_set_ipaddr+0xa0>
20001240:	e51b3008 	ldr	r3, [fp, #-8]
20001244:	e593300c 	ldr	r3, [r3, #12]
20001248:	e50b3010 	str	r3, [fp, #-16]
2000124c:	e3a01001 	mov	r1, #1
20001250:	e51b0008 	ldr	r0, [fp, #-8]
20001254:	eb0006bc 	bl	20002d4c <tcp_abandon>
20001258:	e51b3010 	ldr	r3, [fp, #-16]
2000125c:	e50b3008 	str	r3, [fp, #-8]
20001260:	ea000002 	b	20001270 <netif_set_ipaddr+0xac>
20001264:	e51b3008 	ldr	r3, [fp, #-8]
20001268:	e593300c 	ldr	r3, [r3, #12]
2000126c:	e50b3008 	str	r3, [fp, #-8]
20001270:	e51b3008 	ldr	r3, [fp, #-8]
20001274:	e3530000 	cmp	r3, #0
20001278:	1affffea 	bne	20001228 <netif_set_ipaddr+0x64>
2000127c:	e59f3100 	ldr	r3, [pc, #256]	; 20001384 <netif_set_ipaddr+0x1c0>
20001280:	e5933000 	ldr	r3, [r3]
20001284:	e50b300c 	str	r3, [fp, #-12]
20001288:	ea000022 	b	20001318 <netif_set_ipaddr+0x154>
2000128c:	e51b300c 	ldr	r3, [fp, #-12]
20001290:	e3530000 	cmp	r3, #0
20001294:	0a00001c 	beq	2000130c <netif_set_ipaddr+0x148>
20001298:	e51b300c 	ldr	r3, [fp, #-12]
2000129c:	e5933000 	ldr	r3, [r3]
200012a0:	e3530000 	cmp	r3, #0
200012a4:	0a000018 	beq	2000130c <netif_set_ipaddr+0x148>
200012a8:	e51b300c 	ldr	r3, [fp, #-12]
200012ac:	e5932000 	ldr	r2, [r3]
200012b0:	e51b3018 	ldr	r3, [fp, #-24]	; 0xffffffe8
200012b4:	e5933004 	ldr	r3, [r3, #4]
200012b8:	e1520003 	cmp	r2, r3
200012bc:	1a000012 	bne	2000130c <netif_set_ipaddr+0x148>
200012c0:	e51b301c 	ldr	r3, [fp, #-28]	; 0xffffffe4
200012c4:	e3530000 	cmp	r3, #0
200012c8:	0a00000c 	beq	20001300 <netif_set_ipaddr+0x13c>
200012cc:	e51b301c 	ldr	r3, [fp, #-28]	; 0xffffffe4
200012d0:	e5d32000 	ldrb	r2, [r3]
200012d4:	e5d31001 	ldrb	r1, [r3, #1]
200012d8:	e1a01401 	lsl	r1, r1, #8
200012dc:	e1812002 	orr	r2, r1, r2
200012e0:	e5d31002 	ldrb	r1, [r3, #2]
200012e4:	e1a01801 	lsl	r1, r1, #16
200012e8:	e1812002 	orr	r2, r1, r2
200012ec:	e5d33003 	ldrb	r3, [r3, #3]
200012f0:	e1a03c03 	lsl	r3, r3, #24
200012f4:	e1833002 	orr	r3, r3, r2
200012f8:	e1a02003 	mov	r2, r3
200012fc:	ea000000 	b	20001304 <netif_set_ipaddr+0x140>
20001300:	e3a02000 	mov	r2, #0
20001304:	e51b300c 	ldr	r3, [fp, #-12]
20001308:	e5832000 	str	r2, [r3]
2000130c:	e51b300c 	ldr	r3, [fp, #-12]
20001310:	e593300c 	ldr	r3, [r3, #12]
20001314:	e50b300c 	str	r3, [fp, #-12]
20001318:	e51b300c 	ldr	r3, [fp, #-12]
2000131c:	e3530000 	cmp	r3, #0
20001320:	1affffd9 	bne	2000128c <netif_set_ipaddr+0xc8>
20001324:	e51b301c 	ldr	r3, [fp, #-28]	; 0xffffffe4
20001328:	e3530000 	cmp	r3, #0
2000132c:	0a00000c 	beq	20001364 <netif_set_ipaddr+0x1a0>
20001330:	e51b301c 	ldr	r3, [fp, #-28]	; 0xffffffe4
20001334:	e5d32000 	ldrb	r2, [r3]
20001338:	e5d31001 	ldrb	r1, [r3, #1]
2000133c:	e1a01401 	lsl	r1, r1, #8
20001340:	e1812002 	orr	r2, r1, r2
20001344:	e5d31002 	ldrb	r1, [r3, #2]
20001348:	e1a01801 	lsl	r1, r1, #16
2000134c:	e1812002 	orr	r2, r1, r2
20001350:	e5d33003 	ldrb	r3, [r3, #3]
20001354:	e1a03c03 	lsl	r3, r3, #24
20001358:	e1833002 	orr	r3, r3, r2
2000135c:	e1a02003 	mov	r2, r3
20001360:	ea000000 	b	20001368 <netif_set_ipaddr+0x1a4>
20001364:	e3a02000 	mov	r2, #0
20001368:	e51b3018 	ldr	r3, [fp, #-24]	; 0xffffffe8
2000136c:	e5832004 	str	r2, [r3, #4]
20001370:	e1a00000 	nop			; (mov r0, r0)
20001374:	e24bd004 	sub	sp, fp, #4
20001378:	e8bd4800 	pop	{fp, lr}
2000137c:	e12fff1e 	bx	lr
20001380:	20015748 	.word	0x20015748
20001384:	20015750 	.word	0x20015750

20001388 <netif_set_gw>:
20001388:	e52db004 	push	{fp}		; (str fp, [sp, #-4]!)
2000138c:	e28db000 	add	fp, sp, #0
20001390:	e24dd00c 	sub	sp, sp, #12
20001394:	e50b0008 	str	r0, [fp, #-8]
20001398:	e50b100c 	str	r1, [fp, #-12]
2000139c:	e51b300c 	ldr	r3, [fp, #-12]
200013a0:	e3530000 	cmp	r3, #0
200013a4:	0a00000c 	beq	200013dc <netif_set_gw+0x54>
200013a8:	e51b300c 	ldr	r3, [fp, #-12]
200013ac:	e5d32000 	ldrb	r2, [r3]
200013b0:	e5d31001 	ldrb	r1, [r3, #1]
200013b4:	e1a01401 	lsl	r1, r1, #8
200013b8:	e1812002 	orr	r2, r1, r2
200013bc:	e5d31002 	ldrb	r1, [r3, #2]
200013c0:	e1a01801 	lsl	r1, r1, #16
200013c4:	e1812002 	orr	r2, r1, r2
200013c8:	e5d33003 	ldrb	r3, [r3, #3]
200013cc:	e1a03c03 	lsl	r3, r3, #24
200013d0:	e1833002 	orr	r3, r3, r2
200013d4:	e1a02003 	mov	r2, r3
200013d8:	ea000000 	b	200013e0 <netif_set_gw+0x58>
200013dc:	e3a02000 	mov	r2, #0
200013e0:	e51b3008 	ldr	r3, [fp, #-8]
200013e4:	e583200c 	str	r2, [r3, #12]
200013e8:	e1a00000 	nop			; (mov r0, r0)
200013ec:	e24bd000 	sub	sp, fp, #0
200013f0:	e49db004 	pop	{fp}		; (ldr fp, [sp], #4)
200013f4:	e12fff1e 	bx	lr

200013f8 <netif_set_netmask>:
200013f8:	e52db004 	push	{fp}		; (str fp, [sp, #-4]!)
200013fc:	e28db000 	add	fp, sp, #0
20001400:	e24dd00c 	sub	sp, sp, #12
20001404:	e50b0008 	str	r0, [fp, #-8]
20001408:	e50b100c 	str	r1, [fp, #-12]
2000140c:	e51b300c 	ldr	r3, [fp, #-12]
20001410:	e3530000 	cmp	r3, #0
20001414:	0a00000c 	beq	2000144c <netif_set_netmask+0x54>
20001418:	e51b300c 	ldr	r3, [fp, #-12]
2000141c:	e5d32000 	ldrb	r2, [r3]
20001420:	e5d31001 	ldrb	r1, [r3, #1]
20001424:	e1a01401 	lsl	r1, r1, #8
20001428:	e1812002 	orr	r2, r1, r2
2000142c:	e5d31002 	ldrb	r1, [r3, #2]
20001430:	e1a01801 	lsl	r1, r1, #16
20001434:	e1812002 	orr	r2, r1, r2
20001438:	e5d33003 	ldrb	r3, [r3, #3]
2000143c:	e1a03c03 	lsl	r3, r3, #24
20001440:	e1833002 	orr	r3, r3, r2
20001444:	e1a02003 	mov	r2, r3
20001448:	ea000000 	b	20001450 <netif_set_netmask+0x58>
2000144c:	e3a02000 	mov	r2, #0
20001450:	e51b3008 	ldr	r3, [fp, #-8]
20001454:	e5832008 	str	r2, [r3, #8]
20001458:	e1a00000 	nop			; (mov r0, r0)
2000145c:	e24bd000 	sub	sp, fp, #0
20001460:	e49db004 	pop	{fp}		; (ldr fp, [sp], #4)
20001464:	e12fff1e 	bx	lr

20001468 <netif_set_default>:
20001468:	e52db004 	push	{fp}		; (str fp, [sp, #-4]!)
2000146c:	e28db000 	add	fp, sp, #0
20001470:	e24dd00c 	sub	sp, sp, #12
20001474:	e50b0008 	str	r0, [fp, #-8]
20001478:	e59f2014 	ldr	r2, [pc, #20]	; 20001494 <netif_set_default+0x2c>
2000147c:	e51b3008 	ldr	r3, [fp, #-8]
20001480:	e5823000 	str	r3, [r2]
20001484:	e1a00000 	nop			; (mov r0, r0)
20001488:	e24bd000 	sub	sp, fp, #0
2000148c:	e49db004 	pop	{fp}		; (ldr fp, [sp], #4)
20001490:	e12fff1e 	bx	lr
20001494:	2001562c 	.word	0x2001562c

20001498 <netif_set_up>:
20001498:	e92d4800 	push	{fp, lr}
2000149c:	e28db004 	add	fp, sp, #4
200014a0:	e24dd008 	sub	sp, sp, #8
200014a4:	e50b0008 	str	r0, [fp, #-8]
200014a8:	e51b3008 	ldr	r3, [fp, #-8]
200014ac:	e5d33029 	ldrb	r3, [r3, #41]	; 0x29
200014b0:	e2033001 	and	r3, r3, #1
200014b4:	e3530000 	cmp	r3, #0
200014b8:	1a00000f 	bne	200014fc <netif_set_up+0x64>
200014bc:	e51b3008 	ldr	r3, [fp, #-8]
200014c0:	e5d33029 	ldrb	r3, [r3, #41]	; 0x29
200014c4:	e3833001 	orr	r3, r3, #1
200014c8:	e20320ff 	and	r2, r3, #255	; 0xff
200014cc:	e51b3008 	ldr	r3, [fp, #-8]
200014d0:	e5c32029 	strb	r2, [r3, #41]	; 0x29
200014d4:	e51b3008 	ldr	r3, [fp, #-8]
200014d8:	e5d33029 	ldrb	r3, [r3, #41]	; 0x29
200014dc:	e2033020 	and	r3, r3, #32
200014e0:	e3530000 	cmp	r3, #0
200014e4:	0a000004 	beq	200014fc <netif_set_up+0x64>
200014e8:	e51b3008 	ldr	r3, [fp, #-8]
200014ec:	e2833004 	add	r3, r3, #4
200014f0:	e1a01003 	mov	r1, r3
200014f4:	e51b0008 	ldr	r0, [fp, #-8]
200014f8:	eb003c10 	bl	20010540 <etharp_request>
200014fc:	e1a00000 	nop			; (mov r0, r0)
20001500:	e24bd004 	sub	sp, fp, #4
20001504:	e8bd4800 	pop	{fp, lr}
20001508:	e12fff1e 	bx	lr

2000150c <netif_set_down>:
2000150c:	e52db004 	push	{fp}		; (str fp, [sp, #-4]!)
20001510:	e28db000 	add	fp, sp, #0
20001514:	e24dd00c 	sub	sp, sp, #12
20001518:	e50b0008 	str	r0, [fp, #-8]
2000151c:	e51b3008 	ldr	r3, [fp, #-8]
20001520:	e5d33029 	ldrb	r3, [r3, #41]	; 0x29
20001524:	e2033001 	and	r3, r3, #1
20001528:	e3530000 	cmp	r3, #0
2000152c:	0a000005 	beq	20001548 <netif_set_down+0x3c>
20001530:	e51b3008 	ldr	r3, [fp, #-8]
20001534:	e5d33029 	ldrb	r3, [r3, #41]	; 0x29
20001538:	e3c33001 	bic	r3, r3, #1
2000153c:	e20320ff 	and	r2, r3, #255	; 0xff
20001540:	e51b3008 	ldr	r3, [fp, #-8]
20001544:	e5c32029 	strb	r2, [r3, #41]	; 0x29
20001548:	e1a00000 	nop			; (mov r0, r0)
2000154c:	e24bd000 	sub	sp, fp, #0
20001550:	e49db004 	pop	{fp}		; (ldr fp, [sp], #4)
20001554:	e12fff1e 	bx	lr

20001558 <netif_is_up>:
20001558:	e52db004 	push	{fp}		; (str fp, [sp, #-4]!)
2000155c:	e28db000 	add	fp, sp, #0
20001560:	e24dd00c 	sub	sp, sp, #12
20001564:	e50b0008 	str	r0, [fp, #-8]
20001568:	e51b3008 	ldr	r3, [fp, #-8]
2000156c:	e5d33029 	ldrb	r3, [r3, #41]	; 0x29
20001570:	e2033001 	and	r3, r3, #1
20001574:	e3530000 	cmp	r3, #0
20001578:	13a03001 	movne	r3, #1
2000157c:	03a03000 	moveq	r3, #0
20001580:	e20330ff 	and	r3, r3, #255	; 0xff
20001584:	e1a00003 	mov	r0, r3
20001588:	e24bd000 	sub	sp, fp, #0
2000158c:	e49db004 	pop	{fp}		; (ldr fp, [sp], #4)
20001590:	e12fff1e 	bx	lr

20001594 <pbuf_alloc>:
20001594:	e92d4800 	push	{fp, lr}
20001598:	e28db004 	add	fp, sp, #4
2000159c:	e24dd020 	sub	sp, sp, #32
200015a0:	e1a03001 	mov	r3, r1
200015a4:	e1a01002 	mov	r1, r2
200015a8:	e1a02000 	mov	r2, r0
200015ac:	e54b201d 	strb	r2, [fp, #-29]	; 0xffffffe3
200015b0:	e14b32b0 	strh	r3, [fp, #-32]	; 0xffffffe0
200015b4:	e1a03001 	mov	r3, r1
200015b8:	e54b301e 	strb	r3, [fp, #-30]	; 0xffffffe2
200015bc:	e3a03000 	mov	r3, #0
200015c0:	e14b30be 	strh	r3, [fp, #-14]
200015c4:	e55b301d 	ldrb	r3, [fp, #-29]	; 0xffffffe3
200015c8:	e3530003 	cmp	r3, #3
200015cc:	979ff103 	ldrls	pc, [pc, r3, lsl #2]
200015d0:	ea00000d 	b	2000160c <pbuf_alloc+0x78>
200015d4:	200015e4 	.word	0x200015e4
200015d8:	200015f0 	.word	0x200015f0
200015dc:	200015fc 	.word	0x200015fc
200015e0:	20001614 	.word	0x20001614
200015e4:	e15b30be 	ldrh	r3, [fp, #-14]
200015e8:	e2833014 	add	r3, r3, #20
200015ec:	e14b30be 	strh	r3, [fp, #-14]
200015f0:	e15b30be 	ldrh	r3, [fp, #-14]
200015f4:	e2833014 	add	r3, r3, #20
200015f8:	e14b30be 	strh	r3, [fp, #-14]
200015fc:	e15b30be 	ldrh	r3, [fp, #-14]
20001600:	e2833010 	add	r3, r3, #16
20001604:	e14b30be 	strh	r3, [fp, #-14]
20001608:	ea000002 	b	20001618 <pbuf_alloc+0x84>
2000160c:	e3a03000 	mov	r3, #0
20001610:	ea0000c3 	b	20001924 <pbuf_alloc+0x390>
20001614:	e1a00000 	nop			; (mov r0, r0)
20001618:	e55b301e 	ldrb	r3, [fp, #-30]	; 0xffffffe2
2000161c:	e3530003 	cmp	r3, #3
20001620:	979ff103 	ldrls	pc, [pc, r3, lsl #2]
20001624:	ea0000b5 	b	20001900 <pbuf_alloc+0x36c>
20001628:	200017dc 	.word	0x200017dc
2000162c:	2000189c 	.word	0x2000189c
20001630:	2000189c 	.word	0x2000189c
20001634:	20001638 	.word	0x20001638
20001638:	e3a00009 	mov	r0, #9
2000163c:	ebfffd8a 	bl	20000c6c <memp_malloc>
20001640:	e50b0008 	str	r0, [fp, #-8]
20001644:	e51b3008 	ldr	r3, [fp, #-8]
20001648:	e3530000 	cmp	r3, #0
2000164c:	1a000001 	bne	20001658 <pbuf_alloc+0xc4>
20001650:	e3a03000 	mov	r3, #0
20001654:	ea0000b2 	b	20001924 <pbuf_alloc+0x390>
20001658:	e51b3008 	ldr	r3, [fp, #-8]
2000165c:	e55b201e 	ldrb	r2, [fp, #-30]	; 0xffffffe2
20001660:	e5c3200c 	strb	r2, [r3, #12]
20001664:	e51b3008 	ldr	r3, [fp, #-8]
20001668:	e3a02000 	mov	r2, #0
2000166c:	e5832000 	str	r2, [r3]
20001670:	e15b30be 	ldrh	r3, [fp, #-14]
20001674:	e2833010 	add	r3, r3, #16
20001678:	e51b2008 	ldr	r2, [fp, #-8]
2000167c:	e0823003 	add	r3, r2, r3
20001680:	e2833003 	add	r3, r3, #3
20001684:	e3c33003 	bic	r3, r3, #3
20001688:	e1a02003 	mov	r2, r3
2000168c:	e51b3008 	ldr	r3, [fp, #-8]
20001690:	e5832004 	str	r2, [r3, #4]
20001694:	e51b3008 	ldr	r3, [fp, #-8]
20001698:	e15b22b0 	ldrh	r2, [fp, #-32]	; 0xffffffe0
2000169c:	e1c320b8 	strh	r2, [r3, #8]
200016a0:	e15b30be 	ldrh	r3, [fp, #-14]
200016a4:	e2833003 	add	r3, r3, #3
200016a8:	e3c33003 	bic	r3, r3, #3
200016ac:	e2632080 	rsb	r2, r3, #128	; 0x80
200016b0:	e15b32b0 	ldrh	r3, [fp, #-32]	; 0xffffffe0
200016b4:	e1520003 	cmp	r2, r3
200016b8:	b1a03002 	movlt	r3, r2
200016bc:	a1a03003 	movge	r3, r3
200016c0:	e1a03803 	lsl	r3, r3, #16
200016c4:	e1a02823 	lsr	r2, r3, #16
200016c8:	e51b3008 	ldr	r3, [fp, #-8]
200016cc:	e1c320ba 	strh	r2, [r3, #10]
200016d0:	e51b3008 	ldr	r3, [fp, #-8]
200016d4:	e3a02001 	mov	r2, #1
200016d8:	e1c320be 	strh	r2, [r3, #14]
200016dc:	e51b3008 	ldr	r3, [fp, #-8]
200016e0:	e50b300c 	str	r3, [fp, #-12]
200016e4:	e15b32b0 	ldrh	r3, [fp, #-32]	; 0xffffffe0
200016e8:	e51b2008 	ldr	r2, [fp, #-8]
200016ec:	e1d220ba 	ldrh	r2, [r2, #10]
200016f0:	e0623003 	rsb	r3, r2, r3
200016f4:	e50b3014 	str	r3, [fp, #-20]	; 0xffffffec
200016f8:	ea000033 	b	200017cc <pbuf_alloc+0x238>
200016fc:	e3a00009 	mov	r0, #9
20001700:	ebfffd59 	bl	20000c6c <memp_malloc>
20001704:	e50b0018 	str	r0, [fp, #-24]	; 0xffffffe8
20001708:	e51b3018 	ldr	r3, [fp, #-24]	; 0xffffffe8
2000170c:	e3530000 	cmp	r3, #0
20001710:	1a000003 	bne	20001724 <pbuf_alloc+0x190>
20001714:	e51b0008 	ldr	r0, [fp, #-8]
20001718:	eb000155 	bl	20001c74 <pbuf_free>
2000171c:	e3a03000 	mov	r3, #0
20001720:	ea00007f 	b	20001924 <pbuf_alloc+0x390>
20001724:	e51b3018 	ldr	r3, [fp, #-24]	; 0xffffffe8
20001728:	e55b201e 	ldrb	r2, [fp, #-30]	; 0xffffffe2
2000172c:	e5c3200c 	strb	r2, [r3, #12]
20001730:	e51b3018 	ldr	r3, [fp, #-24]	; 0xffffffe8
20001734:	e3a02000 	mov	r2, #0
20001738:	e5c3200d 	strb	r2, [r3, #13]
2000173c:	e51b3018 	ldr	r3, [fp, #-24]	; 0xffffffe8
20001740:	e3a02000 	mov	r2, #0
20001744:	e5832000 	str	r2, [r3]
20001748:	e51b300c 	ldr	r3, [fp, #-12]
2000174c:	e51b2018 	ldr	r2, [fp, #-24]	; 0xffffffe8
20001750:	e5832000 	str	r2, [r3]
20001754:	e51b3014 	ldr	r3, [fp, #-20]	; 0xffffffec
20001758:	e1a03803 	lsl	r3, r3, #16
2000175c:	e1a02823 	lsr	r2, r3, #16
20001760:	e51b3018 	ldr	r3, [fp, #-24]	; 0xffffffe8
20001764:	e1c320b8 	strh	r2, [r3, #8]
20001768:	e51b3014 	ldr	r3, [fp, #-20]	; 0xffffffec
2000176c:	e1a03803 	lsl	r3, r3, #16
20001770:	e1a03823 	lsr	r3, r3, #16
20001774:	e3530080 	cmp	r3, #128	; 0x80
20001778:	b1a03003 	movlt	r3, r3
2000177c:	a3a03080 	movge	r3, #128	; 0x80
20001780:	e1a03803 	lsl	r3, r3, #16
20001784:	e1a02823 	lsr	r2, r3, #16
20001788:	e51b3018 	ldr	r3, [fp, #-24]	; 0xffffffe8
2000178c:	e1c320ba 	strh	r2, [r3, #10]
20001790:	e51b3018 	ldr	r3, [fp, #-24]	; 0xffffffe8
20001794:	e2832010 	add	r2, r3, #16
20001798:	e51b3018 	ldr	r3, [fp, #-24]	; 0xffffffe8
2000179c:	e5832004 	str	r2, [r3, #4]
200017a0:	e51b3018 	ldr	r3, [fp, #-24]	; 0xffffffe8
200017a4:	e3a02001 	mov	r2, #1
200017a8:	e1c320be 	strh	r2, [r3, #14]
200017ac:	e51b3018 	ldr	r3, [fp, #-24]	; 0xffffffe8
200017b0:	e1d330ba 	ldrh	r3, [r3, #10]
200017b4:	e1a02003 	mov	r2, r3
200017b8:	e51b3014 	ldr	r3, [fp, #-20]	; 0xffffffec
200017bc:	e0623003 	rsb	r3, r2, r3
200017c0:	e50b3014 	str	r3, [fp, #-20]	; 0xffffffec
200017c4:	e51b3018 	ldr	r3, [fp, #-24]	; 0xffffffe8
200017c8:	e50b300c 	str	r3, [fp, #-12]
200017cc:	e51b3014 	ldr	r3, [fp, #-20]	; 0xffffffec
200017d0:	e3530000 	cmp	r3, #0
200017d4:	caffffc8 	bgt	200016fc <pbuf_alloc+0x168>
200017d8:	ea00004a 	b	20001908 <pbuf_alloc+0x374>
200017dc:	e15b30be 	ldrh	r3, [fp, #-14]
200017e0:	e2833013 	add	r3, r3, #19
200017e4:	e1a03803 	lsl	r3, r3, #16
200017e8:	e1a03823 	lsr	r3, r3, #16
200017ec:	e3c33003 	bic	r3, r3, #3
200017f0:	e1a03803 	lsl	r3, r3, #16
200017f4:	e1a02823 	lsr	r2, r3, #16
200017f8:	e15b32b0 	ldrh	r3, [fp, #-32]	; 0xffffffe0
200017fc:	e2833003 	add	r3, r3, #3
20001800:	e1a03803 	lsl	r3, r3, #16
20001804:	e1a03823 	lsr	r3, r3, #16
20001808:	e3c33003 	bic	r3, r3, #3
2000180c:	e1a03803 	lsl	r3, r3, #16
20001810:	e1a03823 	lsr	r3, r3, #16
20001814:	e0823003 	add	r3, r2, r3
20001818:	e1a03803 	lsl	r3, r3, #16
2000181c:	e1a03823 	lsr	r3, r3, #16
20001820:	e1a00003 	mov	r0, r3
20001824:	ebfffba9 	bl	200006d0 <mem_malloc>
20001828:	e50b0008 	str	r0, [fp, #-8]
2000182c:	e51b3008 	ldr	r3, [fp, #-8]
20001830:	e3530000 	cmp	r3, #0
20001834:	1a000001 	bne	20001840 <pbuf_alloc+0x2ac>
20001838:	e3a03000 	mov	r3, #0
2000183c:	ea000038 	b	20001924 <pbuf_alloc+0x390>
20001840:	e15b30be 	ldrh	r3, [fp, #-14]
20001844:	e2833010 	add	r3, r3, #16
20001848:	e51b2008 	ldr	r2, [fp, #-8]
2000184c:	e0823003 	add	r3, r2, r3
20001850:	e2833003 	add	r3, r3, #3
20001854:	e3c33003 	bic	r3, r3, #3
20001858:	e1a02003 	mov	r2, r3
2000185c:	e51b3008 	ldr	r3, [fp, #-8]
20001860:	e5832004 	str	r2, [r3, #4]
20001864:	e51b3008 	ldr	r3, [fp, #-8]
20001868:	e15b22b0 	ldrh	r2, [fp, #-32]	; 0xffffffe0
2000186c:	e1c320b8 	strh	r2, [r3, #8]
20001870:	e51b3008 	ldr	r3, [fp, #-8]
20001874:	e1d320b8 	ldrh	r2, [r3, #8]
20001878:	e51b3008 	ldr	r3, [fp, #-8]
2000187c:	e1c320ba 	strh	r2, [r3, #10]
20001880:	e51b3008 	ldr	r3, [fp, #-8]
20001884:	e3a02000 	mov	r2, #0
20001888:	e5832000 	str	r2, [r3]
2000188c:	e51b3008 	ldr	r3, [fp, #-8]
20001890:	e55b201e 	ldrb	r2, [fp, #-30]	; 0xffffffe2
20001894:	e5c3200c 	strb	r2, [r3, #12]
20001898:	ea00001a 	b	20001908 <pbuf_alloc+0x374>
2000189c:	e3a00008 	mov	r0, #8
200018a0:	ebfffcf1 	bl	20000c6c <memp_malloc>
200018a4:	e50b0008 	str	r0, [fp, #-8]
200018a8:	e51b3008 	ldr	r3, [fp, #-8]
200018ac:	e3530000 	cmp	r3, #0
200018b0:	1a000001 	bne	200018bc <pbuf_alloc+0x328>
200018b4:	e3a03000 	mov	r3, #0
200018b8:	ea000019 	b	20001924 <pbuf_alloc+0x390>
200018bc:	e51b3008 	ldr	r3, [fp, #-8]
200018c0:	e3a02000 	mov	r2, #0
200018c4:	e5832004 	str	r2, [r3, #4]
200018c8:	e51b3008 	ldr	r3, [fp, #-8]
200018cc:	e15b22b0 	ldrh	r2, [fp, #-32]	; 0xffffffe0
200018d0:	e1c320b8 	strh	r2, [r3, #8]
200018d4:	e51b3008 	ldr	r3, [fp, #-8]
200018d8:	e1d320b8 	ldrh	r2, [r3, #8]
200018dc:	e51b3008 	ldr	r3, [fp, #-8]
200018e0:	e1c320ba 	strh	r2, [r3, #10]
200018e4:	e51b3008 	ldr	r3, [fp, #-8]
200018e8:	e3a02000 	mov	r2, #0
200018ec:	e5832000 	str	r2, [r3]
200018f0:	e51b3008 	ldr	r3, [fp, #-8]
200018f4:	e55b201e 	ldrb	r2, [fp, #-30]	; 0xffffffe2
200018f8:	e5c3200c 	strb	r2, [r3, #12]
200018fc:	ea000001 	b	20001908 <pbuf_alloc+0x374>
20001900:	e3a03000 	mov	r3, #0
20001904:	ea000006 	b	20001924 <pbuf_alloc+0x390>
20001908:	e51b3008 	ldr	r3, [fp, #-8]
2000190c:	e3a02001 	mov	r2, #1
20001910:	e1c320be 	strh	r2, [r3, #14]
20001914:	e51b3008 	ldr	r3, [fp, #-8]
20001918:	e3a02000 	mov	r2, #0
2000191c:	e5c3200d 	strb	r2, [r3, #13]
20001920:	e51b3008 	ldr	r3, [fp, #-8]
20001924:	e1a00003 	mov	r0, r3
20001928:	e24bd004 	sub	sp, fp, #4
2000192c:	e8bd4800 	pop	{fp, lr}
20001930:	e12fff1e 	bx	lr

20001934 <pbuf_realloc>:
20001934:	e92d4800 	push	{fp, lr}
20001938:	e28db004 	add	fp, sp, #4
2000193c:	e24dd018 	sub	sp, sp, #24
20001940:	e50b0018 	str	r0, [fp, #-24]	; 0xffffffe8
20001944:	e1a03001 	mov	r3, r1
20001948:	e14b31ba 	strh	r3, [fp, #-26]	; 0xffffffe6
2000194c:	e51b3018 	ldr	r3, [fp, #-24]	; 0xffffffe8
20001950:	e5d3300c 	ldrb	r3, [r3, #12]
20001954:	e3530003 	cmp	r3, #3
20001958:	0a000006 	beq	20001978 <pbuf_realloc+0x44>
2000195c:	e51b3018 	ldr	r3, [fp, #-24]	; 0xffffffe8
20001960:	e5d3300c 	ldrb	r3, [r3, #12]
20001964:	e3530001 	cmp	r3, #1
20001968:	0a000002 	beq	20001978 <pbuf_realloc+0x44>
2000196c:	e51b3018 	ldr	r3, [fp, #-24]	; 0xffffffe8
20001970:	e5d3300c 	ldrb	r3, [r3, #12]
20001974:	e3530000 	cmp	r3, #0
20001978:	e51b3018 	ldr	r3, [fp, #-24]	; 0xffffffe8
2000197c:	e1d330b8 	ldrh	r3, [r3, #8]
20001980:	e15b21ba 	ldrh	r2, [fp, #-26]	; 0xffffffe6
20001984:	e1520003 	cmp	r2, r3
20001988:	2a00004b 	bcs	20001abc <pbuf_realloc+0x188>
2000198c:	e15b31ba 	ldrh	r3, [fp, #-26]	; 0xffffffe6
20001990:	e51b2018 	ldr	r2, [fp, #-24]	; 0xffffffe8
20001994:	e1d220b8 	ldrh	r2, [r2, #8]
20001998:	e0623003 	rsb	r3, r2, r3
2000199c:	e50b3010 	str	r3, [fp, #-16]
200019a0:	e15b31ba 	ldrh	r3, [fp, #-26]	; 0xffffffe6
200019a4:	e14b30ba 	strh	r3, [fp, #-10]
200019a8:	e51b3018 	ldr	r3, [fp, #-24]	; 0xffffffe8
200019ac:	e50b3008 	str	r3, [fp, #-8]
200019b0:	ea000011 	b	200019fc <pbuf_realloc+0xc8>
200019b4:	e51b3008 	ldr	r3, [fp, #-8]
200019b8:	e1d330ba 	ldrh	r3, [r3, #10]
200019bc:	e15b20ba 	ldrh	r2, [fp, #-10]
200019c0:	e0633002 	rsb	r3, r3, r2
200019c4:	e14b30ba 	strh	r3, [fp, #-10]
200019c8:	e51b3008 	ldr	r3, [fp, #-8]
200019cc:	e1d320b8 	ldrh	r2, [r3, #8]
200019d0:	e51b3010 	ldr	r3, [fp, #-16]
200019d4:	e1a03803 	lsl	r3, r3, #16
200019d8:	e1a03823 	lsr	r3, r3, #16
200019dc:	e0823003 	add	r3, r2, r3
200019e0:	e1a03803 	lsl	r3, r3, #16
200019e4:	e1a02823 	lsr	r2, r3, #16
200019e8:	e51b3008 	ldr	r3, [fp, #-8]
200019ec:	e1c320b8 	strh	r2, [r3, #8]
200019f0:	e51b3008 	ldr	r3, [fp, #-8]
200019f4:	e5933000 	ldr	r3, [r3]
200019f8:	e50b3008 	str	r3, [fp, #-8]
200019fc:	e51b3008 	ldr	r3, [fp, #-8]
20001a00:	e1d330ba 	ldrh	r3, [r3, #10]
20001a04:	e15b20ba 	ldrh	r2, [fp, #-10]
20001a08:	e1520003 	cmp	r2, r3
20001a0c:	8affffe8 	bhi	200019b4 <pbuf_realloc+0x80>
20001a10:	e51b3008 	ldr	r3, [fp, #-8]
20001a14:	e5d3300c 	ldrb	r3, [r3, #12]
20001a18:	e3530000 	cmp	r3, #0
20001a1c:	1a000013 	bne	20001a70 <pbuf_realloc+0x13c>
20001a20:	e51b3008 	ldr	r3, [fp, #-8]
20001a24:	e1d330ba 	ldrh	r3, [r3, #10]
20001a28:	e15b20ba 	ldrh	r2, [fp, #-10]
20001a2c:	e1520003 	cmp	r2, r3
20001a30:	0a00000e 	beq	20001a70 <pbuf_realloc+0x13c>
20001a34:	e51b3008 	ldr	r3, [fp, #-8]
20001a38:	e5933004 	ldr	r3, [r3, #4]
20001a3c:	e1a02003 	mov	r2, r3
20001a40:	e51b3008 	ldr	r3, [fp, #-8]
20001a44:	e0633002 	rsb	r3, r3, r2
20001a48:	e1a03803 	lsl	r3, r3, #16
20001a4c:	e1a02823 	lsr	r2, r3, #16
20001a50:	e15b30ba 	ldrh	r3, [fp, #-10]
20001a54:	e0823003 	add	r3, r2, r3
20001a58:	e1a03803 	lsl	r3, r3, #16
20001a5c:	e1a03823 	lsr	r3, r3, #16
20001a60:	e1a01003 	mov	r1, r3
20001a64:	e51b0008 	ldr	r0, [fp, #-8]
20001a68:	ebfffa4d 	bl	200003a4 <mem_realloc>
20001a6c:	e50b0008 	str	r0, [fp, #-8]
20001a70:	e51b3008 	ldr	r3, [fp, #-8]
20001a74:	e15b20ba 	ldrh	r2, [fp, #-10]
20001a78:	e1c320ba 	strh	r2, [r3, #10]
20001a7c:	e51b3008 	ldr	r3, [fp, #-8]
20001a80:	e1d320ba 	ldrh	r2, [r3, #10]
20001a84:	e51b3008 	ldr	r3, [fp, #-8]
20001a88:	e1c320b8 	strh	r2, [r3, #8]
20001a8c:	e51b3008 	ldr	r3, [fp, #-8]
20001a90:	e5933000 	ldr	r3, [r3]
20001a94:	e3530000 	cmp	r3, #0
20001a98:	0a000003 	beq	20001aac <pbuf_realloc+0x178>
20001a9c:	e51b3008 	ldr	r3, [fp, #-8]
20001aa0:	e5933000 	ldr	r3, [r3]
20001aa4:	e1a00003 	mov	r0, r3
20001aa8:	eb000071 	bl	20001c74 <pbuf_free>
20001aac:	e51b3008 	ldr	r3, [fp, #-8]
20001ab0:	e3a02000 	mov	r2, #0
20001ab4:	e5832000 	str	r2, [r3]
20001ab8:	ea000000 	b	20001ac0 <pbuf_realloc+0x18c>
20001abc:	e1a00000 	nop			; (mov r0, r0)
20001ac0:	e24bd004 	sub	sp, fp, #4
20001ac4:	e8bd4800 	pop	{fp, lr}
20001ac8:	e12fff1e 	bx	lr

20001acc <pbuf_header>:
20001acc:	e52db004 	push	{fp}		; (str fp, [sp, #-4]!)
20001ad0:	e28db000 	add	fp, sp, #0
20001ad4:	e24dd014 	sub	sp, sp, #20
20001ad8:	e50b0010 	str	r0, [fp, #-16]
20001adc:	e1a03001 	mov	r3, r1
20001ae0:	e14b31b2 	strh	r3, [fp, #-18]	; 0xffffffee
20001ae4:	e15b31f2 	ldrsh	r3, [fp, #-18]	; 0xffffffee
20001ae8:	e3530000 	cmp	r3, #0
20001aec:	0a000002 	beq	20001afc <pbuf_header+0x30>
20001af0:	e51b3010 	ldr	r3, [fp, #-16]
20001af4:	e3530000 	cmp	r3, #0
20001af8:	1a000001 	bne	20001b04 <pbuf_header+0x38>
20001afc:	e3a03000 	mov	r3, #0
20001b00:	ea000057 	b	20001c64 <pbuf_header+0x198>
20001b04:	e15b31f2 	ldrsh	r3, [fp, #-18]	; 0xffffffee
20001b08:	e3530000 	cmp	r3, #0
20001b0c:	aa000009 	bge	20001b38 <pbuf_header+0x6c>
20001b10:	e15b31b2 	ldrh	r3, [fp, #-18]	; 0xffffffee
20001b14:	e2633000 	rsb	r3, r3, #0
20001b18:	e14b30b6 	strh	r3, [fp, #-6]
20001b1c:	e51b3010 	ldr	r3, [fp, #-16]
20001b20:	e1d330ba 	ldrh	r3, [r3, #10]
20001b24:	e15b20b6 	ldrh	r2, [fp, #-6]
20001b28:	e1520003 	cmp	r2, r3
20001b2c:	9a000003 	bls	20001b40 <pbuf_header+0x74>
20001b30:	e3a03001 	mov	r3, #1
20001b34:	ea00004a 	b	20001c64 <pbuf_header+0x198>
20001b38:	e15b31b2 	ldrh	r3, [fp, #-18]	; 0xffffffee
20001b3c:	e14b30b6 	strh	r3, [fp, #-6]
20001b40:	e51b3010 	ldr	r3, [fp, #-16]
20001b44:	e5d3300c 	ldrb	r3, [r3, #12]
20001b48:	e14b30b8 	strh	r3, [fp, #-8]
20001b4c:	e51b3010 	ldr	r3, [fp, #-16]
20001b50:	e5933004 	ldr	r3, [r3, #4]
20001b54:	e50b300c 	str	r3, [fp, #-12]
20001b58:	e15b30b8 	ldrh	r3, [fp, #-8]
20001b5c:	e3530000 	cmp	r3, #0
20001b60:	0a000002 	beq	20001b70 <pbuf_header+0xa4>
20001b64:	e15b30b8 	ldrh	r3, [fp, #-8]
20001b68:	e3530003 	cmp	r3, #3
20001b6c:	1a000011 	bne	20001bb8 <pbuf_header+0xec>
20001b70:	e51b3010 	ldr	r3, [fp, #-16]
20001b74:	e5932004 	ldr	r2, [r3, #4]
20001b78:	e15b31f2 	ldrsh	r3, [fp, #-18]	; 0xffffffee
20001b7c:	e2633000 	rsb	r3, r3, #0
20001b80:	e0822003 	add	r2, r2, r3
20001b84:	e51b3010 	ldr	r3, [fp, #-16]
20001b88:	e5832004 	str	r2, [r3, #4]
20001b8c:	e51b3010 	ldr	r3, [fp, #-16]
20001b90:	e5932004 	ldr	r2, [r3, #4]
20001b94:	e51b3010 	ldr	r3, [fp, #-16]
20001b98:	e2833010 	add	r3, r3, #16
20001b9c:	e1520003 	cmp	r2, r3
20001ba0:	2a00001e 	bcs	20001c20 <pbuf_header+0x154>
20001ba4:	e51b3010 	ldr	r3, [fp, #-16]
20001ba8:	e51b200c 	ldr	r2, [fp, #-12]
20001bac:	e5832004 	str	r2, [r3, #4]
20001bb0:	e3a03001 	mov	r3, #1
20001bb4:	ea00002a 	b	20001c64 <pbuf_header+0x198>
20001bb8:	e15b30b8 	ldrh	r3, [fp, #-8]
20001bbc:	e3530002 	cmp	r3, #2
20001bc0:	0a000002 	beq	20001bd0 <pbuf_header+0x104>
20001bc4:	e15b30b8 	ldrh	r3, [fp, #-8]
20001bc8:	e3530001 	cmp	r3, #1
20001bcc:	1a000011 	bne	20001c18 <pbuf_header+0x14c>
20001bd0:	e15b31f2 	ldrsh	r3, [fp, #-18]	; 0xffffffee
20001bd4:	e3530000 	cmp	r3, #0
20001bd8:	aa00000c 	bge	20001c10 <pbuf_header+0x144>
20001bdc:	e51b3010 	ldr	r3, [fp, #-16]
20001be0:	e1d330ba 	ldrh	r3, [r3, #10]
20001be4:	e15b20b6 	ldrh	r2, [fp, #-6]
20001be8:	e1520003 	cmp	r2, r3
20001bec:	8a000007 	bhi	20001c10 <pbuf_header+0x144>
20001bf0:	e51b3010 	ldr	r3, [fp, #-16]
20001bf4:	e5932004 	ldr	r2, [r3, #4]
20001bf8:	e15b31f2 	ldrsh	r3, [fp, #-18]	; 0xffffffee
20001bfc:	e2633000 	rsb	r3, r3, #0
20001c00:	e0822003 	add	r2, r2, r3
20001c04:	e51b3010 	ldr	r3, [fp, #-16]
20001c08:	e5832004 	str	r2, [r3, #4]
20001c0c:	ea000003 	b	20001c20 <pbuf_header+0x154>
20001c10:	e3a03001 	mov	r3, #1
20001c14:	ea000012 	b	20001c64 <pbuf_header+0x198>
20001c18:	e3a03001 	mov	r3, #1
20001c1c:	ea000010 	b	20001c64 <pbuf_header+0x198>
20001c20:	e51b3010 	ldr	r3, [fp, #-16]
20001c24:	e1d320ba 	ldrh	r2, [r3, #10]
20001c28:	e15b31b2 	ldrh	r3, [fp, #-18]	; 0xffffffee
20001c2c:	e0823003 	add	r3, r2, r3
20001c30:	e1a03803 	lsl	r3, r3, #16
20001c34:	e1a02823 	lsr	r2, r3, #16
20001c38:	e51b3010 	ldr	r3, [fp, #-16]
20001c3c:	e1c320ba 	strh	r2, [r3, #10]
20001c40:	e51b3010 	ldr	r3, [fp, #-16]
20001c44:	e1d320b8 	ldrh	r2, [r3, #8]
20001c48:	e15b31b2 	ldrh	r3, [fp, #-18]	; 0xffffffee
20001c4c:	e0823003 	add	r3, r2, r3
20001c50:	e1a03803 	lsl	r3, r3, #16
20001c54:	e1a02823 	lsr	r2, r3, #16
20001c58:	e51b3010 	ldr	r3, [fp, #-16]
20001c5c:	e1c320b8 	strh	r2, [r3, #8]
20001c60:	e3a03000 	mov	r3, #0
20001c64:	e1a00003 	mov	r0, r3
20001c68:	e24bd000 	sub	sp, fp, #0
20001c6c:	e49db004 	pop	{fp}		; (ldr fp, [sp], #4)
20001c70:	e12fff1e 	bx	lr

20001c74 <pbuf_free>:
20001c74:	e92d4800 	push	{fp, lr}
20001c78:	e28db004 	add	fp, sp, #4
20001c7c:	e24dd018 	sub	sp, sp, #24
20001c80:	e50b0018 	str	r0, [fp, #-24]	; 0xffffffe8
20001c84:	e51b3018 	ldr	r3, [fp, #-24]	; 0xffffffe8
20001c88:	e3530000 	cmp	r3, #0
20001c8c:	1a000001 	bne	20001c98 <pbuf_free+0x24>
20001c90:	e3a03000 	mov	r3, #0
20001c94:	ea00003f 	b	20001d98 <pbuf_free+0x124>
20001c98:	e51b3018 	ldr	r3, [fp, #-24]	; 0xffffffe8
20001c9c:	e5d3300c 	ldrb	r3, [r3, #12]
20001ca0:	e3530000 	cmp	r3, #0
20001ca4:	0a000006 	beq	20001cc4 <pbuf_free+0x50>
20001ca8:	e51b3018 	ldr	r3, [fp, #-24]	; 0xffffffe8
20001cac:	e5d3300c 	ldrb	r3, [r3, #12]
20001cb0:	e3530001 	cmp	r3, #1
20001cb4:	0a000002 	beq	20001cc4 <pbuf_free+0x50>
20001cb8:	e51b3018 	ldr	r3, [fp, #-24]	; 0xffffffe8
20001cbc:	e5d3300c 	ldrb	r3, [r3, #12]
20001cc0:	e3530002 	cmp	r3, #2
20001cc4:	e3a03000 	mov	r3, #0
20001cc8:	e54b3005 	strb	r3, [fp, #-5]
20001ccc:	ea00002d 	b	20001d88 <pbuf_free+0x114>
20001cd0:	e51b3018 	ldr	r3, [fp, #-24]	; 0xffffffe8
20001cd4:	e1d330be 	ldrh	r3, [r3, #14]
20001cd8:	e2433001 	sub	r3, r3, #1
20001cdc:	e1a03803 	lsl	r3, r3, #16
20001ce0:	e1a02823 	lsr	r2, r3, #16
20001ce4:	e51b3018 	ldr	r3, [fp, #-24]	; 0xffffffe8
20001ce8:	e1c320be 	strh	r2, [r3, #14]
20001cec:	e51b3018 	ldr	r3, [fp, #-24]	; 0xffffffe8
20001cf0:	e1d330be 	ldrh	r3, [r3, #14]
20001cf4:	e14b30b8 	strh	r3, [fp, #-8]
20001cf8:	e15b30b8 	ldrh	r3, [fp, #-8]
20001cfc:	e3530000 	cmp	r3, #0
20001d00:	1a00001e 	bne	20001d80 <pbuf_free+0x10c>
20001d04:	e51b3018 	ldr	r3, [fp, #-24]	; 0xffffffe8
20001d08:	e5933000 	ldr	r3, [r3]
20001d0c:	e50b300c 	str	r3, [fp, #-12]
20001d10:	e51b3018 	ldr	r3, [fp, #-24]	; 0xffffffe8
20001d14:	e5d3300c 	ldrb	r3, [r3, #12]
20001d18:	e14b30be 	strh	r3, [fp, #-14]
20001d1c:	e15b30be 	ldrh	r3, [fp, #-14]
20001d20:	e3530003 	cmp	r3, #3
20001d24:	1a000003 	bne	20001d38 <pbuf_free+0xc4>
20001d28:	e51b1018 	ldr	r1, [fp, #-24]	; 0xffffffe8
20001d2c:	e3a00009 	mov	r0, #9
20001d30:	ebfffc39 	bl	20000e1c <memp_free>
20001d34:	ea00000b 	b	20001d68 <pbuf_free+0xf4>
20001d38:	e15b30be 	ldrh	r3, [fp, #-14]
20001d3c:	e3530001 	cmp	r3, #1
20001d40:	0a000002 	beq	20001d50 <pbuf_free+0xdc>
20001d44:	e15b30be 	ldrh	r3, [fp, #-14]
20001d48:	e3530002 	cmp	r3, #2
20001d4c:	1a000003 	bne	20001d60 <pbuf_free+0xec>
20001d50:	e51b1018 	ldr	r1, [fp, #-24]	; 0xffffffe8
20001d54:	e3a00008 	mov	r0, #8
20001d58:	ebfffc2f 	bl	20000e1c <memp_free>
20001d5c:	ea000001 	b	20001d68 <pbuf_free+0xf4>
20001d60:	e51b0018 	ldr	r0, [fp, #-24]	; 0xffffffe8
20001d64:	ebfff946 	bl	20000284 <mem_free>
20001d68:	e55b3005 	ldrb	r3, [fp, #-5]
20001d6c:	e2833001 	add	r3, r3, #1
20001d70:	e54b3005 	strb	r3, [fp, #-5]
20001d74:	e51b300c 	ldr	r3, [fp, #-12]
20001d78:	e50b3018 	str	r3, [fp, #-24]	; 0xffffffe8
20001d7c:	ea000001 	b	20001d88 <pbuf_free+0x114>
20001d80:	e3a03000 	mov	r3, #0
20001d84:	e50b3018 	str	r3, [fp, #-24]	; 0xffffffe8
20001d88:	e51b3018 	ldr	r3, [fp, #-24]	; 0xffffffe8
20001d8c:	e3530000 	cmp	r3, #0
20001d90:	1affffce 	bne	20001cd0 <pbuf_free+0x5c>
20001d94:	e55b3005 	ldrb	r3, [fp, #-5]
20001d98:	e1a00003 	mov	r0, r3
20001d9c:	e24bd004 	sub	sp, fp, #4
20001da0:	e8bd4800 	pop	{fp, lr}
20001da4:	e12fff1e 	bx	lr

20001da8 <pbuf_clen>:
20001da8:	e52db004 	push	{fp}		; (str fp, [sp, #-4]!)
20001dac:	e28db000 	add	fp, sp, #0
20001db0:	e24dd014 	sub	sp, sp, #20
20001db4:	e50b0010 	str	r0, [fp, #-16]
20001db8:	e3a03000 	mov	r3, #0
20001dbc:	e54b3005 	strb	r3, [fp, #-5]
20001dc0:	ea000005 	b	20001ddc <pbuf_clen+0x34>
20001dc4:	e55b3005 	ldrb	r3, [fp, #-5]
20001dc8:	e2833001 	add	r3, r3, #1
20001dcc:	e54b3005 	strb	r3, [fp, #-5]
20001dd0:	e51b3010 	ldr	r3, [fp, #-16]
20001dd4:	e5933000 	ldr	r3, [r3]
20001dd8:	e50b3010 	str	r3, [fp, #-16]
20001ddc:	e51b3010 	ldr	r3, [fp, #-16]
20001de0:	e3530000 	cmp	r3, #0
20001de4:	1afffff6 	bne	20001dc4 <pbuf_clen+0x1c>
20001de8:	e55b3005 	ldrb	r3, [fp, #-5]
20001dec:	e1a00003 	mov	r0, r3
20001df0:	e24bd000 	sub	sp, fp, #0
20001df4:	e49db004 	pop	{fp}		; (ldr fp, [sp], #4)
20001df8:	e12fff1e 	bx	lr

20001dfc <pbuf_ref>:
20001dfc:	e52db004 	push	{fp}		; (str fp, [sp, #-4]!)
20001e00:	e28db000 	add	fp, sp, #0
20001e04:	e24dd00c 	sub	sp, sp, #12
20001e08:	e50b0008 	str	r0, [fp, #-8]
20001e0c:	e51b3008 	ldr	r3, [fp, #-8]
20001e10:	e3530000 	cmp	r3, #0
20001e14:	0a000006 	beq	20001e34 <pbuf_ref+0x38>
20001e18:	e51b3008 	ldr	r3, [fp, #-8]
20001e1c:	e1d330be 	ldrh	r3, [r3, #14]
20001e20:	e2833001 	add	r3, r3, #1
20001e24:	e1a03803 	lsl	r3, r3, #16
20001e28:	e1a02823 	lsr	r2, r3, #16
20001e2c:	e51b3008 	ldr	r3, [fp, #-8]
20001e30:	e1c320be 	strh	r2, [r3, #14]
20001e34:	e1a00000 	nop			; (mov r0, r0)
20001e38:	e24bd000 	sub	sp, fp, #0
20001e3c:	e49db004 	pop	{fp}		; (ldr fp, [sp], #4)
20001e40:	e12fff1e 	bx	lr

20001e44 <pbuf_cat>:
20001e44:	e52db004 	push	{fp}		; (str fp, [sp, #-4]!)
20001e48:	e28db000 	add	fp, sp, #0
20001e4c:	e24dd014 	sub	sp, sp, #20
20001e50:	e50b0010 	str	r0, [fp, #-16]
20001e54:	e50b1014 	str	r1, [fp, #-20]	; 0xffffffec
20001e58:	e51b3010 	ldr	r3, [fp, #-16]
20001e5c:	e3530000 	cmp	r3, #0
20001e60:	0a000022 	beq	20001ef0 <pbuf_cat+0xac>
20001e64:	e51b3014 	ldr	r3, [fp, #-20]	; 0xffffffec
20001e68:	e3530000 	cmp	r3, #0
20001e6c:	0a00001f 	beq	20001ef0 <pbuf_cat+0xac>
20001e70:	e51b3010 	ldr	r3, [fp, #-16]
20001e74:	e50b3008 	str	r3, [fp, #-8]
20001e78:	ea00000b 	b	20001eac <pbuf_cat+0x68>
20001e7c:	e51b3008 	ldr	r3, [fp, #-8]
20001e80:	e1d320b8 	ldrh	r2, [r3, #8]
20001e84:	e51b3014 	ldr	r3, [fp, #-20]	; 0xffffffec
20001e88:	e1d330b8 	ldrh	r3, [r3, #8]
20001e8c:	e0823003 	add	r3, r2, r3
20001e90:	e1a03803 	lsl	r3, r3, #16
20001e94:	e1a02823 	lsr	r2, r3, #16
20001e98:	e51b3008 	ldr	r3, [fp, #-8]
20001e9c:	e1c320b8 	strh	r2, [r3, #8]
20001ea0:	e51b3008 	ldr	r3, [fp, #-8]
20001ea4:	e5933000 	ldr	r3, [r3]
20001ea8:	e50b3008 	str	r3, [fp, #-8]
20001eac:	e51b3008 	ldr	r3, [fp, #-8]
20001eb0:	e5933000 	ldr	r3, [r3]
20001eb4:	e3530000 	cmp	r3, #0
20001eb8:	1affffef 	bne	20001e7c <pbuf_cat+0x38>
20001ebc:	e51b3008 	ldr	r3, [fp, #-8]
20001ec0:	e1d320b8 	ldrh	r2, [r3, #8]
20001ec4:	e51b3014 	ldr	r3, [fp, #-20]	; 0xffffffec
20001ec8:	e1d330b8 	ldrh	r3, [r3, #8]
20001ecc:	e0823003 	add	r3, r2, r3
20001ed0:	e1a03803 	lsl	r3, r3, #16
20001ed4:	e1a02823 	lsr	r2, r3, #16
20001ed8:	e51b3008 	ldr	r3, [fp, #-8]
20001edc:	e1c320b8 	strh	r2, [r3, #8]
20001ee0:	e51b3008 	ldr	r3, [fp, #-8]
20001ee4:	e51b2014 	ldr	r2, [fp, #-20]	; 0xffffffec
20001ee8:	e5832000 	str	r2, [r3]
20001eec:	ea000000 	b	20001ef4 <pbuf_cat+0xb0>
20001ef0:	e1a00000 	nop			; (mov r0, r0)
20001ef4:	e24bd000 	sub	sp, fp, #0
20001ef8:	e49db004 	pop	{fp}		; (ldr fp, [sp], #4)
20001efc:	e12fff1e 	bx	lr

20001f00 <pbuf_chain>:
20001f00:	e92d4800 	push	{fp, lr}
20001f04:	e28db004 	add	fp, sp, #4
20001f08:	e24dd008 	sub	sp, sp, #8
20001f0c:	e50b0008 	str	r0, [fp, #-8]
20001f10:	e50b100c 	str	r1, [fp, #-12]
20001f14:	e51b100c 	ldr	r1, [fp, #-12]
20001f18:	e51b0008 	ldr	r0, [fp, #-8]
20001f1c:	ebffffc8 	bl	20001e44 <pbuf_cat>
20001f20:	e51b000c 	ldr	r0, [fp, #-12]
20001f24:	ebffffb4 	bl	20001dfc <pbuf_ref>
20001f28:	e1a00000 	nop			; (mov r0, r0)
20001f2c:	e24bd004 	sub	sp, fp, #4
20001f30:	e8bd4800 	pop	{fp, lr}
20001f34:	e12fff1e 	bx	lr

20001f38 <pbuf_dechain>:
20001f38:	e92d4800 	push	{fp, lr}
20001f3c:	e28db004 	add	fp, sp, #4
20001f40:	e24dd010 	sub	sp, sp, #16
20001f44:	e50b0010 	str	r0, [fp, #-16]
20001f48:	e3a03001 	mov	r3, #1
20001f4c:	e54b3005 	strb	r3, [fp, #-5]
20001f50:	e51b3010 	ldr	r3, [fp, #-16]
20001f54:	e5933000 	ldr	r3, [r3]
20001f58:	e50b300c 	str	r3, [fp, #-12]
20001f5c:	e51b300c 	ldr	r3, [fp, #-12]
20001f60:	e3530000 	cmp	r3, #0
20001f64:	0a000013 	beq	20001fb8 <pbuf_dechain+0x80>
20001f68:	e51b3010 	ldr	r3, [fp, #-16]
20001f6c:	e1d320b8 	ldrh	r2, [r3, #8]
20001f70:	e51b3010 	ldr	r3, [fp, #-16]
20001f74:	e1d330ba 	ldrh	r3, [r3, #10]
20001f78:	e0633002 	rsb	r3, r3, r2
20001f7c:	e1a03803 	lsl	r3, r3, #16
20001f80:	e1a02823 	lsr	r2, r3, #16
20001f84:	e51b300c 	ldr	r3, [fp, #-12]
20001f88:	e1c320b8 	strh	r2, [r3, #8]
20001f8c:	e51b3010 	ldr	r3, [fp, #-16]
20001f90:	e3a02000 	mov	r2, #0
20001f94:	e5832000 	str	r2, [r3]
20001f98:	e51b3010 	ldr	r3, [fp, #-16]
20001f9c:	e1d320ba 	ldrh	r2, [r3, #10]
20001fa0:	e51b3010 	ldr	r3, [fp, #-16]
20001fa4:	e1c320b8 	strh	r2, [r3, #8]
20001fa8:	e51b000c 	ldr	r0, [fp, #-12]
20001fac:	ebffff30 	bl	20001c74 <pbuf_free>
20001fb0:	e1a03000 	mov	r3, r0
20001fb4:	e54b3005 	strb	r3, [fp, #-5]
20001fb8:	e55b3005 	ldrb	r3, [fp, #-5]
20001fbc:	e3530000 	cmp	r3, #0
20001fc0:	1a000001 	bne	20001fcc <pbuf_dechain+0x94>
20001fc4:	e51b300c 	ldr	r3, [fp, #-12]
20001fc8:	ea000000 	b	20001fd0 <pbuf_dechain+0x98>
20001fcc:	e3a03000 	mov	r3, #0
20001fd0:	e1a00003 	mov	r0, r3
20001fd4:	e24bd004 	sub	sp, fp, #4
20001fd8:	e8bd4800 	pop	{fp, lr}
20001fdc:	e12fff1e 	bx	lr

20001fe0 <pbuf_copy>:
20001fe0:	e92d4800 	push	{fp, lr}
20001fe4:	e28db004 	add	fp, sp, #4
20001fe8:	e24dd010 	sub	sp, sp, #16
20001fec:	e50b0010 	str	r0, [fp, #-16]
20001ff0:	e50b1014 	str	r1, [fp, #-20]	; 0xffffffec
20001ff4:	e3a03000 	mov	r3, #0
20001ff8:	e14b30b6 	strh	r3, [fp, #-6]
20001ffc:	e3a03000 	mov	r3, #0
20002000:	e14b30b8 	strh	r3, [fp, #-8]
20002004:	e51b3010 	ldr	r3, [fp, #-16]
20002008:	e3530000 	cmp	r3, #0
2000200c:	0a000008 	beq	20002034 <pbuf_copy+0x54>
20002010:	e51b3014 	ldr	r3, [fp, #-20]	; 0xffffffec
20002014:	e3530000 	cmp	r3, #0
20002018:	0a000005 	beq	20002034 <pbuf_copy+0x54>
2000201c:	e51b3010 	ldr	r3, [fp, #-16]
20002020:	e1d320b8 	ldrh	r2, [r3, #8]
20002024:	e51b3014 	ldr	r3, [fp, #-20]	; 0xffffffec
20002028:	e1d330b8 	ldrh	r3, [r3, #8]
2000202c:	e1520003 	cmp	r2, r3
20002030:	2a000001 	bcs	2000203c <pbuf_copy+0x5c>
20002034:	e3a030f6 	mov	r3, #246	; 0xf6
20002038:	ea00005f 	b	200021bc <pbuf_copy+0x1dc>
2000203c:	e51b3010 	ldr	r3, [fp, #-16]
20002040:	e1d330ba 	ldrh	r3, [r3, #10]
20002044:	e1a02003 	mov	r2, r3
20002048:	e15b30b6 	ldrh	r3, [fp, #-6]
2000204c:	e0632002 	rsb	r2, r3, r2
20002050:	e51b3014 	ldr	r3, [fp, #-20]	; 0xffffffec
20002054:	e1d330ba 	ldrh	r3, [r3, #10]
20002058:	e1a01003 	mov	r1, r3
2000205c:	e15b30b8 	ldrh	r3, [fp, #-8]
20002060:	e0633001 	rsb	r3, r3, r1
20002064:	e1520003 	cmp	r2, r3
20002068:	ba000005 	blt	20002084 <pbuf_copy+0xa4>
2000206c:	e51b3014 	ldr	r3, [fp, #-20]	; 0xffffffec
20002070:	e1d320ba 	ldrh	r2, [r3, #10]
20002074:	e15b30b8 	ldrh	r3, [fp, #-8]
20002078:	e0633002 	rsb	r3, r3, r2
2000207c:	e14b30ba 	strh	r3, [fp, #-10]
20002080:	ea000004 	b	20002098 <pbuf_copy+0xb8>
20002084:	e51b3010 	ldr	r3, [fp, #-16]
20002088:	e1d320ba 	ldrh	r2, [r3, #10]
2000208c:	e15b30b6 	ldrh	r3, [fp, #-6]
20002090:	e0633002 	rsb	r3, r3, r2
20002094:	e14b30ba 	strh	r3, [fp, #-10]
20002098:	e51b3010 	ldr	r3, [fp, #-16]
2000209c:	e5932004 	ldr	r2, [r3, #4]
200020a0:	e15b30b6 	ldrh	r3, [fp, #-6]
200020a4:	e0820003 	add	r0, r2, r3
200020a8:	e51b3014 	ldr	r3, [fp, #-20]	; 0xffffffec
200020ac:	e5932004 	ldr	r2, [r3, #4]
200020b0:	e15b30b8 	ldrh	r3, [fp, #-8]
200020b4:	e0823003 	add	r3, r2, r3
200020b8:	e15b20ba 	ldrh	r2, [fp, #-10]
200020bc:	e1a01003 	mov	r1, r3
200020c0:	eb0046c1 	bl	20013bcc <__rom_data_end>
200020c4:	e15b20b6 	ldrh	r2, [fp, #-6]
200020c8:	e15b30ba 	ldrh	r3, [fp, #-10]
200020cc:	e0823003 	add	r3, r2, r3
200020d0:	e14b30b6 	strh	r3, [fp, #-6]
200020d4:	e15b20b8 	ldrh	r2, [fp, #-8]
200020d8:	e15b30ba 	ldrh	r3, [fp, #-10]
200020dc:	e0823003 	add	r3, r2, r3
200020e0:	e14b30b8 	strh	r3, [fp, #-8]
200020e4:	e51b3010 	ldr	r3, [fp, #-16]
200020e8:	e1d330ba 	ldrh	r3, [r3, #10]
200020ec:	e15b20b6 	ldrh	r2, [fp, #-6]
200020f0:	e1520003 	cmp	r2, r3
200020f4:	1a000004 	bne	2000210c <pbuf_copy+0x12c>
200020f8:	e3a03000 	mov	r3, #0
200020fc:	e14b30b6 	strh	r3, [fp, #-6]
20002100:	e51b3010 	ldr	r3, [fp, #-16]
20002104:	e5933000 	ldr	r3, [r3]
20002108:	e50b3010 	str	r3, [fp, #-16]
2000210c:	e51b3014 	ldr	r3, [fp, #-20]	; 0xffffffec
20002110:	e1d330ba 	ldrh	r3, [r3, #10]
20002114:	e15b20b8 	ldrh	r2, [fp, #-8]
20002118:	e1520003 	cmp	r2, r3
2000211c:	3a000004 	bcc	20002134 <pbuf_copy+0x154>
20002120:	e3a03000 	mov	r3, #0
20002124:	e14b30b8 	strh	r3, [fp, #-8]
20002128:	e51b3014 	ldr	r3, [fp, #-20]	; 0xffffffec
2000212c:	e5933000 	ldr	r3, [r3]
20002130:	e50b3014 	str	r3, [fp, #-20]	; 0xffffffec
20002134:	e51b3014 	ldr	r3, [fp, #-20]	; 0xffffffec
20002138:	e3530000 	cmp	r3, #0
2000213c:	0a00000b 	beq	20002170 <pbuf_copy+0x190>
20002140:	e51b3014 	ldr	r3, [fp, #-20]	; 0xffffffec
20002144:	e1d320ba 	ldrh	r2, [r3, #10]
20002148:	e51b3014 	ldr	r3, [fp, #-20]	; 0xffffffec
2000214c:	e1d330b8 	ldrh	r3, [r3, #8]
20002150:	e1520003 	cmp	r2, r3
20002154:	1a000005 	bne	20002170 <pbuf_copy+0x190>
20002158:	e51b3014 	ldr	r3, [fp, #-20]	; 0xffffffec
2000215c:	e5933000 	ldr	r3, [r3]
20002160:	e3530000 	cmp	r3, #0
20002164:	0a000001 	beq	20002170 <pbuf_copy+0x190>
20002168:	e3a030f7 	mov	r3, #247	; 0xf7
2000216c:	ea000012 	b	200021bc <pbuf_copy+0x1dc>
20002170:	e51b3010 	ldr	r3, [fp, #-16]
20002174:	e3530000 	cmp	r3, #0
20002178:	0a00000b 	beq	200021ac <pbuf_copy+0x1cc>
2000217c:	e51b3010 	ldr	r3, [fp, #-16]
20002180:	e1d320ba 	ldrh	r2, [r3, #10]
20002184:	e51b3010 	ldr	r3, [fp, #-16]
20002188:	e1d330b8 	ldrh	r3, [r3, #8]
2000218c:	e1520003 	cmp	r2, r3
20002190:	1a000005 	bne	200021ac <pbuf_copy+0x1cc>
20002194:	e51b3010 	ldr	r3, [fp, #-16]
20002198:	e5933000 	ldr	r3, [r3]
2000219c:	e3530000 	cmp	r3, #0
200021a0:	0a000001 	beq	200021ac <pbuf_copy+0x1cc>
200021a4:	e3a030f7 	mov	r3, #247	; 0xf7
200021a8:	ea000003 	b	200021bc <pbuf_copy+0x1dc>
200021ac:	e51b3014 	ldr	r3, [fp, #-20]	; 0xffffffec
200021b0:	e3530000 	cmp	r3, #0
200021b4:	1affffa0 	bne	2000203c <pbuf_copy+0x5c>
200021b8:	e3a03000 	mov	r3, #0
200021bc:	e1a03c03 	lsl	r3, r3, #24
200021c0:	e1a03c43 	asr	r3, r3, #24
200021c4:	e1a00003 	mov	r0, r3
200021c8:	e24bd004 	sub	sp, fp, #4
200021cc:	e8bd4800 	pop	{fp, lr}
200021d0:	e12fff1e 	bx	lr

200021d4 <pbuf_copy_partial>:
200021d4:	e92d4800 	push	{fp, lr}
200021d8:	e28db004 	add	fp, sp, #4
200021dc:	e24dd020 	sub	sp, sp, #32
200021e0:	e50b0018 	str	r0, [fp, #-24]	; 0xffffffe8
200021e4:	e50b101c 	str	r1, [fp, #-28]	; 0xffffffe4
200021e8:	e14b21be 	strh	r2, [fp, #-30]	; 0xffffffe2
200021ec:	e14b32b0 	strh	r3, [fp, #-32]	; 0xffffffe0
200021f0:	e3a03000 	mov	r3, #0
200021f4:	e14b30be 	strh	r3, [fp, #-14]
200021f8:	e51b3018 	ldr	r3, [fp, #-24]	; 0xffffffe8
200021fc:	e3530000 	cmp	r3, #0
20002200:	1a000001 	bne	2000220c <pbuf_copy_partial+0x38>
20002204:	e3a03000 	mov	r3, #0
20002208:	ea00004c 	b	20002340 <pbuf_copy_partial+0x16c>
2000220c:	e51b301c 	ldr	r3, [fp, #-28]	; 0xffffffe4
20002210:	e3530000 	cmp	r3, #0
20002214:	1a000001 	bne	20002220 <pbuf_copy_partial+0x4c>
20002218:	e3a03000 	mov	r3, #0
2000221c:	ea000047 	b	20002340 <pbuf_copy_partial+0x16c>
20002220:	e3a03000 	mov	r3, #0
20002224:	e14b30ba 	strh	r3, [fp, #-10]
20002228:	e51b3018 	ldr	r3, [fp, #-24]	; 0xffffffe8
2000222c:	e3530000 	cmp	r3, #0
20002230:	0a000002 	beq	20002240 <pbuf_copy_partial+0x6c>
20002234:	e51b301c 	ldr	r3, [fp, #-28]	; 0xffffffe4
20002238:	e3530000 	cmp	r3, #0
2000223c:	1a000001 	bne	20002248 <pbuf_copy_partial+0x74>
20002240:	e3a03000 	mov	r3, #0
20002244:	ea00003d 	b	20002340 <pbuf_copy_partial+0x16c>
20002248:	e51b3018 	ldr	r3, [fp, #-24]	; 0xffffffe8
2000224c:	e50b3008 	str	r3, [fp, #-8]
20002250:	ea000033 	b	20002324 <pbuf_copy_partial+0x150>
20002254:	e15b32b0 	ldrh	r3, [fp, #-32]	; 0xffffffe0
20002258:	e3530000 	cmp	r3, #0
2000225c:	0a00000a 	beq	2000228c <pbuf_copy_partial+0xb8>
20002260:	e51b3008 	ldr	r3, [fp, #-8]
20002264:	e1d330ba 	ldrh	r3, [r3, #10]
20002268:	e15b22b0 	ldrh	r2, [fp, #-32]	; 0xffffffe0
2000226c:	e1520003 	cmp	r2, r3
20002270:	3a000005 	bcc	2000228c <pbuf_copy_partial+0xb8>
20002274:	e51b3008 	ldr	r3, [fp, #-8]
20002278:	e1d330ba 	ldrh	r3, [r3, #10]
2000227c:	e15b22b0 	ldrh	r2, [fp, #-32]	; 0xffffffe0
20002280:	e0633002 	rsb	r3, r3, r2
20002284:	e14b32b0 	strh	r3, [fp, #-32]	; 0xffffffe0
20002288:	ea000022 	b	20002318 <pbuf_copy_partial+0x144>
2000228c:	e51b3008 	ldr	r3, [fp, #-8]
20002290:	e1d320ba 	ldrh	r2, [r3, #10]
20002294:	e15b32b0 	ldrh	r3, [fp, #-32]	; 0xffffffe0
20002298:	e0633002 	rsb	r3, r3, r2
2000229c:	e14b30bc 	strh	r3, [fp, #-12]
200022a0:	e15b20bc 	ldrh	r2, [fp, #-12]
200022a4:	e15b31be 	ldrh	r3, [fp, #-30]	; 0xffffffe2
200022a8:	e1520003 	cmp	r2, r3
200022ac:	9a000001 	bls	200022b8 <pbuf_copy_partial+0xe4>
200022b0:	e15b31be 	ldrh	r3, [fp, #-30]	; 0xffffffe2
200022b4:	e14b30bc 	strh	r3, [fp, #-12]
200022b8:	e15b30ba 	ldrh	r3, [fp, #-10]
200022bc:	e51b201c 	ldr	r2, [fp, #-28]	; 0xffffffe4
200022c0:	e0820003 	add	r0, r2, r3
200022c4:	e51b3008 	ldr	r3, [fp, #-8]
200022c8:	e5932004 	ldr	r2, [r3, #4]
200022cc:	e15b32b0 	ldrh	r3, [fp, #-32]	; 0xffffffe0
200022d0:	e0823003 	add	r3, r2, r3
200022d4:	e15b20bc 	ldrh	r2, [fp, #-12]
200022d8:	e1a01003 	mov	r1, r3
200022dc:	eb00463a 	bl	20013bcc <__rom_data_end>
200022e0:	e15b20be 	ldrh	r2, [fp, #-14]
200022e4:	e15b30bc 	ldrh	r3, [fp, #-12]
200022e8:	e0823003 	add	r3, r2, r3
200022ec:	e14b30be 	strh	r3, [fp, #-14]
200022f0:	e15b20ba 	ldrh	r2, [fp, #-10]
200022f4:	e15b30bc 	ldrh	r3, [fp, #-12]
200022f8:	e0823003 	add	r3, r2, r3
200022fc:	e14b30ba 	strh	r3, [fp, #-10]
20002300:	e15b21be 	ldrh	r2, [fp, #-30]	; 0xffffffe2
20002304:	e15b30bc 	ldrh	r3, [fp, #-12]
20002308:	e0633002 	rsb	r3, r3, r2
2000230c:	e14b31be 	strh	r3, [fp, #-30]	; 0xffffffe2
20002310:	e3a03000 	mov	r3, #0
20002314:	e14b32b0 	strh	r3, [fp, #-32]	; 0xffffffe0
20002318:	e51b3008 	ldr	r3, [fp, #-8]
2000231c:	e5933000 	ldr	r3, [r3]
20002320:	e50b3008 	str	r3, [fp, #-8]
20002324:	e15b31be 	ldrh	r3, [fp, #-30]	; 0xffffffe2
20002328:	e3530000 	cmp	r3, #0
2000232c:	0a000002 	beq	2000233c <pbuf_copy_partial+0x168>
20002330:	e51b3008 	ldr	r3, [fp, #-8]
20002334:	e3530000 	cmp	r3, #0
20002338:	1affffc5 	bne	20002254 <pbuf_copy_partial+0x80>
2000233c:	e15b30be 	ldrh	r3, [fp, #-14]
20002340:	e1a00003 	mov	r0, r3
20002344:	e24bd004 	sub	sp, fp, #4
20002348:	e8bd4800 	pop	{fp, lr}
2000234c:	e12fff1e 	bx	lr

20002350 <pbuf_take>:
20002350:	e92d4800 	push	{fp, lr}
20002354:	e28db004 	add	fp, sp, #4
20002358:	e24dd020 	sub	sp, sp, #32
2000235c:	e50b0018 	str	r0, [fp, #-24]	; 0xffffffe8
20002360:	e50b101c 	str	r1, [fp, #-28]	; 0xffffffe4
20002364:	e1a03002 	mov	r3, r2
20002368:	e14b31be 	strh	r3, [fp, #-30]	; 0xffffffe2
2000236c:	e15b31be 	ldrh	r3, [fp, #-30]	; 0xffffffe2
20002370:	e14b30bc 	strh	r3, [fp, #-12]
20002374:	e3a03000 	mov	r3, #0
20002378:	e14b30be 	strh	r3, [fp, #-14]
2000237c:	e51b3018 	ldr	r3, [fp, #-24]	; 0xffffffe8
20002380:	e3530000 	cmp	r3, #0
20002384:	1a000001 	bne	20002390 <pbuf_take+0x40>
20002388:	e3a03000 	mov	r3, #0
2000238c:	ea000035 	b	20002468 <pbuf_take+0x118>
20002390:	e51b301c 	ldr	r3, [fp, #-28]	; 0xffffffe4
20002394:	e3530000 	cmp	r3, #0
20002398:	1a000001 	bne	200023a4 <pbuf_take+0x54>
2000239c:	e3a03000 	mov	r3, #0
200023a0:	ea000030 	b	20002468 <pbuf_take+0x118>
200023a4:	e51b3018 	ldr	r3, [fp, #-24]	; 0xffffffe8
200023a8:	e3530000 	cmp	r3, #0
200023ac:	0a000007 	beq	200023d0 <pbuf_take+0x80>
200023b0:	e51b301c 	ldr	r3, [fp, #-28]	; 0xffffffe4
200023b4:	e3530000 	cmp	r3, #0
200023b8:	0a000004 	beq	200023d0 <pbuf_take+0x80>
200023bc:	e51b3018 	ldr	r3, [fp, #-24]	; 0xffffffe8
200023c0:	e1d330b8 	ldrh	r3, [r3, #8]
200023c4:	e15b21be 	ldrh	r2, [fp, #-30]	; 0xffffffe2
200023c8:	e1520003 	cmp	r2, r3
200023cc:	9a000001 	bls	200023d8 <pbuf_take+0x88>
200023d0:	e3a030f6 	mov	r3, #246	; 0xf6
200023d4:	ea000023 	b	20002468 <pbuf_take+0x118>
200023d8:	e51b3018 	ldr	r3, [fp, #-24]	; 0xffffffe8
200023dc:	e50b3008 	str	r3, [fp, #-8]
200023e0:	ea00001c 	b	20002458 <pbuf_take+0x108>
200023e4:	e15b30bc 	ldrh	r3, [fp, #-12]
200023e8:	e14b30ba 	strh	r3, [fp, #-10]
200023ec:	e51b3008 	ldr	r3, [fp, #-8]
200023f0:	e1d330ba 	ldrh	r3, [r3, #10]
200023f4:	e15b20ba 	ldrh	r2, [fp, #-10]
200023f8:	e1520003 	cmp	r2, r3
200023fc:	9a000002 	bls	2000240c <pbuf_take+0xbc>
20002400:	e51b3008 	ldr	r3, [fp, #-8]
20002404:	e1d330ba 	ldrh	r3, [r3, #10]
20002408:	e14b30ba 	strh	r3, [fp, #-10]
2000240c:	e51b3008 	ldr	r3, [fp, #-8]
20002410:	e5930004 	ldr	r0, [r3, #4]
20002414:	e15b30be 	ldrh	r3, [fp, #-14]
20002418:	e51b201c 	ldr	r2, [fp, #-28]	; 0xffffffe4
2000241c:	e0823003 	add	r3, r2, r3
20002420:	e15b20ba 	ldrh	r2, [fp, #-10]
20002424:	e1a01003 	mov	r1, r3
20002428:	eb0045e7 	bl	20013bcc <__rom_data_end>
2000242c:	e15b20bc 	ldrh	r2, [fp, #-12]
20002430:	e15b30ba 	ldrh	r3, [fp, #-10]
20002434:	e0633002 	rsb	r3, r3, r2
20002438:	e14b30bc 	strh	r3, [fp, #-12]
2000243c:	e15b20be 	ldrh	r2, [fp, #-14]
20002440:	e15b30ba 	ldrh	r3, [fp, #-10]
20002444:	e0823003 	add	r3, r2, r3
20002448:	e14b30be 	strh	r3, [fp, #-14]
2000244c:	e51b3008 	ldr	r3, [fp, #-8]
20002450:	e5933000 	ldr	r3, [r3]
20002454:	e50b3008 	str	r3, [fp, #-8]
20002458:	e15b30bc 	ldrh	r3, [fp, #-12]
2000245c:	e3530000 	cmp	r3, #0
20002460:	1affffdf 	bne	200023e4 <pbuf_take+0x94>
20002464:	e3a03000 	mov	r3, #0
20002468:	e1a03c03 	lsl	r3, r3, #24
2000246c:	e1a03c43 	asr	r3, r3, #24
20002470:	e1a00003 	mov	r0, r3
20002474:	e24bd004 	sub	sp, fp, #4
20002478:	e8bd4800 	pop	{fp, lr}
2000247c:	e12fff1e 	bx	lr

20002480 <pbuf_coalesce>:
20002480:	e92d4800 	push	{fp, lr}
20002484:	e28db004 	add	fp, sp, #4
20002488:	e24dd010 	sub	sp, sp, #16
2000248c:	e50b0010 	str	r0, [fp, #-16]
20002490:	e1a03001 	mov	r3, r1
20002494:	e54b3011 	strb	r3, [fp, #-17]	; 0xffffffef
20002498:	e51b3010 	ldr	r3, [fp, #-16]
2000249c:	e5933000 	ldr	r3, [r3]
200024a0:	e3530000 	cmp	r3, #0
200024a4:	1a000001 	bne	200024b0 <pbuf_coalesce+0x30>
200024a8:	e51b3010 	ldr	r3, [fp, #-16]
200024ac:	ea000013 	b	20002500 <pbuf_coalesce+0x80>
200024b0:	e51b3010 	ldr	r3, [fp, #-16]
200024b4:	e1d310b8 	ldrh	r1, [r3, #8]
200024b8:	e55b3011 	ldrb	r3, [fp, #-17]	; 0xffffffef
200024bc:	e3a02000 	mov	r2, #0
200024c0:	e1a00003 	mov	r0, r3
200024c4:	ebfffc32 	bl	20001594 <pbuf_alloc>
200024c8:	e50b0008 	str	r0, [fp, #-8]
200024cc:	e51b3008 	ldr	r3, [fp, #-8]
200024d0:	e3530000 	cmp	r3, #0
200024d4:	1a000001 	bne	200024e0 <pbuf_coalesce+0x60>
200024d8:	e51b3010 	ldr	r3, [fp, #-16]
200024dc:	ea000007 	b	20002500 <pbuf_coalesce+0x80>
200024e0:	e51b1010 	ldr	r1, [fp, #-16]
200024e4:	e51b0008 	ldr	r0, [fp, #-8]
200024e8:	ebfffebc 	bl	20001fe0 <pbuf_copy>
200024ec:	e1a03000 	mov	r3, r0
200024f0:	e54b3009 	strb	r3, [fp, #-9]
200024f4:	e51b0010 	ldr	r0, [fp, #-16]
200024f8:	ebfffddd 	bl	20001c74 <pbuf_free>
200024fc:	e51b3008 	ldr	r3, [fp, #-8]
20002500:	e1a00003 	mov	r0, r3
20002504:	e24bd004 	sub	sp, fp, #4
20002508:	e8bd4800 	pop	{fp, lr}
2000250c:	e12fff1e 	bx	lr

20002510 <raw_input>:
20002510:	e92d4810 	push	{r4, fp, lr}
20002514:	e28db008 	add	fp, sp, #8
20002518:	e24dd024 	sub	sp, sp, #36	; 0x24
2000251c:	e50b0028 	str	r0, [fp, #-40]	; 0xffffffd8
20002520:	e50b102c 	str	r1, [fp, #-44]	; 0xffffffd4
20002524:	e3a03000 	mov	r3, #0
20002528:	e54b3015 	strb	r3, [fp, #-21]	; 0xffffffeb
2000252c:	e51b3028 	ldr	r3, [fp, #-40]	; 0xffffffd8
20002530:	e5933004 	ldr	r3, [r3, #4]
20002534:	e50b301c 	str	r3, [fp, #-28]	; 0xffffffe4
20002538:	e51b301c 	ldr	r3, [fp, #-28]	; 0xffffffe4
2000253c:	e5d32008 	ldrb	r2, [r3, #8]
20002540:	e5d33009 	ldrb	r3, [r3, #9]
20002544:	e1a03403 	lsl	r3, r3, #8
20002548:	e1833002 	orr	r3, r3, r2
2000254c:	e1a03803 	lsl	r3, r3, #16
20002550:	e1a03823 	lsr	r3, r3, #16
20002554:	e1a00003 	mov	r0, r3
20002558:	eb002b5b 	bl	2000d2cc <ntohs>
2000255c:	e1a03000 	mov	r3, r0
20002560:	e1a03803 	lsl	r3, r3, #16
20002564:	e1a03823 	lsr	r3, r3, #16
20002568:	e20330ff 	and	r3, r3, #255	; 0xff
2000256c:	e14b31be 	strh	r3, [fp, #-30]	; 0xffffffe2
20002570:	e3a03000 	mov	r3, #0
20002574:	e50b3014 	str	r3, [fp, #-20]	; 0xffffffec
20002578:	e59f30ec 	ldr	r3, [pc, #236]	; 2000266c <raw_input+0x15c>
2000257c:	e5933000 	ldr	r3, [r3]
20002580:	e50b3010 	str	r3, [fp, #-16]
20002584:	ea00002d 	b	20002640 <raw_input+0x130>
20002588:	e51b3010 	ldr	r3, [fp, #-16]
2000258c:	e5d33010 	ldrb	r3, [r3, #16]
20002590:	e1a02003 	mov	r2, r3
20002594:	e15b31fe 	ldrsh	r3, [fp, #-30]	; 0xffffffe2
20002598:	e1520003 	cmp	r2, r3
2000259c:	1a000022 	bne	2000262c <raw_input+0x11c>
200025a0:	e51b3010 	ldr	r3, [fp, #-16]
200025a4:	e5933014 	ldr	r3, [r3, #20]
200025a8:	e3530000 	cmp	r3, #0
200025ac:	0a00001e 	beq	2000262c <raw_input+0x11c>
200025b0:	e51b3010 	ldr	r3, [fp, #-16]
200025b4:	e5934014 	ldr	r4, [r3, #20]
200025b8:	e51b3010 	ldr	r3, [fp, #-16]
200025bc:	e5930018 	ldr	r0, [r3, #24]
200025c0:	e51b301c 	ldr	r3, [fp, #-28]	; 0xffffffe4
200025c4:	e283300c 	add	r3, r3, #12
200025c8:	e51b2028 	ldr	r2, [fp, #-40]	; 0xffffffd8
200025cc:	e51b1010 	ldr	r1, [fp, #-16]
200025d0:	e1a0e00f 	mov	lr, pc
200025d4:	e12fff14 	bx	r4
200025d8:	e1a03000 	mov	r3, r0
200025dc:	e3530000 	cmp	r3, #0
200025e0:	0a000011 	beq	2000262c <raw_input+0x11c>
200025e4:	e3a03000 	mov	r3, #0
200025e8:	e50b3028 	str	r3, [fp, #-40]	; 0xffffffd8
200025ec:	e3a03001 	mov	r3, #1
200025f0:	e54b3015 	strb	r3, [fp, #-21]	; 0xffffffeb
200025f4:	e51b3014 	ldr	r3, [fp, #-20]	; 0xffffffec
200025f8:	e3530000 	cmp	r3, #0
200025fc:	0a00000a 	beq	2000262c <raw_input+0x11c>
20002600:	e51b3010 	ldr	r3, [fp, #-16]
20002604:	e593200c 	ldr	r2, [r3, #12]
20002608:	e51b3014 	ldr	r3, [fp, #-20]	; 0xffffffec
2000260c:	e583200c 	str	r2, [r3, #12]
20002610:	e59f3054 	ldr	r3, [pc, #84]	; 2000266c <raw_input+0x15c>
20002614:	e5932000 	ldr	r2, [r3]
20002618:	e51b3010 	ldr	r3, [fp, #-16]
2000261c:	e583200c 	str	r2, [r3, #12]
20002620:	e59f2044 	ldr	r2, [pc, #68]	; 2000266c <raw_input+0x15c>
20002624:	e51b3010 	ldr	r3, [fp, #-16]
20002628:	e5823000 	str	r3, [r2]
2000262c:	e51b3010 	ldr	r3, [fp, #-16]
20002630:	e50b3014 	str	r3, [fp, #-20]	; 0xffffffec
20002634:	e51b3010 	ldr	r3, [fp, #-16]
20002638:	e593300c 	ldr	r3, [r3, #12]
2000263c:	e50b3010 	str	r3, [fp, #-16]
20002640:	e55b3015 	ldrb	r3, [fp, #-21]	; 0xffffffeb
20002644:	e3530000 	cmp	r3, #0
20002648:	1a000002 	bne	20002658 <raw_input+0x148>
2000264c:	e51b3010 	ldr	r3, [fp, #-16]
20002650:	e3530000 	cmp	r3, #0
20002654:	1affffcb 	bne	20002588 <raw_input+0x78>
20002658:	e55b3015 	ldrb	r3, [fp, #-21]	; 0xffffffeb
2000265c:	e1a00003 	mov	r0, r3
20002660:	e24bd008 	sub	sp, fp, #8
20002664:	e8bd4810 	pop	{r4, fp, lr}
20002668:	e12fff1e 	bx	lr
2000266c:	20014b90 	.word	0x20014b90

20002670 <raw_bind>:
20002670:	e52db004 	push	{fp}		; (str fp, [sp, #-4]!)
20002674:	e28db000 	add	fp, sp, #0
20002678:	e24dd00c 	sub	sp, sp, #12
2000267c:	e50b0008 	str	r0, [fp, #-8]
20002680:	e50b100c 	str	r1, [fp, #-12]
20002684:	e51b300c 	ldr	r3, [fp, #-12]
20002688:	e3530000 	cmp	r3, #0
2000268c:	0a00000c 	beq	200026c4 <raw_bind+0x54>
20002690:	e51b300c 	ldr	r3, [fp, #-12]
20002694:	e5d32000 	ldrb	r2, [r3]
20002698:	e5d31001 	ldrb	r1, [r3, #1]
2000269c:	e1a01401 	lsl	r1, r1, #8
200026a0:	e1812002 	orr	r2, r1, r2
200026a4:	e5d31002 	ldrb	r1, [r3, #2]
200026a8:	e1a01801 	lsl	r1, r1, #16
200026ac:	e1812002 	orr	r2, r1, r2
200026b0:	e5d33003 	ldrb	r3, [r3, #3]
200026b4:	e1a03c03 	lsl	r3, r3, #24
200026b8:	e1833002 	orr	r3, r3, r2
200026bc:	e1a02003 	mov	r2, r3
200026c0:	ea000000 	b	200026c8 <raw_bind+0x58>
200026c4:	e3a02000 	mov	r2, #0
200026c8:	e51b3008 	ldr	r3, [fp, #-8]
200026cc:	e5832000 	str	r2, [r3]
200026d0:	e3a03000 	mov	r3, #0
200026d4:	e1a03c03 	lsl	r3, r3, #24
200026d8:	e1a03c43 	asr	r3, r3, #24
200026dc:	e1a00003 	mov	r0, r3
200026e0:	e24bd000 	sub	sp, fp, #0
200026e4:	e49db004 	pop	{fp}		; (ldr fp, [sp], #4)
200026e8:	e12fff1e 	bx	lr

200026ec <raw_connect>:
200026ec:	e52db004 	push	{fp}		; (str fp, [sp, #-4]!)
200026f0:	e28db000 	add	fp, sp, #0
200026f4:	e24dd00c 	sub	sp, sp, #12
200026f8:	e50b0008 	str	r0, [fp, #-8]
200026fc:	e50b100c 	str	r1, [fp, #-12]
20002700:	e51b300c 	ldr	r3, [fp, #-12]
20002704:	e3530000 	cmp	r3, #0
20002708:	0a00000c 	beq	20002740 <raw_connect+0x54>
2000270c:	e51b300c 	ldr	r3, [fp, #-12]
20002710:	e5d32000 	ldrb	r2, [r3]
20002714:	e5d31001 	ldrb	r1, [r3, #1]
20002718:	e1a01401 	lsl	r1, r1, #8
2000271c:	e1812002 	orr	r2, r1, r2
20002720:	e5d31002 	ldrb	r1, [r3, #2]
20002724:	e1a01801 	lsl	r1, r1, #16
20002728:	e1812002 	orr	r2, r1, r2
2000272c:	e5d33003 	ldrb	r3, [r3, #3]
20002730:	e1a03c03 	lsl	r3, r3, #24
20002734:	e1833002 	orr	r3, r3, r2
20002738:	e1a02003 	mov	r2, r3
2000273c:	ea000000 	b	20002744 <raw_connect+0x58>
20002740:	e3a02000 	mov	r2, #0
20002744:	e51b3008 	ldr	r3, [fp, #-8]
20002748:	e5832004 	str	r2, [r3, #4]
2000274c:	e3a03000 	mov	r3, #0
20002750:	e1a03c03 	lsl	r3, r3, #24
20002754:	e1a03c43 	asr	r3, r3, #24
20002758:	e1a00003 	mov	r0, r3
2000275c:	e24bd000 	sub	sp, fp, #0
20002760:	e49db004 	pop	{fp}		; (ldr fp, [sp], #4)
20002764:	e12fff1e 	bx	lr

20002768 <raw_recv>:
20002768:	e52db004 	push	{fp}		; (str fp, [sp, #-4]!)
2000276c:	e28db000 	add	fp, sp, #0
20002770:	e24dd014 	sub	sp, sp, #20
20002774:	e50b0008 	str	r0, [fp, #-8]
20002778:	e50b100c 	str	r1, [fp, #-12]
2000277c:	e50b2010 	str	r2, [fp, #-16]
20002780:	e51b3008 	ldr	r3, [fp, #-8]
20002784:	e51b200c 	ldr	r2, [fp, #-12]
20002788:	e5832014 	str	r2, [r3, #20]
2000278c:	e51b3008 	ldr	r3, [fp, #-8]
20002790:	e51b2010 	ldr	r2, [fp, #-16]
20002794:	e5832018 	str	r2, [r3, #24]
20002798:	e1a00000 	nop			; (mov r0, r0)
2000279c:	e24bd000 	sub	sp, fp, #0
200027a0:	e49db004 	pop	{fp}		; (ldr fp, [sp], #4)
200027a4:	e12fff1e 	bx	lr

200027a8 <raw_sendto>:
200027a8:	e92d4800 	push	{fp, lr}
200027ac:	e28db004 	add	fp, sp, #4
200027b0:	e24dd030 	sub	sp, sp, #48	; 0x30
200027b4:	e50b0018 	str	r0, [fp, #-24]	; 0xffffffe8
200027b8:	e50b101c 	str	r1, [fp, #-28]	; 0xffffffe4
200027bc:	e50b2020 	str	r2, [fp, #-32]	; 0xffffffe0
200027c0:	e3a01014 	mov	r1, #20
200027c4:	e51b001c 	ldr	r0, [fp, #-28]	; 0xffffffe4
200027c8:	ebfffcbf 	bl	20001acc <pbuf_header>
200027cc:	e1a03000 	mov	r3, r0
200027d0:	e3530000 	cmp	r3, #0
200027d4:	0a00000d 	beq	20002810 <raw_sendto+0x68>
200027d8:	e3a02000 	mov	r2, #0
200027dc:	e3a01000 	mov	r1, #0
200027e0:	e3a00001 	mov	r0, #1
200027e4:	ebfffb6a 	bl	20001594 <pbuf_alloc>
200027e8:	e50b000c 	str	r0, [fp, #-12]
200027ec:	e51b300c 	ldr	r3, [fp, #-12]
200027f0:	e3530000 	cmp	r3, #0
200027f4:	1a000001 	bne	20002800 <raw_sendto+0x58>
200027f8:	e3a030ff 	mov	r3, #255	; 0xff
200027fc:	ea000040 	b	20002904 <raw_sendto+0x15c>
20002800:	e51b101c 	ldr	r1, [fp, #-28]	; 0xffffffe4
20002804:	e51b000c 	ldr	r0, [fp, #-12]
20002808:	ebfffdbc 	bl	20001f00 <pbuf_chain>
2000280c:	ea000009 	b	20002838 <raw_sendto+0x90>
20002810:	e51b301c 	ldr	r3, [fp, #-28]	; 0xffffffe4
20002814:	e50b300c 	str	r3, [fp, #-12]
20002818:	e3e01013 	mvn	r1, #19
2000281c:	e51b000c 	ldr	r0, [fp, #-12]
20002820:	ebfffca9 	bl	20001acc <pbuf_header>
20002824:	e1a03000 	mov	r3, r0
20002828:	e3530000 	cmp	r3, #0
2000282c:	0a000001 	beq	20002838 <raw_sendto+0x90>
20002830:	e3a030ff 	mov	r3, #255	; 0xff
20002834:	ea000032 	b	20002904 <raw_sendto+0x15c>
20002838:	e51b0020 	ldr	r0, [fp, #-32]	; 0xffffffe0
2000283c:	eb0025da 	bl	2000bfac <ip_route>
20002840:	e50b0010 	str	r0, [fp, #-16]
20002844:	e51b3010 	ldr	r3, [fp, #-16]
20002848:	e3530000 	cmp	r3, #0
2000284c:	1a000007 	bne	20002870 <raw_sendto+0xc8>
20002850:	e51b200c 	ldr	r2, [fp, #-12]
20002854:	e51b301c 	ldr	r3, [fp, #-28]	; 0xffffffe4
20002858:	e1520003 	cmp	r2, r3
2000285c:	0a000001 	beq	20002868 <raw_sendto+0xc0>
20002860:	e51b000c 	ldr	r0, [fp, #-12]
20002864:	ebfffd02 	bl	20001c74 <pbuf_free>
20002868:	e3a030fc 	mov	r3, #252	; 0xfc
2000286c:	ea000024 	b	20002904 <raw_sendto+0x15c>
20002870:	e51b3018 	ldr	r3, [fp, #-24]	; 0xffffffe8
20002874:	e3530000 	cmp	r3, #0
20002878:	0a000003 	beq	2000288c <raw_sendto+0xe4>
2000287c:	e51b3018 	ldr	r3, [fp, #-24]	; 0xffffffe8
20002880:	e5933000 	ldr	r3, [r3]
20002884:	e3530000 	cmp	r3, #0
20002888:	1a000003 	bne	2000289c <raw_sendto+0xf4>
2000288c:	e51b3010 	ldr	r3, [fp, #-16]
20002890:	e2833004 	add	r3, r3, #4
20002894:	e50b3008 	str	r3, [fp, #-8]
20002898:	ea000001 	b	200028a4 <raw_sendto+0xfc>
2000289c:	e51b3018 	ldr	r3, [fp, #-24]	; 0xffffffe8
200028a0:	e50b3008 	str	r3, [fp, #-8]
200028a4:	e51b3018 	ldr	r3, [fp, #-24]	; 0xffffffe8
200028a8:	e5d3000b 	ldrb	r0, [r3, #11]
200028ac:	e51b3018 	ldr	r3, [fp, #-24]	; 0xffffffe8
200028b0:	e5d3300a 	ldrb	r3, [r3, #10]
200028b4:	e51b2018 	ldr	r2, [fp, #-24]	; 0xffffffe8
200028b8:	e5d22010 	ldrb	r2, [r2, #16]
200028bc:	e51b1010 	ldr	r1, [fp, #-16]
200028c0:	e58d1008 	str	r1, [sp, #8]
200028c4:	e58d2004 	str	r2, [sp, #4]
200028c8:	e58d3000 	str	r3, [sp]
200028cc:	e1a03000 	mov	r3, r0
200028d0:	e51b2020 	ldr	r2, [fp, #-32]	; 0xffffffe0
200028d4:	e51b1008 	ldr	r1, [fp, #-8]
200028d8:	e51b000c 	ldr	r0, [fp, #-12]
200028dc:	eb002775 	bl	2000c6b8 <ip_output_if>
200028e0:	e1a03000 	mov	r3, r0
200028e4:	e54b3011 	strb	r3, [fp, #-17]	; 0xffffffef
200028e8:	e51b200c 	ldr	r2, [fp, #-12]
200028ec:	e51b301c 	ldr	r3, [fp, #-28]	; 0xffffffe4
200028f0:	e1520003 	cmp	r2, r3
200028f4:	0a000001 	beq	20002900 <raw_sendto+0x158>
200028f8:	e51b000c 	ldr	r0, [fp, #-12]
200028fc:	ebfffcdc 	bl	20001c74 <pbuf_free>
20002900:	e55b3011 	ldrb	r3, [fp, #-17]	; 0xffffffef
20002904:	e1a03c03 	lsl	r3, r3, #24
20002908:	e1a03c43 	asr	r3, r3, #24
2000290c:	e1a00003 	mov	r0, r3
20002910:	e24bd004 	sub	sp, fp, #4
20002914:	e8bd4800 	pop	{fp, lr}
20002918:	e12fff1e 	bx	lr

2000291c <raw_send>:
2000291c:	e92d4800 	push	{fp, lr}
20002920:	e28db004 	add	fp, sp, #4
20002924:	e24dd008 	sub	sp, sp, #8
20002928:	e50b0008 	str	r0, [fp, #-8]
2000292c:	e50b100c 	str	r1, [fp, #-12]
20002930:	e51b3008 	ldr	r3, [fp, #-8]
20002934:	e2833004 	add	r3, r3, #4
20002938:	e1a02003 	mov	r2, r3
2000293c:	e51b100c 	ldr	r1, [fp, #-12]
20002940:	e51b0008 	ldr	r0, [fp, #-8]
20002944:	ebffff97 	bl	200027a8 <raw_sendto>
20002948:	e1a03000 	mov	r3, r0
2000294c:	e1a00003 	mov	r0, r3
20002950:	e24bd004 	sub	sp, fp, #4
20002954:	e8bd4800 	pop	{fp, lr}
20002958:	e12fff1e 	bx	lr

2000295c <raw_remove>:
2000295c:	e92d4800 	push	{fp, lr}
20002960:	e28db004 	add	fp, sp, #4
20002964:	e24dd010 	sub	sp, sp, #16
20002968:	e50b0010 	str	r0, [fp, #-16]
2000296c:	e59f309c 	ldr	r3, [pc, #156]	; 20002a10 <raw_remove+0xb4>
20002970:	e5932000 	ldr	r2, [r3]
20002974:	e51b3010 	ldr	r3, [fp, #-16]
20002978:	e1520003 	cmp	r2, r3
2000297c:	1a000005 	bne	20002998 <raw_remove+0x3c>
20002980:	e59f3088 	ldr	r3, [pc, #136]	; 20002a10 <raw_remove+0xb4>
20002984:	e5933000 	ldr	r3, [r3]
20002988:	e593300c 	ldr	r3, [r3, #12]
2000298c:	e59f207c 	ldr	r2, [pc, #124]	; 20002a10 <raw_remove+0xb4>
20002990:	e5823000 	str	r3, [r2]
20002994:	ea000016 	b	200029f4 <raw_remove+0x98>
20002998:	e59f3070 	ldr	r3, [pc, #112]	; 20002a10 <raw_remove+0xb4>
2000299c:	e5933000 	ldr	r3, [r3]
200029a0:	e50b3008 	str	r3, [fp, #-8]
200029a4:	ea00000f 	b	200029e8 <raw_remove+0x8c>
200029a8:	e51b3008 	ldr	r3, [fp, #-8]
200029ac:	e593300c 	ldr	r3, [r3, #12]
200029b0:	e3530000 	cmp	r3, #0
200029b4:	0a000008 	beq	200029dc <raw_remove+0x80>
200029b8:	e51b3008 	ldr	r3, [fp, #-8]
200029bc:	e593200c 	ldr	r2, [r3, #12]
200029c0:	e51b3010 	ldr	r3, [fp, #-16]
200029c4:	e1520003 	cmp	r2, r3
200029c8:	1a000003 	bne	200029dc <raw_remove+0x80>
200029cc:	e51b3010 	ldr	r3, [fp, #-16]
200029d0:	e593200c 	ldr	r2, [r3, #12]
200029d4:	e51b3008 	ldr	r3, [fp, #-8]
200029d8:	e583200c 	str	r2, [r3, #12]
200029dc:	e51b3008 	ldr	r3, [fp, #-8]
200029e0:	e593300c 	ldr	r3, [r3, #12]
200029e4:	e50b3008 	str	r3, [fp, #-8]
200029e8:	e51b3008 	ldr	r3, [fp, #-8]
200029ec:	e3530000 	cmp	r3, #0
200029f0:	1affffec 	bne	200029a8 <raw_remove+0x4c>
200029f4:	e51b1010 	ldr	r1, [fp, #-16]
200029f8:	e3a00000 	mov	r0, #0
200029fc:	ebfff906 	bl	20000e1c <memp_free>
20002a00:	e1a00000 	nop			; (mov r0, r0)
20002a04:	e24bd004 	sub	sp, fp, #4
20002a08:	e8bd4800 	pop	{fp, lr}
20002a0c:	e12fff1e 	bx	lr
20002a10:	20014b90 	.word	0x20014b90

20002a14 <raw_new>:
20002a14:	e92d4800 	push	{fp, lr}
20002a18:	e28db004 	add	fp, sp, #4
20002a1c:	e24dd010 	sub	sp, sp, #16
20002a20:	e1a03000 	mov	r3, r0
20002a24:	e54b300d 	strb	r3, [fp, #-13]
20002a28:	e3a00000 	mov	r0, #0
20002a2c:	ebfff88e 	bl	20000c6c <memp_malloc>
20002a30:	e50b0008 	str	r0, [fp, #-8]
20002a34:	e51b3008 	ldr	r3, [fp, #-8]
20002a38:	e3530000 	cmp	r3, #0
20002a3c:	0a000010 	beq	20002a84 <raw_new+0x70>
20002a40:	e3a0201c 	mov	r2, #28
20002a44:	e3a01000 	mov	r1, #0
20002a48:	e51b0008 	ldr	r0, [fp, #-8]
20002a4c:	eb00449a 	bl	20013cbc <memset>
20002a50:	e51b3008 	ldr	r3, [fp, #-8]
20002a54:	e55b200d 	ldrb	r2, [fp, #-13]
20002a58:	e5c32010 	strb	r2, [r3, #16]
20002a5c:	e51b3008 	ldr	r3, [fp, #-8]
20002a60:	e3e02000 	mvn	r2, #0
20002a64:	e5c3200b 	strb	r2, [r3, #11]
20002a68:	e59f3028 	ldr	r3, [pc, #40]	; 20002a98 <raw_new+0x84>
20002a6c:	e5932000 	ldr	r2, [r3]
20002a70:	e51b3008 	ldr	r3, [fp, #-8]
20002a74:	e583200c 	str	r2, [r3, #12]
20002a78:	e59f2018 	ldr	r2, [pc, #24]	; 20002a98 <raw_new+0x84>
20002a7c:	e51b3008 	ldr	r3, [fp, #-8]
20002a80:	e5823000 	str	r3, [r2]
20002a84:	e51b3008 	ldr	r3, [fp, #-8]
20002a88:	e1a00003 	mov	r0, r3
20002a8c:	e24bd004 	sub	sp, fp, #4
20002a90:	e8bd4800 	pop	{fp, lr}
20002a94:	e12fff1e 	bx	lr
20002a98:	20014b90 	.word	0x20014b90

20002a9c <tcp_tmr>:
20002a9c:	e92d4800 	push	{fp, lr}
20002aa0:	e28db004 	add	fp, sp, #4
20002aa4:	eb0005bf 	bl	200041a8 <tcp_fasttmr>
20002aa8:	e59f3038 	ldr	r3, [pc, #56]	; 20002ae8 <tcp_tmr+0x4c>
20002aac:	e5d33000 	ldrb	r3, [r3]
20002ab0:	e2833001 	add	r3, r3, #1
20002ab4:	e20320ff 	and	r2, r3, #255	; 0xff
20002ab8:	e59f3028 	ldr	r3, [pc, #40]	; 20002ae8 <tcp_tmr+0x4c>
20002abc:	e5c32000 	strb	r2, [r3]
20002ac0:	e59f3020 	ldr	r3, [pc, #32]	; 20002ae8 <tcp_tmr+0x4c>
20002ac4:	e5d33000 	ldrb	r3, [r3]
20002ac8:	e2033001 	and	r3, r3, #1
20002acc:	e3530000 	cmp	r3, #0
20002ad0:	0a000000 	beq	20002ad8 <tcp_tmr+0x3c>
20002ad4:	eb0003f5 	bl	20003ab0 <tcp_slowtmr>
20002ad8:	e1a00000 	nop			; (mov r0, r0)
20002adc:	e24bd004 	sub	sp, fp, #4
20002ae0:	e8bd4800 	pop	{fp, lr}
20002ae4:	e12fff1e 	bx	lr
20002ae8:	20014b94 	.word	0x20014b94

20002aec <tcp_close>:
20002aec:	e92d4800 	push	{fp, lr}
20002af0:	e28db004 	add	fp, sp, #4
20002af4:	e24dd010 	sub	sp, sp, #16
20002af8:	e50b0010 	str	r0, [fp, #-16]
20002afc:	e51b3010 	ldr	r3, [fp, #-16]
20002b00:	e5d33010 	ldrb	r3, [r3, #16]
20002b04:	e3530007 	cmp	r3, #7
20002b08:	979ff103 	ldrls	pc, [pc, r3, lsl #2]
20002b0c:	ea000071 	b	20002cd8 <tcp_close+0x1ec>
20002b10:	20002b30 	.word	0x20002b30
20002b14:	20002bf0 	.word	0x20002bf0
20002b18:	20002c1c 	.word	0x20002c1c
20002b1c:	20002c48 	.word	0x20002c48
20002b20:	20002c78 	.word	0x20002c78
20002b24:	20002cd8 	.word	0x20002cd8
20002b28:	20002cd8 	.word	0x20002cd8
20002b2c:	20002ca8 	.word	0x20002ca8
20002b30:	e3a03000 	mov	r3, #0
20002b34:	e54b3005 	strb	r3, [fp, #-5]
20002b38:	e59f31fc 	ldr	r3, [pc, #508]	; 20002d3c <tcp_close+0x250>
20002b3c:	e5932000 	ldr	r2, [r3]
20002b40:	e51b3010 	ldr	r3, [fp, #-16]
20002b44:	e1520003 	cmp	r2, r3
20002b48:	1a000005 	bne	20002b64 <tcp_close+0x78>
20002b4c:	e59f31e8 	ldr	r3, [pc, #488]	; 20002d3c <tcp_close+0x250>
20002b50:	e5933000 	ldr	r3, [r3]
20002b54:	e593300c 	ldr	r3, [r3, #12]
20002b58:	e59f21dc 	ldr	r2, [pc, #476]	; 20002d3c <tcp_close+0x250>
20002b5c:	e5823000 	str	r3, [r2]
20002b60:	ea000019 	b	20002bcc <tcp_close+0xe0>
20002b64:	e59f31d0 	ldr	r3, [pc, #464]	; 20002d3c <tcp_close+0x250>
20002b68:	e5933000 	ldr	r3, [r3]
20002b6c:	e59f21cc 	ldr	r2, [pc, #460]	; 20002d40 <tcp_close+0x254>
20002b70:	e5823000 	str	r3, [r2]
20002b74:	ea000010 	b	20002bbc <tcp_close+0xd0>
20002b78:	e59f31c0 	ldr	r3, [pc, #448]	; 20002d40 <tcp_close+0x254>
20002b7c:	e5933000 	ldr	r3, [r3]
20002b80:	e593200c 	ldr	r2, [r3, #12]
20002b84:	e51b3010 	ldr	r3, [fp, #-16]
20002b88:	e1520003 	cmp	r2, r3
20002b8c:	1a000005 	bne	20002ba8 <tcp_close+0xbc>
20002b90:	e59f31a8 	ldr	r3, [pc, #424]	; 20002d40 <tcp_close+0x254>
20002b94:	e5933000 	ldr	r3, [r3]
20002b98:	e51b2010 	ldr	r2, [fp, #-16]
20002b9c:	e592200c 	ldr	r2, [r2, #12]
20002ba0:	e583200c 	str	r2, [r3, #12]
20002ba4:	ea000008 	b	20002bcc <tcp_close+0xe0>
20002ba8:	e59f3190 	ldr	r3, [pc, #400]	; 20002d40 <tcp_close+0x254>
20002bac:	e5933000 	ldr	r3, [r3]
20002bb0:	e593300c 	ldr	r3, [r3, #12]
20002bb4:	e59f2184 	ldr	r2, [pc, #388]	; 20002d40 <tcp_close+0x254>
20002bb8:	e5823000 	str	r3, [r2]
20002bbc:	e59f317c 	ldr	r3, [pc, #380]	; 20002d40 <tcp_close+0x254>
20002bc0:	e5933000 	ldr	r3, [r3]
20002bc4:	e3530000 	cmp	r3, #0
20002bc8:	1affffea 	bne	20002b78 <tcp_close+0x8c>
20002bcc:	e51b3010 	ldr	r3, [fp, #-16]
20002bd0:	e3a02000 	mov	r2, #0
20002bd4:	e583200c 	str	r2, [r3, #12]
20002bd8:	e51b1010 	ldr	r1, [fp, #-16]
20002bdc:	e3a00002 	mov	r0, #2
20002be0:	ebfff88d 	bl	20000e1c <memp_free>
20002be4:	e3a03000 	mov	r3, #0
20002be8:	e50b3010 	str	r3, [fp, #-16]
20002bec:	ea000043 	b	20002d00 <tcp_close+0x214>
20002bf0:	e3a03000 	mov	r3, #0
20002bf4:	e54b3005 	strb	r3, [fp, #-5]
20002bf8:	e51b1010 	ldr	r1, [fp, #-16]
20002bfc:	e59f0140 	ldr	r0, [pc, #320]	; 20002d44 <tcp_close+0x258>
20002c00:	eb000783 	bl	20004a14 <tcp_pcb_remove>
20002c04:	e51b1010 	ldr	r1, [fp, #-16]
20002c08:	e3a00003 	mov	r0, #3
20002c0c:	ebfff882 	bl	20000e1c <memp_free>
20002c10:	e3a03000 	mov	r3, #0
20002c14:	e50b3010 	str	r3, [fp, #-16]
20002c18:	ea000038 	b	20002d00 <tcp_close+0x214>
20002c1c:	e3a03000 	mov	r3, #0
20002c20:	e54b3005 	strb	r3, [fp, #-5]
20002c24:	e51b1010 	ldr	r1, [fp, #-16]
20002c28:	e59f0118 	ldr	r0, [pc, #280]	; 20002d48 <tcp_close+0x25c>
20002c2c:	eb000778 	bl	20004a14 <tcp_pcb_remove>
20002c30:	e51b1010 	ldr	r1, [fp, #-16]
20002c34:	e3a00002 	mov	r0, #2
20002c38:	ebfff877 	bl	20000e1c <memp_free>
20002c3c:	e3a03000 	mov	r3, #0
20002c40:	e50b3010 	str	r3, [fp, #-16]
20002c44:	ea00002d 	b	20002d00 <tcp_close+0x214>
20002c48:	e3a01001 	mov	r1, #1
20002c4c:	e51b0010 	ldr	r0, [fp, #-16]
20002c50:	eb0015d6 	bl	200083b0 <tcp_send_ctrl>
20002c54:	e1a03000 	mov	r3, r0
20002c58:	e54b3005 	strb	r3, [fp, #-5]
20002c5c:	e15b30d5 	ldrsb	r3, [fp, #-5]
20002c60:	e3530000 	cmp	r3, #0
20002c64:	1a000020 	bne	20002cec <tcp_close+0x200>
20002c68:	e51b3010 	ldr	r3, [fp, #-16]
20002c6c:	e3a02005 	mov	r2, #5
20002c70:	e5c32010 	strb	r2, [r3, #16]
20002c74:	ea00001c 	b	20002cec <tcp_close+0x200>
20002c78:	e3a01001 	mov	r1, #1
20002c7c:	e51b0010 	ldr	r0, [fp, #-16]
20002c80:	eb0015ca 	bl	200083b0 <tcp_send_ctrl>
20002c84:	e1a03000 	mov	r3, r0
20002c88:	e54b3005 	strb	r3, [fp, #-5]
20002c8c:	e15b30d5 	ldrsb	r3, [fp, #-5]
20002c90:	e3530000 	cmp	r3, #0
20002c94:	1a000016 	bne	20002cf4 <tcp_close+0x208>
20002c98:	e51b3010 	ldr	r3, [fp, #-16]
20002c9c:	e3a02005 	mov	r2, #5
20002ca0:	e5c32010 	strb	r2, [r3, #16]
20002ca4:	ea000012 	b	20002cf4 <tcp_close+0x208>
20002ca8:	e3a01001 	mov	r1, #1
20002cac:	e51b0010 	ldr	r0, [fp, #-16]
20002cb0:	eb0015be 	bl	200083b0 <tcp_send_ctrl>
20002cb4:	e1a03000 	mov	r3, r0
20002cb8:	e54b3005 	strb	r3, [fp, #-5]
20002cbc:	e15b30d5 	ldrsb	r3, [fp, #-5]
20002cc0:	e3530000 	cmp	r3, #0
20002cc4:	1a00000c 	bne	20002cfc <tcp_close+0x210>
20002cc8:	e51b3010 	ldr	r3, [fp, #-16]
20002ccc:	e3a02009 	mov	r2, #9
20002cd0:	e5c32010 	strb	r2, [r3, #16]
20002cd4:	ea000008 	b	20002cfc <tcp_close+0x210>
20002cd8:	e3a03000 	mov	r3, #0
20002cdc:	e54b3005 	strb	r3, [fp, #-5]
20002ce0:	e3a03000 	mov	r3, #0
20002ce4:	e50b3010 	str	r3, [fp, #-16]
20002ce8:	ea000004 	b	20002d00 <tcp_close+0x214>
20002cec:	e1a00000 	nop			; (mov r0, r0)
20002cf0:	ea000002 	b	20002d00 <tcp_close+0x214>
20002cf4:	e1a00000 	nop			; (mov r0, r0)
20002cf8:	ea000000 	b	20002d00 <tcp_close+0x214>
20002cfc:	e1a00000 	nop			; (mov r0, r0)
20002d00:	e51b3010 	ldr	r3, [fp, #-16]
20002d04:	e3530000 	cmp	r3, #0
20002d08:	0a000004 	beq	20002d20 <tcp_close+0x234>
20002d0c:	e15b30d5 	ldrsb	r3, [fp, #-5]
20002d10:	e3530000 	cmp	r3, #0
20002d14:	1a000001 	bne	20002d20 <tcp_close+0x234>
20002d18:	e51b0010 	ldr	r0, [fp, #-16]
20002d1c:	eb001969 	bl	200092c8 <tcp_output>
20002d20:	e55b3005 	ldrb	r3, [fp, #-5]
20002d24:	e1a03c03 	lsl	r3, r3, #24
20002d28:	e1a03c43 	asr	r3, r3, #24
20002d2c:	e1a00003 	mov	r0, r3
20002d30:	e24bd004 	sub	sp, fp, #4
20002d34:	e8bd4800 	pop	{fp, lr}
20002d38:	e12fff1e 	bx	lr
20002d3c:	20015758 	.word	0x20015758
20002d40:	20015754 	.word	0x20015754
20002d44:	20015750 	.word	0x20015750
20002d48:	20015748 	.word	0x20015748

20002d4c <tcp_abandon>:
20002d4c:	e92d4800 	push	{fp, lr}
20002d50:	e28db004 	add	fp, sp, #4
20002d54:	e24dd030 	sub	sp, sp, #48	; 0x30
20002d58:	e50b0028 	str	r0, [fp, #-40]	; 0xffffffd8
20002d5c:	e50b102c 	str	r1, [fp, #-44]	; 0xffffffd4
20002d60:	e51b3028 	ldr	r3, [fp, #-40]	; 0xffffffd8
20002d64:	e5d33010 	ldrb	r3, [r3, #16]
20002d68:	e353000a 	cmp	r3, #10
20002d6c:	1a000006 	bne	20002d8c <tcp_abandon+0x40>
20002d70:	e51b1028 	ldr	r1, [fp, #-40]	; 0xffffffd8
20002d74:	e59f0158 	ldr	r0, [pc, #344]	; 20002ed4 <tcp_abandon+0x188>
20002d78:	eb000725 	bl	20004a14 <tcp_pcb_remove>
20002d7c:	e51b1028 	ldr	r1, [fp, #-40]	; 0xffffffd8
20002d80:	e3a00002 	mov	r0, #2
20002d84:	ebfff824 	bl	20000e1c <memp_free>
20002d88:	ea00004d 	b	20002ec4 <tcp_abandon+0x178>
20002d8c:	e51b3028 	ldr	r3, [fp, #-40]	; 0xffffffd8
20002d90:	e5933058 	ldr	r3, [r3, #88]	; 0x58
20002d94:	e50b3008 	str	r3, [fp, #-8]
20002d98:	e51b3028 	ldr	r3, [fp, #-40]	; 0xffffffd8
20002d9c:	e5933024 	ldr	r3, [r3, #36]	; 0x24
20002da0:	e50b300c 	str	r3, [fp, #-12]
20002da4:	e51b3028 	ldr	r3, [fp, #-40]	; 0xffffffd8
20002da8:	e3530000 	cmp	r3, #0
20002dac:	0a000002 	beq	20002dbc <tcp_abandon+0x70>
20002db0:	e51b3028 	ldr	r3, [fp, #-40]	; 0xffffffd8
20002db4:	e5933000 	ldr	r3, [r3]
20002db8:	ea000000 	b	20002dc0 <tcp_abandon+0x74>
20002dbc:	e3a03000 	mov	r3, #0
20002dc0:	e50b3020 	str	r3, [fp, #-32]	; 0xffffffe0
20002dc4:	e51b3028 	ldr	r3, [fp, #-40]	; 0xffffffd8
20002dc8:	e2833004 	add	r3, r3, #4
20002dcc:	e3530000 	cmp	r3, #0
20002dd0:	0a000002 	beq	20002de0 <tcp_abandon+0x94>
20002dd4:	e51b3028 	ldr	r3, [fp, #-40]	; 0xffffffd8
20002dd8:	e5933004 	ldr	r3, [r3, #4]
20002ddc:	ea000000 	b	20002de4 <tcp_abandon+0x98>
20002de0:	e3a03000 	mov	r3, #0
20002de4:	e50b301c 	str	r3, [fp, #-28]	; 0xffffffe4
20002de8:	e51b3028 	ldr	r3, [fp, #-40]	; 0xffffffd8
20002dec:	e1d331b8 	ldrh	r3, [r3, #24]
20002df0:	e14b30be 	strh	r3, [fp, #-14]
20002df4:	e51b3028 	ldr	r3, [fp, #-40]	; 0xffffffd8
20002df8:	e1d332b0 	ldrh	r3, [r3, #32]
20002dfc:	e14b31b0 	strh	r3, [fp, #-16]
20002e00:	e51b3028 	ldr	r3, [fp, #-40]	; 0xffffffd8
20002e04:	e5933090 	ldr	r3, [r3, #144]	; 0x90
20002e08:	e50b3014 	str	r3, [fp, #-20]	; 0xffffffec
20002e0c:	e51b3028 	ldr	r3, [fp, #-40]	; 0xffffffd8
20002e10:	e5933014 	ldr	r3, [r3, #20]
20002e14:	e50b3018 	str	r3, [fp, #-24]	; 0xffffffe8
20002e18:	e51b1028 	ldr	r1, [fp, #-40]	; 0xffffffd8
20002e1c:	e59f00b4 	ldr	r0, [pc, #180]	; 20002ed8 <tcp_abandon+0x18c>
20002e20:	eb0006fb 	bl	20004a14 <tcp_pcb_remove>
20002e24:	e51b3028 	ldr	r3, [fp, #-40]	; 0xffffffd8
20002e28:	e5933078 	ldr	r3, [r3, #120]	; 0x78
20002e2c:	e3530000 	cmp	r3, #0
20002e30:	0a000003 	beq	20002e44 <tcp_abandon+0xf8>
20002e34:	e51b3028 	ldr	r3, [fp, #-40]	; 0xffffffd8
20002e38:	e5933078 	ldr	r3, [r3, #120]	; 0x78
20002e3c:	e1a00003 	mov	r0, r3
20002e40:	eb000520 	bl	200042c8 <tcp_segs_free>
20002e44:	e51b3028 	ldr	r3, [fp, #-40]	; 0xffffffd8
20002e48:	e5933074 	ldr	r3, [r3, #116]	; 0x74
20002e4c:	e3530000 	cmp	r3, #0
20002e50:	0a000003 	beq	20002e64 <tcp_abandon+0x118>
20002e54:	e51b3028 	ldr	r3, [fp, #-40]	; 0xffffffd8
20002e58:	e5933074 	ldr	r3, [r3, #116]	; 0x74
20002e5c:	e1a00003 	mov	r0, r3
20002e60:	eb000518 	bl	200042c8 <tcp_segs_free>
20002e64:	e51b1028 	ldr	r1, [fp, #-40]	; 0xffffffd8
20002e68:	e3a00002 	mov	r0, #2
20002e6c:	ebfff7ea 	bl	20000e1c <memp_free>
20002e70:	e51b3014 	ldr	r3, [fp, #-20]	; 0xffffffec
20002e74:	e3530000 	cmp	r3, #0
20002e78:	0a000004 	beq	20002e90 <tcp_abandon+0x144>
20002e7c:	e51b3014 	ldr	r3, [fp, #-20]	; 0xffffffec
20002e80:	e3e01004 	mvn	r1, #4
20002e84:	e51b0018 	ldr	r0, [fp, #-24]	; 0xffffffe8
20002e88:	e1a0e00f 	mov	lr, pc
20002e8c:	e12fff13 	bx	r3
20002e90:	e51b302c 	ldr	r3, [fp, #-44]	; 0xffffffd4
20002e94:	e3530000 	cmp	r3, #0
20002e98:	0a000009 	beq	20002ec4 <tcp_abandon+0x178>
20002e9c:	e24b101c 	sub	r1, fp, #28
20002ea0:	e24b2020 	sub	r2, fp, #32
20002ea4:	e15b31b0 	ldrh	r3, [fp, #-16]
20002ea8:	e58d3004 	str	r3, [sp, #4]
20002eac:	e15b30be 	ldrh	r3, [fp, #-14]
20002eb0:	e58d3000 	str	r3, [sp]
20002eb4:	e1a03001 	mov	r3, r1
20002eb8:	e51b100c 	ldr	r1, [fp, #-12]
20002ebc:	e51b0008 	ldr	r0, [fp, #-8]
20002ec0:	eb001b86 	bl	20009ce0 <tcp_rst>
20002ec4:	e1a00000 	nop			; (mov r0, r0)
20002ec8:	e24bd004 	sub	sp, fp, #4
20002ecc:	e8bd4800 	pop	{fp, lr}
20002ed0:	e12fff1e 	bx	lr
20002ed4:	2001575c 	.word	0x2001575c
20002ed8:	20015748 	.word	0x20015748

20002edc <tcp_bind>:
20002edc:	e92d4800 	push	{fp, lr}
20002ee0:	e28db004 	add	fp, sp, #4
20002ee4:	e24dd018 	sub	sp, sp, #24
20002ee8:	e50b0010 	str	r0, [fp, #-16]
20002eec:	e50b1014 	str	r1, [fp, #-20]	; 0xffffffec
20002ef0:	e1a03002 	mov	r3, r2
20002ef4:	e14b31b6 	strh	r3, [fp, #-22]	; 0xffffffea
20002ef8:	e51b3010 	ldr	r3, [fp, #-16]
20002efc:	e5d33010 	ldrb	r3, [r3, #16]
20002f00:	e3530000 	cmp	r3, #0
20002f04:	0a000001 	beq	20002f10 <tcp_bind+0x34>
20002f08:	e3a030f3 	mov	r3, #243	; 0xf3
20002f0c:	ea0000ec 	b	200032c4 <tcp_bind+0x3e8>
20002f10:	e15b31b6 	ldrh	r3, [fp, #-22]	; 0xffffffea
20002f14:	e3530000 	cmp	r3, #0
20002f18:	1a000002 	bne	20002f28 <tcp_bind+0x4c>
20002f1c:	eb0001e6 	bl	200036bc <tcp_new_port>
20002f20:	e1a03000 	mov	r3, r0
20002f24:	e14b31b6 	strh	r3, [fp, #-22]	; 0xffffffea
20002f28:	e59f33ac 	ldr	r3, [pc, #940]	; 200032dc <tcp_bind+0x400>
20002f2c:	e5933000 	ldr	r3, [r3]
20002f30:	e50b3008 	str	r3, [fp, #-8]
20002f34:	ea00002f 	b	20002ff8 <tcp_bind+0x11c>
20002f38:	e51b3008 	ldr	r3, [fp, #-8]
20002f3c:	e1d331b8 	ldrh	r3, [r3, #24]
20002f40:	e15b21b6 	ldrh	r2, [fp, #-22]	; 0xffffffea
20002f44:	e1520003 	cmp	r2, r3
20002f48:	1a000027 	bne	20002fec <tcp_bind+0x110>
20002f4c:	e51b3008 	ldr	r3, [fp, #-8]
20002f50:	e3530000 	cmp	r3, #0
20002f54:	0a000022 	beq	20002fe4 <tcp_bind+0x108>
20002f58:	e51b3008 	ldr	r3, [fp, #-8]
20002f5c:	e5933000 	ldr	r3, [r3]
20002f60:	e3530000 	cmp	r3, #0
20002f64:	0a00001e 	beq	20002fe4 <tcp_bind+0x108>
20002f68:	e51b3014 	ldr	r3, [fp, #-20]	; 0xffffffec
20002f6c:	e3530000 	cmp	r3, #0
20002f70:	0a00001b 	beq	20002fe4 <tcp_bind+0x108>
20002f74:	e51b3014 	ldr	r3, [fp, #-20]	; 0xffffffec
20002f78:	e5d32000 	ldrb	r2, [r3]
20002f7c:	e5d31001 	ldrb	r1, [r3, #1]
20002f80:	e1a01401 	lsl	r1, r1, #8
20002f84:	e1812002 	orr	r2, r1, r2
20002f88:	e5d31002 	ldrb	r1, [r3, #2]
20002f8c:	e1a01801 	lsl	r1, r1, #16
20002f90:	e1812002 	orr	r2, r1, r2
20002f94:	e5d33003 	ldrb	r3, [r3, #3]
20002f98:	e1a03c03 	lsl	r3, r3, #24
20002f9c:	e1833002 	orr	r3, r3, r2
20002fa0:	e3530000 	cmp	r3, #0
20002fa4:	0a00000e 	beq	20002fe4 <tcp_bind+0x108>
20002fa8:	e51b3008 	ldr	r3, [fp, #-8]
20002fac:	e5932000 	ldr	r2, [r3]
20002fb0:	e51b3014 	ldr	r3, [fp, #-20]	; 0xffffffec
20002fb4:	e5d31000 	ldrb	r1, [r3]
20002fb8:	e5d30001 	ldrb	r0, [r3, #1]
20002fbc:	e1a00400 	lsl	r0, r0, #8
20002fc0:	e1801001 	orr	r1, r0, r1
20002fc4:	e5d30002 	ldrb	r0, [r3, #2]
20002fc8:	e1a00800 	lsl	r0, r0, #16
20002fcc:	e1801001 	orr	r1, r0, r1
20002fd0:	e5d33003 	ldrb	r3, [r3, #3]
20002fd4:	e1a03c03 	lsl	r3, r3, #24
20002fd8:	e1833001 	orr	r3, r3, r1
20002fdc:	e1520003 	cmp	r2, r3
20002fe0:	1a000001 	bne	20002fec <tcp_bind+0x110>
20002fe4:	e3a030f5 	mov	r3, #245	; 0xf5
20002fe8:	ea0000b5 	b	200032c4 <tcp_bind+0x3e8>
20002fec:	e51b3008 	ldr	r3, [fp, #-8]
20002ff0:	e593300c 	ldr	r3, [r3, #12]
20002ff4:	e50b3008 	str	r3, [fp, #-8]
20002ff8:	e51b3008 	ldr	r3, [fp, #-8]
20002ffc:	e3530000 	cmp	r3, #0
20003000:	1affffcc 	bne	20002f38 <tcp_bind+0x5c>
20003004:	e59f32d4 	ldr	r3, [pc, #724]	; 200032e0 <tcp_bind+0x404>
20003008:	e5933000 	ldr	r3, [r3]
2000300c:	e50b3008 	str	r3, [fp, #-8]
20003010:	ea00002f 	b	200030d4 <tcp_bind+0x1f8>
20003014:	e51b3008 	ldr	r3, [fp, #-8]
20003018:	e1d331b8 	ldrh	r3, [r3, #24]
2000301c:	e15b21b6 	ldrh	r2, [fp, #-22]	; 0xffffffea
20003020:	e1520003 	cmp	r2, r3
20003024:	1a000027 	bne	200030c8 <tcp_bind+0x1ec>
20003028:	e51b3008 	ldr	r3, [fp, #-8]
2000302c:	e3530000 	cmp	r3, #0
20003030:	0a000022 	beq	200030c0 <tcp_bind+0x1e4>
20003034:	e51b3008 	ldr	r3, [fp, #-8]
20003038:	e5933000 	ldr	r3, [r3]
2000303c:	e3530000 	cmp	r3, #0
20003040:	0a00001e 	beq	200030c0 <tcp_bind+0x1e4>
20003044:	e51b3014 	ldr	r3, [fp, #-20]	; 0xffffffec
20003048:	e3530000 	cmp	r3, #0
2000304c:	0a00001b 	beq	200030c0 <tcp_bind+0x1e4>
20003050:	e51b3014 	ldr	r3, [fp, #-20]	; 0xffffffec
20003054:	e5d32000 	ldrb	r2, [r3]
20003058:	e5d31001 	ldrb	r1, [r3, #1]
2000305c:	e1a01401 	lsl	r1, r1, #8
20003060:	e1812002 	orr	r2, r1, r2
20003064:	e5d31002 	ldrb	r1, [r3, #2]
20003068:	e1a01801 	lsl	r1, r1, #16
2000306c:	e1812002 	orr	r2, r1, r2
20003070:	e5d33003 	ldrb	r3, [r3, #3]
20003074:	e1a03c03 	lsl	r3, r3, #24
20003078:	e1833002 	orr	r3, r3, r2
2000307c:	e3530000 	cmp	r3, #0
20003080:	0a00000e 	beq	200030c0 <tcp_bind+0x1e4>
20003084:	e51b3008 	ldr	r3, [fp, #-8]
20003088:	e5932000 	ldr	r2, [r3]
2000308c:	e51b3014 	ldr	r3, [fp, #-20]	; 0xffffffec
20003090:	e5d31000 	ldrb	r1, [r3]
20003094:	e5d30001 	ldrb	r0, [r3, #1]
20003098:	e1a00400 	lsl	r0, r0, #8
2000309c:	e1801001 	orr	r1, r0, r1
200030a0:	e5d30002 	ldrb	r0, [r3, #2]
200030a4:	e1a00800 	lsl	r0, r0, #16
200030a8:	e1801001 	orr	r1, r0, r1
200030ac:	e5d33003 	ldrb	r3, [r3, #3]
200030b0:	e1a03c03 	lsl	r3, r3, #24
200030b4:	e1833001 	orr	r3, r3, r1
200030b8:	e1520003 	cmp	r2, r3
200030bc:	1a000001 	bne	200030c8 <tcp_bind+0x1ec>
200030c0:	e3a030f5 	mov	r3, #245	; 0xf5
200030c4:	ea00007e 	b	200032c4 <tcp_bind+0x3e8>
200030c8:	e51b3008 	ldr	r3, [fp, #-8]
200030cc:	e593300c 	ldr	r3, [r3, #12]
200030d0:	e50b3008 	str	r3, [fp, #-8]
200030d4:	e51b3008 	ldr	r3, [fp, #-8]
200030d8:	e3530000 	cmp	r3, #0
200030dc:	1affffcc 	bne	20003014 <tcp_bind+0x138>
200030e0:	e59f31fc 	ldr	r3, [pc, #508]	; 200032e4 <tcp_bind+0x408>
200030e4:	e5933000 	ldr	r3, [r3]
200030e8:	e50b3008 	str	r3, [fp, #-8]
200030ec:	ea00002f 	b	200031b0 <tcp_bind+0x2d4>
200030f0:	e51b3008 	ldr	r3, [fp, #-8]
200030f4:	e1d331b8 	ldrh	r3, [r3, #24]
200030f8:	e15b21b6 	ldrh	r2, [fp, #-22]	; 0xffffffea
200030fc:	e1520003 	cmp	r2, r3
20003100:	1a000027 	bne	200031a4 <tcp_bind+0x2c8>
20003104:	e51b3008 	ldr	r3, [fp, #-8]
20003108:	e3530000 	cmp	r3, #0
2000310c:	0a000022 	beq	2000319c <tcp_bind+0x2c0>
20003110:	e51b3008 	ldr	r3, [fp, #-8]
20003114:	e5933000 	ldr	r3, [r3]
20003118:	e3530000 	cmp	r3, #0
2000311c:	0a00001e 	beq	2000319c <tcp_bind+0x2c0>
20003120:	e51b3014 	ldr	r3, [fp, #-20]	; 0xffffffec
20003124:	e3530000 	cmp	r3, #0
20003128:	0a00001b 	beq	2000319c <tcp_bind+0x2c0>
2000312c:	e51b3014 	ldr	r3, [fp, #-20]	; 0xffffffec
20003130:	e5d32000 	ldrb	r2, [r3]
20003134:	e5d31001 	ldrb	r1, [r3, #1]
20003138:	e1a01401 	lsl	r1, r1, #8
2000313c:	e1812002 	orr	r2, r1, r2
20003140:	e5d31002 	ldrb	r1, [r3, #2]
20003144:	e1a01801 	lsl	r1, r1, #16
20003148:	e1812002 	orr	r2, r1, r2
2000314c:	e5d33003 	ldrb	r3, [r3, #3]
20003150:	e1a03c03 	lsl	r3, r3, #24
20003154:	e1833002 	orr	r3, r3, r2
20003158:	e3530000 	cmp	r3, #0
2000315c:	0a00000e 	beq	2000319c <tcp_bind+0x2c0>
20003160:	e51b3008 	ldr	r3, [fp, #-8]
20003164:	e5932000 	ldr	r2, [r3]
20003168:	e51b3014 	ldr	r3, [fp, #-20]	; 0xffffffec
2000316c:	e5d31000 	ldrb	r1, [r3]
20003170:	e5d30001 	ldrb	r0, [r3, #1]
20003174:	e1a00400 	lsl	r0, r0, #8
20003178:	e1801001 	orr	r1, r0, r1
2000317c:	e5d30002 	ldrb	r0, [r3, #2]
20003180:	e1a00800 	lsl	r0, r0, #16
20003184:	e1801001 	orr	r1, r0, r1
20003188:	e5d33003 	ldrb	r3, [r3, #3]
2000318c:	e1a03c03 	lsl	r3, r3, #24
20003190:	e1833001 	orr	r3, r3, r1
20003194:	e1520003 	cmp	r2, r3
20003198:	1a000001 	bne	200031a4 <tcp_bind+0x2c8>
2000319c:	e3a030f5 	mov	r3, #245	; 0xf5
200031a0:	ea000047 	b	200032c4 <tcp_bind+0x3e8>
200031a4:	e51b3008 	ldr	r3, [fp, #-8]
200031a8:	e593300c 	ldr	r3, [r3, #12]
200031ac:	e50b3008 	str	r3, [fp, #-8]
200031b0:	e51b3008 	ldr	r3, [fp, #-8]
200031b4:	e3530000 	cmp	r3, #0
200031b8:	1affffcc 	bne	200030f0 <tcp_bind+0x214>
200031bc:	e59f3124 	ldr	r3, [pc, #292]	; 200032e8 <tcp_bind+0x40c>
200031c0:	e5933000 	ldr	r3, [r3]
200031c4:	e50b3008 	str	r3, [fp, #-8]
200031c8:	ea000018 	b	20003230 <tcp_bind+0x354>
200031cc:	e51b3008 	ldr	r3, [fp, #-8]
200031d0:	e1d331b8 	ldrh	r3, [r3, #24]
200031d4:	e15b21b6 	ldrh	r2, [fp, #-22]	; 0xffffffea
200031d8:	e1520003 	cmp	r2, r3
200031dc:	1a000010 	bne	20003224 <tcp_bind+0x348>
200031e0:	e51b3008 	ldr	r3, [fp, #-8]
200031e4:	e5932000 	ldr	r2, [r3]
200031e8:	e51b3014 	ldr	r3, [fp, #-20]	; 0xffffffec
200031ec:	e5d31000 	ldrb	r1, [r3]
200031f0:	e5d30001 	ldrb	r0, [r3, #1]
200031f4:	e1a00400 	lsl	r0, r0, #8
200031f8:	e1801001 	orr	r1, r0, r1
200031fc:	e5d30002 	ldrb	r0, [r3, #2]
20003200:	e1a00800 	lsl	r0, r0, #16
20003204:	e1801001 	orr	r1, r0, r1
20003208:	e5d33003 	ldrb	r3, [r3, #3]
2000320c:	e1a03c03 	lsl	r3, r3, #24
20003210:	e1833001 	orr	r3, r3, r1
20003214:	e1520003 	cmp	r2, r3
20003218:	1a000001 	bne	20003224 <tcp_bind+0x348>
2000321c:	e3a030f5 	mov	r3, #245	; 0xf5
20003220:	ea000027 	b	200032c4 <tcp_bind+0x3e8>
20003224:	e51b3008 	ldr	r3, [fp, #-8]
20003228:	e593300c 	ldr	r3, [r3, #12]
2000322c:	e50b3008 	str	r3, [fp, #-8]
20003230:	e51b3008 	ldr	r3, [fp, #-8]
20003234:	e3530000 	cmp	r3, #0
20003238:	1affffe3 	bne	200031cc <tcp_bind+0x2f0>
2000323c:	e51b3014 	ldr	r3, [fp, #-20]	; 0xffffffec
20003240:	e3530000 	cmp	r3, #0
20003244:	0a000013 	beq	20003298 <tcp_bind+0x3bc>
20003248:	e51b3014 	ldr	r3, [fp, #-20]	; 0xffffffec
2000324c:	e5d32000 	ldrb	r2, [r3]
20003250:	e5d31001 	ldrb	r1, [r3, #1]
20003254:	e1a01401 	lsl	r1, r1, #8
20003258:	e1812002 	orr	r2, r1, r2
2000325c:	e5d31002 	ldrb	r1, [r3, #2]
20003260:	e1a01801 	lsl	r1, r1, #16
20003264:	e1812002 	orr	r2, r1, r2
20003268:	e5d33003 	ldrb	r3, [r3, #3]
2000326c:	e1a03c03 	lsl	r3, r3, #24
20003270:	e1833002 	orr	r3, r3, r2
20003274:	e3530000 	cmp	r3, #0
20003278:	0a000006 	beq	20003298 <tcp_bind+0x3bc>
2000327c:	e51b2010 	ldr	r2, [fp, #-16]
20003280:	e51b3014 	ldr	r3, [fp, #-20]	; 0xffffffec
20003284:	e1a00002 	mov	r0, r2
20003288:	e1a01003 	mov	r1, r3
2000328c:	e3a03004 	mov	r3, #4
20003290:	e1a02003 	mov	r2, r3
20003294:	eb00424c 	bl	20013bcc <__rom_data_end>
20003298:	e51b3010 	ldr	r3, [fp, #-16]
2000329c:	e15b21b6 	ldrh	r2, [fp, #-22]	; 0xffffffea
200032a0:	e1c321b8 	strh	r2, [r3, #24]
200032a4:	e59f3038 	ldr	r3, [pc, #56]	; 200032e4 <tcp_bind+0x408>
200032a8:	e5932000 	ldr	r2, [r3]
200032ac:	e51b3010 	ldr	r3, [fp, #-16]
200032b0:	e583200c 	str	r2, [r3, #12]
200032b4:	e59f2028 	ldr	r2, [pc, #40]	; 200032e4 <tcp_bind+0x408>
200032b8:	e51b3010 	ldr	r3, [fp, #-16]
200032bc:	e5823000 	str	r3, [r2]
200032c0:	e3a03000 	mov	r3, #0
200032c4:	e1a03c03 	lsl	r3, r3, #24
200032c8:	e1a03c43 	asr	r3, r3, #24
200032cc:	e1a00003 	mov	r0, r3
200032d0:	e24bd004 	sub	sp, fp, #4
200032d4:	e8bd4800 	pop	{fp, lr}
200032d8:	e12fff1e 	bx	lr
200032dc:	20015750 	.word	0x20015750
200032e0:	20015748 	.word	0x20015748
200032e4:	20015758 	.word	0x20015758
200032e8:	2001575c 	.word	0x2001575c

200032ec <tcp_accept_null>:
200032ec:	e52db004 	push	{fp}		; (str fp, [sp, #-4]!)
200032f0:	e28db000 	add	fp, sp, #0
200032f4:	e24dd014 	sub	sp, sp, #20
200032f8:	e50b0008 	str	r0, [fp, #-8]
200032fc:	e50b100c 	str	r1, [fp, #-12]
20003300:	e1a03002 	mov	r3, r2
20003304:	e54b300d 	strb	r3, [fp, #-13]
20003308:	e3a030fb 	mov	r3, #251	; 0xfb
2000330c:	e1a03c03 	lsl	r3, r3, #24
20003310:	e1a03c43 	asr	r3, r3, #24
20003314:	e1a00003 	mov	r0, r3
20003318:	e24bd000 	sub	sp, fp, #0
2000331c:	e49db004 	pop	{fp}		; (ldr fp, [sp], #4)
20003320:	e12fff1e 	bx	lr

20003324 <tcp_listen_with_backlog>:
20003324:	e92d4800 	push	{fp, lr}
20003328:	e28db004 	add	fp, sp, #4
2000332c:	e24dd010 	sub	sp, sp, #16
20003330:	e50b0010 	str	r0, [fp, #-16]
20003334:	e1a03001 	mov	r3, r1
20003338:	e54b3011 	strb	r3, [fp, #-17]	; 0xffffffef
2000333c:	e51b3010 	ldr	r3, [fp, #-16]
20003340:	e5d33010 	ldrb	r3, [r3, #16]
20003344:	e3530000 	cmp	r3, #0
20003348:	0a000001 	beq	20003354 <tcp_listen_with_backlog+0x30>
2000334c:	e3a03000 	mov	r3, #0
20003350:	ea00006a 	b	20003500 <tcp_listen_with_backlog+0x1dc>
20003354:	e51b3010 	ldr	r3, [fp, #-16]
20003358:	e5d33010 	ldrb	r3, [r3, #16]
2000335c:	e3530001 	cmp	r3, #1
20003360:	1a000001 	bne	2000336c <tcp_listen_with_backlog+0x48>
20003364:	e51b3010 	ldr	r3, [fp, #-16]
20003368:	ea000064 	b	20003500 <tcp_listen_with_backlog+0x1dc>
2000336c:	e3a00003 	mov	r0, #3
20003370:	ebfff63d 	bl	20000c6c <memp_malloc>
20003374:	e50b0008 	str	r0, [fp, #-8]
20003378:	e51b3008 	ldr	r3, [fp, #-8]
2000337c:	e3530000 	cmp	r3, #0
20003380:	1a000001 	bne	2000338c <tcp_listen_with_backlog+0x68>
20003384:	e3a03000 	mov	r3, #0
20003388:	ea00005c 	b	20003500 <tcp_listen_with_backlog+0x1dc>
2000338c:	e51b3010 	ldr	r3, [fp, #-16]
20003390:	e5932014 	ldr	r2, [r3, #20]
20003394:	e51b3008 	ldr	r3, [fp, #-8]
20003398:	e5832014 	str	r2, [r3, #20]
2000339c:	e51b3010 	ldr	r3, [fp, #-16]
200033a0:	e1d321b8 	ldrh	r2, [r3, #24]
200033a4:	e51b3008 	ldr	r3, [fp, #-8]
200033a8:	e1c321b8 	strh	r2, [r3, #24]
200033ac:	e51b3008 	ldr	r3, [fp, #-8]
200033b0:	e3a02001 	mov	r2, #1
200033b4:	e5c32010 	strb	r2, [r3, #16]
200033b8:	e51b3010 	ldr	r3, [fp, #-16]
200033bc:	e1d320b8 	ldrh	r2, [r3, #8]
200033c0:	e51b3008 	ldr	r3, [fp, #-8]
200033c4:	e1c320b8 	strh	r2, [r3, #8]
200033c8:	e51b3008 	ldr	r3, [fp, #-8]
200033cc:	e1d330b8 	ldrh	r3, [r3, #8]
200033d0:	e3833002 	orr	r3, r3, #2
200033d4:	e1a03803 	lsl	r3, r3, #16
200033d8:	e1a02823 	lsr	r2, r3, #16
200033dc:	e51b3008 	ldr	r3, [fp, #-8]
200033e0:	e1c320b8 	strh	r2, [r3, #8]
200033e4:	e51b3010 	ldr	r3, [fp, #-16]
200033e8:	e5d3200b 	ldrb	r2, [r3, #11]
200033ec:	e51b3008 	ldr	r3, [fp, #-8]
200033f0:	e5c3200b 	strb	r2, [r3, #11]
200033f4:	e51b3010 	ldr	r3, [fp, #-16]
200033f8:	e5d3200a 	ldrb	r2, [r3, #10]
200033fc:	e51b3008 	ldr	r3, [fp, #-8]
20003400:	e5c3200a 	strb	r2, [r3, #10]
20003404:	e51b3010 	ldr	r3, [fp, #-16]
20003408:	e3530000 	cmp	r3, #0
2000340c:	0a000002 	beq	2000341c <tcp_listen_with_backlog+0xf8>
20003410:	e51b3010 	ldr	r3, [fp, #-16]
20003414:	e5933000 	ldr	r3, [r3]
20003418:	ea000000 	b	20003420 <tcp_listen_with_backlog+0xfc>
2000341c:	e3a03000 	mov	r3, #0
20003420:	e51b2008 	ldr	r2, [fp, #-8]
20003424:	e5823000 	str	r3, [r2]
20003428:	e59f30e0 	ldr	r3, [pc, #224]	; 20003510 <tcp_listen_with_backlog+0x1ec>
2000342c:	e5932000 	ldr	r2, [r3]
20003430:	e51b3010 	ldr	r3, [fp, #-16]
20003434:	e1520003 	cmp	r2, r3
20003438:	1a000005 	bne	20003454 <tcp_listen_with_backlog+0x130>
2000343c:	e59f30cc 	ldr	r3, [pc, #204]	; 20003510 <tcp_listen_with_backlog+0x1ec>
20003440:	e5933000 	ldr	r3, [r3]
20003444:	e593300c 	ldr	r3, [r3, #12]
20003448:	e59f20c0 	ldr	r2, [pc, #192]	; 20003510 <tcp_listen_with_backlog+0x1ec>
2000344c:	e5823000 	str	r3, [r2]
20003450:	ea000019 	b	200034bc <tcp_listen_with_backlog+0x198>
20003454:	e59f30b4 	ldr	r3, [pc, #180]	; 20003510 <tcp_listen_with_backlog+0x1ec>
20003458:	e5933000 	ldr	r3, [r3]
2000345c:	e59f20b0 	ldr	r2, [pc, #176]	; 20003514 <tcp_listen_with_backlog+0x1f0>
20003460:	e5823000 	str	r3, [r2]
20003464:	ea000010 	b	200034ac <tcp_listen_with_backlog+0x188>
20003468:	e59f30a4 	ldr	r3, [pc, #164]	; 20003514 <tcp_listen_with_backlog+0x1f0>
2000346c:	e5933000 	ldr	r3, [r3]
20003470:	e593200c 	ldr	r2, [r3, #12]
20003474:	e51b3010 	ldr	r3, [fp, #-16]
20003478:	e1520003 	cmp	r2, r3
2000347c:	1a000005 	bne	20003498 <tcp_listen_with_backlog+0x174>
20003480:	e59f308c 	ldr	r3, [pc, #140]	; 20003514 <tcp_listen_with_backlog+0x1f0>
20003484:	e5933000 	ldr	r3, [r3]
20003488:	e51b2010 	ldr	r2, [fp, #-16]
2000348c:	e592200c 	ldr	r2, [r2, #12]
20003490:	e583200c 	str	r2, [r3, #12]
20003494:	ea000008 	b	200034bc <tcp_listen_with_backlog+0x198>
20003498:	e59f3074 	ldr	r3, [pc, #116]	; 20003514 <tcp_listen_with_backlog+0x1f0>
2000349c:	e5933000 	ldr	r3, [r3]
200034a0:	e593300c 	ldr	r3, [r3, #12]
200034a4:	e59f2068 	ldr	r2, [pc, #104]	; 20003514 <tcp_listen_with_backlog+0x1f0>
200034a8:	e5823000 	str	r3, [r2]
200034ac:	e59f3060 	ldr	r3, [pc, #96]	; 20003514 <tcp_listen_with_backlog+0x1f0>
200034b0:	e5933000 	ldr	r3, [r3]
200034b4:	e3530000 	cmp	r3, #0
200034b8:	1affffea 	bne	20003468 <tcp_listen_with_backlog+0x144>
200034bc:	e51b3010 	ldr	r3, [fp, #-16]
200034c0:	e3a02000 	mov	r2, #0
200034c4:	e583200c 	str	r2, [r3, #12]
200034c8:	e51b1010 	ldr	r1, [fp, #-16]
200034cc:	e3a00002 	mov	r0, #2
200034d0:	ebfff651 	bl	20000e1c <memp_free>
200034d4:	e51b3008 	ldr	r3, [fp, #-8]
200034d8:	e59f2038 	ldr	r2, [pc, #56]	; 20003518 <tcp_listen_with_backlog+0x1f4>
200034dc:	e583201c 	str	r2, [r3, #28]
200034e0:	e59f3034 	ldr	r3, [pc, #52]	; 2000351c <tcp_listen_with_backlog+0x1f8>
200034e4:	e5932000 	ldr	r2, [r3]
200034e8:	e51b3008 	ldr	r3, [fp, #-8]
200034ec:	e583200c 	str	r2, [r3, #12]
200034f0:	e59f2024 	ldr	r2, [pc, #36]	; 2000351c <tcp_listen_with_backlog+0x1f8>
200034f4:	e51b3008 	ldr	r3, [fp, #-8]
200034f8:	e5823000 	str	r3, [r2]
200034fc:	e51b3008 	ldr	r3, [fp, #-8]
20003500:	e1a00003 	mov	r0, r3
20003504:	e24bd004 	sub	sp, fp, #4
20003508:	e8bd4800 	pop	{fp, lr}
2000350c:	e12fff1e 	bx	lr
20003510:	20015758 	.word	0x20015758
20003514:	20015754 	.word	0x20015754
20003518:	200032ec 	.word	0x200032ec
2000351c:	20015750 	.word	0x20015750

20003520 <tcp_update_rcv_ann_wnd>:
20003520:	e52db004 	push	{fp}		; (str fp, [sp, #-4]!)
20003524:	e28db000 	add	fp, sp, #0
20003528:	e24dd014 	sub	sp, sp, #20
2000352c:	e50b0010 	str	r0, [fp, #-16]
20003530:	e51b3010 	ldr	r3, [fp, #-16]
20003534:	e5933024 	ldr	r3, [r3, #36]	; 0x24
20003538:	e51b2010 	ldr	r2, [fp, #-16]
2000353c:	e1d222b8 	ldrh	r2, [r2, #40]	; 0x28
20003540:	e0833002 	add	r3, r3, r2
20003544:	e50b3008 	str	r3, [fp, #-8]
20003548:	e51b3010 	ldr	r3, [fp, #-16]
2000354c:	e593302c 	ldr	r3, [r3, #44]	; 0x2c
20003550:	e51b2010 	ldr	r2, [fp, #-16]
20003554:	e1d223b8 	ldrh	r2, [r2, #56]	; 0x38
20003558:	e3520c01 	cmp	r2, #256	; 0x100
2000355c:	8a000002 	bhi	2000356c <tcp_update_rcv_ann_wnd+0x4c>
20003560:	e51b2010 	ldr	r2, [fp, #-16]
20003564:	e1d223b8 	ldrh	r2, [r2, #56]	; 0x38
20003568:	ea000000 	b	20003570 <tcp_update_rcv_ann_wnd+0x50>
2000356c:	e3a02c01 	mov	r2, #256	; 0x100
20003570:	e0833002 	add	r3, r3, r2
20003574:	e51b2008 	ldr	r2, [fp, #-8]
20003578:	e0633002 	rsb	r3, r3, r2
2000357c:	e3530000 	cmp	r3, #0
20003580:	ba000008 	blt	200035a8 <tcp_update_rcv_ann_wnd+0x88>
20003584:	e51b3010 	ldr	r3, [fp, #-16]
20003588:	e1d322b8 	ldrh	r2, [r3, #40]	; 0x28
2000358c:	e51b3010 	ldr	r3, [fp, #-16]
20003590:	e1c322ba 	strh	r2, [r3, #42]	; 0x2a
20003594:	e51b3010 	ldr	r3, [fp, #-16]
20003598:	e593302c 	ldr	r3, [r3, #44]	; 0x2c
2000359c:	e51b2008 	ldr	r2, [fp, #-8]
200035a0:	e0633002 	rsb	r3, r3, r2
200035a4:	ea000018 	b	2000360c <tcp_update_rcv_ann_wnd+0xec>
200035a8:	e51b3010 	ldr	r3, [fp, #-16]
200035ac:	e5932024 	ldr	r2, [r3, #36]	; 0x24
200035b0:	e51b3010 	ldr	r3, [fp, #-16]
200035b4:	e593302c 	ldr	r3, [r3, #44]	; 0x2c
200035b8:	e0633002 	rsb	r3, r3, r2
200035bc:	e3530000 	cmp	r3, #0
200035c0:	da000003 	ble	200035d4 <tcp_update_rcv_ann_wnd+0xb4>
200035c4:	e51b3010 	ldr	r3, [fp, #-16]
200035c8:	e3a02000 	mov	r2, #0
200035cc:	e1c322ba 	strh	r2, [r3, #42]	; 0x2a
200035d0:	ea00000c 	b	20003608 <tcp_update_rcv_ann_wnd+0xe8>
200035d4:	e51b3010 	ldr	r3, [fp, #-16]
200035d8:	e593302c 	ldr	r3, [r3, #44]	; 0x2c
200035dc:	e1a03803 	lsl	r3, r3, #16
200035e0:	e1a02823 	lsr	r2, r3, #16
200035e4:	e51b3010 	ldr	r3, [fp, #-16]
200035e8:	e5933024 	ldr	r3, [r3, #36]	; 0x24
200035ec:	e1a03803 	lsl	r3, r3, #16
200035f0:	e1a03823 	lsr	r3, r3, #16
200035f4:	e0633002 	rsb	r3, r3, r2
200035f8:	e1a03803 	lsl	r3, r3, #16
200035fc:	e1a02823 	lsr	r2, r3, #16
20003600:	e51b3010 	ldr	r3, [fp, #-16]
20003604:	e1c322ba 	strh	r2, [r3, #42]	; 0x2a
20003608:	e3a03000 	mov	r3, #0
2000360c:	e1a00003 	mov	r0, r3
20003610:	e24bd000 	sub	sp, fp, #0
20003614:	e49db004 	pop	{fp}		; (ldr fp, [sp], #4)
20003618:	e12fff1e 	bx	lr

2000361c <tcp_recved>:
2000361c:	e92d4800 	push	{fp, lr}
20003620:	e28db004 	add	fp, sp, #4
20003624:	e24dd010 	sub	sp, sp, #16
20003628:	e50b0010 	str	r0, [fp, #-16]
2000362c:	e1a03001 	mov	r3, r1
20003630:	e14b31b2 	strh	r3, [fp, #-18]	; 0xffffffee
20003634:	e51b3010 	ldr	r3, [fp, #-16]
20003638:	e1d322b8 	ldrh	r2, [r3, #40]	; 0x28
2000363c:	e15b31b2 	ldrh	r3, [fp, #-18]	; 0xffffffee
20003640:	e0823003 	add	r3, r2, r3
20003644:	e1a03803 	lsl	r3, r3, #16
20003648:	e1a02823 	lsr	r2, r3, #16
2000364c:	e51b3010 	ldr	r3, [fp, #-16]
20003650:	e1c322b8 	strh	r2, [r3, #40]	; 0x28
20003654:	e51b3010 	ldr	r3, [fp, #-16]
20003658:	e1d332b8 	ldrh	r3, [r3, #40]	; 0x28
2000365c:	e3530c02 	cmp	r3, #512	; 0x200
20003660:	9a000002 	bls	20003670 <tcp_recved+0x54>
20003664:	e51b3010 	ldr	r3, [fp, #-16]
20003668:	e3a02c02 	mov	r2, #512	; 0x200
2000366c:	e1c322b8 	strh	r2, [r3, #40]	; 0x28
20003670:	e51b0010 	ldr	r0, [fp, #-16]
20003674:	ebffffa9 	bl	20003520 <tcp_update_rcv_ann_wnd>
20003678:	e1a03000 	mov	r3, r0
2000367c:	e50b3008 	str	r3, [fp, #-8]
20003680:	e51b3008 	ldr	r3, [fp, #-8]
20003684:	e353007f 	cmp	r3, #127	; 0x7f
20003688:	da000007 	ble	200036ac <tcp_recved+0x90>
2000368c:	e51b3010 	ldr	r3, [fp, #-16]
20003690:	e5d33022 	ldrb	r3, [r3, #34]	; 0x22
20003694:	e3833002 	orr	r3, r3, #2
20003698:	e20320ff 	and	r2, r3, #255	; 0xff
2000369c:	e51b3010 	ldr	r3, [fp, #-16]
200036a0:	e5c32022 	strb	r2, [r3, #34]	; 0x22
200036a4:	e51b0010 	ldr	r0, [fp, #-16]
200036a8:	eb001706 	bl	200092c8 <tcp_output>
200036ac:	e1a00000 	nop			; (mov r0, r0)
200036b0:	e24bd004 	sub	sp, fp, #4
200036b4:	e8bd4800 	pop	{fp, lr}
200036b8:	e12fff1e 	bx	lr

200036bc <tcp_new_port>:
200036bc:	e52db004 	push	{fp}		; (str fp, [sp, #-4]!)
200036c0:	e28db000 	add	fp, sp, #0
200036c4:	e24dd00c 	sub	sp, sp, #12
200036c8:	e59f3124 	ldr	r3, [pc, #292]	; 200037f4 <tcp_new_port+0x138>
200036cc:	e1d330b0 	ldrh	r3, [r3]
200036d0:	e2833001 	add	r3, r3, #1
200036d4:	e1a03803 	lsl	r3, r3, #16
200036d8:	e1a03823 	lsr	r3, r3, #16
200036dc:	e59f2110 	ldr	r2, [pc, #272]	; 200037f4 <tcp_new_port+0x138>
200036e0:	e1c230b0 	strh	r3, [r2]
200036e4:	e59f3108 	ldr	r3, [pc, #264]	; 200037f4 <tcp_new_port+0x138>
200036e8:	e1d330b0 	ldrh	r3, [r3]
200036ec:	e1a03803 	lsl	r3, r3, #16
200036f0:	e1a03823 	lsr	r3, r3, #16
200036f4:	e1a03803 	lsl	r3, r3, #16
200036f8:	e1a03843 	asr	r3, r3, #16
200036fc:	e3530000 	cmp	r3, #0
20003700:	aa000002 	bge	20003710 <tcp_new_port+0x54>
20003704:	e59f30e8 	ldr	r3, [pc, #232]	; 200037f4 <tcp_new_port+0x138>
20003708:	e3a02a01 	mov	r2, #4096	; 0x1000
2000370c:	e1c320b0 	strh	r2, [r3]
20003710:	e59f30e0 	ldr	r3, [pc, #224]	; 200037f8 <tcp_new_port+0x13c>
20003714:	e5933000 	ldr	r3, [r3]
20003718:	e50b3008 	str	r3, [fp, #-8]
2000371c:	ea000009 	b	20003748 <tcp_new_port+0x8c>
20003720:	e51b3008 	ldr	r3, [fp, #-8]
20003724:	e1d321b8 	ldrh	r2, [r3, #24]
20003728:	e59f30c4 	ldr	r3, [pc, #196]	; 200037f4 <tcp_new_port+0x138>
2000372c:	e1d330b0 	ldrh	r3, [r3]
20003730:	e1520003 	cmp	r2, r3
20003734:	1a000000 	bne	2000373c <tcp_new_port+0x80>
20003738:	eaffffe2 	b	200036c8 <tcp_new_port+0xc>
2000373c:	e51b3008 	ldr	r3, [fp, #-8]
20003740:	e593300c 	ldr	r3, [r3, #12]
20003744:	e50b3008 	str	r3, [fp, #-8]
20003748:	e51b3008 	ldr	r3, [fp, #-8]
2000374c:	e3530000 	cmp	r3, #0
20003750:	1afffff2 	bne	20003720 <tcp_new_port+0x64>
20003754:	e59f30a0 	ldr	r3, [pc, #160]	; 200037fc <tcp_new_port+0x140>
20003758:	e5933000 	ldr	r3, [r3]
2000375c:	e50b3008 	str	r3, [fp, #-8]
20003760:	ea000009 	b	2000378c <tcp_new_port+0xd0>
20003764:	e51b3008 	ldr	r3, [fp, #-8]
20003768:	e1d321b8 	ldrh	r2, [r3, #24]
2000376c:	e59f3080 	ldr	r3, [pc, #128]	; 200037f4 <tcp_new_port+0x138>
20003770:	e1d330b0 	ldrh	r3, [r3]
20003774:	e1520003 	cmp	r2, r3
20003778:	1a000000 	bne	20003780 <tcp_new_port+0xc4>
2000377c:	eaffffd1 	b	200036c8 <tcp_new_port+0xc>
20003780:	e51b3008 	ldr	r3, [fp, #-8]
20003784:	e593300c 	ldr	r3, [r3, #12]
20003788:	e50b3008 	str	r3, [fp, #-8]
2000378c:	e51b3008 	ldr	r3, [fp, #-8]
20003790:	e3530000 	cmp	r3, #0
20003794:	1afffff2 	bne	20003764 <tcp_new_port+0xa8>
20003798:	e59f3060 	ldr	r3, [pc, #96]	; 20003800 <tcp_new_port+0x144>
2000379c:	e5933000 	ldr	r3, [r3]
200037a0:	e50b3008 	str	r3, [fp, #-8]
200037a4:	ea000009 	b	200037d0 <tcp_new_port+0x114>
200037a8:	e51b3008 	ldr	r3, [fp, #-8]
200037ac:	e1d321b8 	ldrh	r2, [r3, #24]
200037b0:	e59f303c 	ldr	r3, [pc, #60]	; 200037f4 <tcp_new_port+0x138>
200037b4:	e1d330b0 	ldrh	r3, [r3]
200037b8:	e1520003 	cmp	r2, r3
200037bc:	1a000000 	bne	200037c4 <tcp_new_port+0x108>
200037c0:	eaffffc0 	b	200036c8 <tcp_new_port+0xc>
200037c4:	e51b3008 	ldr	r3, [fp, #-8]
200037c8:	e593300c 	ldr	r3, [r3, #12]
200037cc:	e50b3008 	str	r3, [fp, #-8]
200037d0:	e51b3008 	ldr	r3, [fp, #-8]
200037d4:	e3530000 	cmp	r3, #0
200037d8:	1afffff2 	bne	200037a8 <tcp_new_port+0xec>
200037dc:	e59f3010 	ldr	r3, [pc, #16]	; 200037f4 <tcp_new_port+0x138>
200037e0:	e1d330b0 	ldrh	r3, [r3]
200037e4:	e1a00003 	mov	r0, r3
200037e8:	e24bd000 	sub	sp, fp, #0
200037ec:	e49db004 	pop	{fp}		; (ldr fp, [sp], #4)
200037f0:	e12fff1e 	bx	lr
200037f4:	20013ddc 	.word	0x20013ddc
200037f8:	20015748 	.word	0x20015748
200037fc:	2001575c 	.word	0x2001575c
20003800:	20015750 	.word	0x20015750

20003804 <tcp_connect>:
20003804:	e92d4800 	push	{fp, lr}
20003808:	e28db004 	add	fp, sp, #4
2000380c:	e24dd020 	sub	sp, sp, #32
20003810:	e50b0010 	str	r0, [fp, #-16]
20003814:	e50b1014 	str	r1, [fp, #-20]	; 0xffffffec
20003818:	e50b301c 	str	r3, [fp, #-28]	; 0xffffffe4
2000381c:	e14b21b6 	strh	r2, [fp, #-22]	; 0xffffffea
20003820:	e51b3010 	ldr	r3, [fp, #-16]
20003824:	e5d33010 	ldrb	r3, [r3, #16]
20003828:	e3530000 	cmp	r3, #0
2000382c:	0a000001 	beq	20003838 <tcp_connect+0x34>
20003830:	e3a030f3 	mov	r3, #243	; 0xf3
20003834:	ea000094 	b	20003a8c <tcp_connect+0x288>
20003838:	e51b3014 	ldr	r3, [fp, #-20]	; 0xffffffec
2000383c:	e3530000 	cmp	r3, #0
20003840:	0a00000e 	beq	20003880 <tcp_connect+0x7c>
20003844:	e51b3010 	ldr	r3, [fp, #-16]
20003848:	e51b2014 	ldr	r2, [fp, #-20]	; 0xffffffec
2000384c:	e2833004 	add	r3, r3, #4
20003850:	e1a01002 	mov	r1, r2
20003854:	e3a02004 	mov	r2, #4
20003858:	e1a00003 	mov	r0, r3
2000385c:	eb0040da 	bl	20013bcc <__rom_data_end>
20003860:	e51b3010 	ldr	r3, [fp, #-16]
20003864:	e15b21b6 	ldrh	r2, [fp, #-22]	; 0xffffffea
20003868:	e1c322b0 	strh	r2, [r3, #32]
2000386c:	e51b3010 	ldr	r3, [fp, #-16]
20003870:	e1d331b8 	ldrh	r3, [r3, #24]
20003874:	e3530000 	cmp	r3, #0
20003878:	1a000007 	bne	2000389c <tcp_connect+0x98>
2000387c:	ea000001 	b	20003888 <tcp_connect+0x84>
20003880:	e3a030f7 	mov	r3, #247	; 0xf7
20003884:	ea000080 	b	20003a8c <tcp_connect+0x288>
20003888:	ebffff8b 	bl	200036bc <tcp_new_port>
2000388c:	e1a03000 	mov	r3, r0
20003890:	e1a02003 	mov	r2, r3
20003894:	e51b3010 	ldr	r3, [fp, #-16]
20003898:	e1c321b8 	strh	r2, [r3, #24]
2000389c:	eb0004ab 	bl	20004b50 <tcp_next_iss>
200038a0:	e50b0008 	str	r0, [fp, #-8]
200038a4:	e51b3010 	ldr	r3, [fp, #-16]
200038a8:	e3a02000 	mov	r2, #0
200038ac:	e5832024 	str	r2, [r3, #36]	; 0x24
200038b0:	e51b3010 	ldr	r3, [fp, #-16]
200038b4:	e51b2008 	ldr	r2, [fp, #-8]
200038b8:	e5832058 	str	r2, [r3, #88]	; 0x58
200038bc:	e51b3008 	ldr	r3, [fp, #-8]
200038c0:	e2432001 	sub	r2, r3, #1
200038c4:	e51b3010 	ldr	r3, [fp, #-16]
200038c8:	e583204c 	str	r2, [r3, #76]	; 0x4c
200038cc:	e51b3008 	ldr	r3, [fp, #-8]
200038d0:	e2432001 	sub	r2, r3, #1
200038d4:	e51b3010 	ldr	r3, [fp, #-16]
200038d8:	e5832068 	str	r2, [r3, #104]	; 0x68
200038dc:	e51b3010 	ldr	r3, [fp, #-16]
200038e0:	e3a02c02 	mov	r2, #512	; 0x200
200038e4:	e1c322b8 	strh	r2, [r3, #40]	; 0x28
200038e8:	e51b3010 	ldr	r3, [fp, #-16]
200038ec:	e3a02c02 	mov	r2, #512	; 0x200
200038f0:	e1c322ba 	strh	r2, [r3, #42]	; 0x2a
200038f4:	e51b3010 	ldr	r3, [fp, #-16]
200038f8:	e5932024 	ldr	r2, [r3, #36]	; 0x24
200038fc:	e51b3010 	ldr	r3, [fp, #-16]
20003900:	e583202c 	str	r2, [r3, #44]	; 0x2c
20003904:	e51b3010 	ldr	r3, [fp, #-16]
20003908:	e3a02c02 	mov	r2, #512	; 0x200
2000390c:	e1c325bc 	strh	r2, [r3, #92]	; 0x5c
20003910:	e51b3010 	ldr	r3, [fp, #-16]
20003914:	e3a02080 	mov	r2, #128	; 0x80
20003918:	e1c323b8 	strh	r2, [r3, #56]	; 0x38
2000391c:	e51b3010 	ldr	r3, [fp, #-16]
20003920:	e1d333b8 	ldrh	r3, [r3, #56]	; 0x38
20003924:	e51b1014 	ldr	r1, [fp, #-20]	; 0xffffffec
20003928:	e1a00003 	mov	r0, r3
2000392c:	eb000498 	bl	20004b94 <tcp_eff_send_mss>
20003930:	e1a03000 	mov	r3, r0
20003934:	e1a02003 	mov	r2, r3
20003938:	e51b3010 	ldr	r3, [fp, #-16]
2000393c:	e1c323b8 	strh	r2, [r3, #56]	; 0x38
20003940:	e51b3010 	ldr	r3, [fp, #-16]
20003944:	e3a02001 	mov	r2, #1
20003948:	e1c325b2 	strh	r2, [r3, #82]	; 0x52
2000394c:	e51b3010 	ldr	r3, [fp, #-16]
20003950:	e1d333b8 	ldrh	r3, [r3, #56]	; 0x38
20003954:	e1a02003 	mov	r2, r3
20003958:	e1a02102 	lsl	r2, r2, #2
2000395c:	e0823003 	add	r3, r2, r3
20003960:	e1a03083 	lsl	r3, r3, #1
20003964:	e1a03803 	lsl	r3, r3, #16
20003968:	e1a02823 	lsr	r2, r3, #16
2000396c:	e51b3010 	ldr	r3, [fp, #-16]
20003970:	e1c325b4 	strh	r2, [r3, #84]	; 0x54
20003974:	e51b3010 	ldr	r3, [fp, #-16]
20003978:	e3a02002 	mov	r2, #2
2000397c:	e5c32010 	strb	r2, [r3, #16]
20003980:	e51b3010 	ldr	r3, [fp, #-16]
20003984:	e51b201c 	ldr	r2, [fp, #-28]	; 0xffffffe4
20003988:	e5832088 	str	r2, [r3, #136]	; 0x88
2000398c:	e59f3110 	ldr	r3, [pc, #272]	; 20003aa4 <tcp_connect+0x2a0>
20003990:	e5932000 	ldr	r2, [r3]
20003994:	e51b3010 	ldr	r3, [fp, #-16]
20003998:	e1520003 	cmp	r2, r3
2000399c:	1a000005 	bne	200039b8 <tcp_connect+0x1b4>
200039a0:	e59f30fc 	ldr	r3, [pc, #252]	; 20003aa4 <tcp_connect+0x2a0>
200039a4:	e5933000 	ldr	r3, [r3]
200039a8:	e593300c 	ldr	r3, [r3, #12]
200039ac:	e59f20f0 	ldr	r2, [pc, #240]	; 20003aa4 <tcp_connect+0x2a0>
200039b0:	e5823000 	str	r3, [r2]
200039b4:	ea000019 	b	20003a20 <tcp_connect+0x21c>
200039b8:	e59f30e4 	ldr	r3, [pc, #228]	; 20003aa4 <tcp_connect+0x2a0>
200039bc:	e5933000 	ldr	r3, [r3]
200039c0:	e59f20e0 	ldr	r2, [pc, #224]	; 20003aa8 <tcp_connect+0x2a4>
200039c4:	e5823000 	str	r3, [r2]
200039c8:	ea000010 	b	20003a10 <tcp_connect+0x20c>
200039cc:	e59f30d4 	ldr	r3, [pc, #212]	; 20003aa8 <tcp_connect+0x2a4>
200039d0:	e5933000 	ldr	r3, [r3]
200039d4:	e593200c 	ldr	r2, [r3, #12]
200039d8:	e51b3010 	ldr	r3, [fp, #-16]
200039dc:	e1520003 	cmp	r2, r3
200039e0:	1a000005 	bne	200039fc <tcp_connect+0x1f8>
200039e4:	e59f30bc 	ldr	r3, [pc, #188]	; 20003aa8 <tcp_connect+0x2a4>
200039e8:	e5933000 	ldr	r3, [r3]
200039ec:	e51b2010 	ldr	r2, [fp, #-16]
200039f0:	e592200c 	ldr	r2, [r2, #12]
200039f4:	e583200c 	str	r2, [r3, #12]
200039f8:	ea000008 	b	20003a20 <tcp_connect+0x21c>
200039fc:	e59f30a4 	ldr	r3, [pc, #164]	; 20003aa8 <tcp_connect+0x2a4>
20003a00:	e5933000 	ldr	r3, [r3]
20003a04:	e593300c 	ldr	r3, [r3, #12]
20003a08:	e59f2098 	ldr	r2, [pc, #152]	; 20003aa8 <tcp_connect+0x2a4>
20003a0c:	e5823000 	str	r3, [r2]
20003a10:	e59f3090 	ldr	r3, [pc, #144]	; 20003aa8 <tcp_connect+0x2a4>
20003a14:	e5933000 	ldr	r3, [r3]
20003a18:	e3530000 	cmp	r3, #0
20003a1c:	1affffea 	bne	200039cc <tcp_connect+0x1c8>
20003a20:	e51b3010 	ldr	r3, [fp, #-16]
20003a24:	e3a02000 	mov	r2, #0
20003a28:	e583200c 	str	r2, [r3, #12]
20003a2c:	e59f3078 	ldr	r3, [pc, #120]	; 20003aac <tcp_connect+0x2a8>
20003a30:	e5932000 	ldr	r2, [r3]
20003a34:	e51b3010 	ldr	r3, [fp, #-16]
20003a38:	e583200c 	str	r2, [r3, #12]
20003a3c:	e59f2068 	ldr	r2, [pc, #104]	; 20003aac <tcp_connect+0x2a8>
20003a40:	e51b3010 	ldr	r3, [fp, #-16]
20003a44:	e5823000 	str	r3, [r2]
20003a48:	e3a03001 	mov	r3, #1
20003a4c:	e58d3004 	str	r3, [sp, #4]
20003a50:	e3a03000 	mov	r3, #0
20003a54:	e58d3000 	str	r3, [sp]
20003a58:	e3a03002 	mov	r3, #2
20003a5c:	e3a02000 	mov	r2, #0
20003a60:	e3a01000 	mov	r1, #0
20003a64:	e51b0010 	ldr	r0, [fp, #-16]
20003a68:	eb001293 	bl	200084bc <tcp_enqueue>
20003a6c:	e1a03000 	mov	r3, r0
20003a70:	e54b3009 	strb	r3, [fp, #-9]
20003a74:	e15b30d9 	ldrsb	r3, [fp, #-9]
20003a78:	e3530000 	cmp	r3, #0
20003a7c:	1a000001 	bne	20003a88 <tcp_connect+0x284>
20003a80:	e51b0010 	ldr	r0, [fp, #-16]
20003a84:	eb00160f 	bl	200092c8 <tcp_output>
20003a88:	e55b3009 	ldrb	r3, [fp, #-9]
20003a8c:	e1a03c03 	lsl	r3, r3, #24
20003a90:	e1a03c43 	asr	r3, r3, #24
20003a94:	e1a00003 	mov	r0, r3
20003a98:	e24bd004 	sub	sp, fp, #4
20003a9c:	e8bd4800 	pop	{fp, lr}
20003aa0:	e12fff1e 	bx	lr
20003aa4:	20015758 	.word	0x20015758
20003aa8:	20015754 	.word	0x20015754
20003aac:	20015748 	.word	0x20015748

20003ab0 <tcp_slowtmr>:
20003ab0:	e92d4800 	push	{fp, lr}
20003ab4:	e28db004 	add	fp, sp, #4
20003ab8:	e24dd020 	sub	sp, sp, #32
20003abc:	e3a03000 	mov	r3, #0
20003ac0:	e54b300f 	strb	r3, [fp, #-15]
20003ac4:	e59f36c0 	ldr	r3, [pc, #1728]	; 2000418c <tcp_slowtmr+0x6dc>
20003ac8:	e5933000 	ldr	r3, [r3]
20003acc:	e2833001 	add	r3, r3, #1
20003ad0:	e59f26b4 	ldr	r2, [pc, #1716]	; 2000418c <tcp_slowtmr+0x6dc>
20003ad4:	e5823000 	str	r3, [r2]
20003ad8:	e3a03000 	mov	r3, #0
20003adc:	e50b300c 	str	r3, [fp, #-12]
20003ae0:	e59f36a8 	ldr	r3, [pc, #1704]	; 20004190 <tcp_slowtmr+0x6e0>
20003ae4:	e5933000 	ldr	r3, [r3]
20003ae8:	e50b3008 	str	r3, [fp, #-8]
20003aec:	ea00016b 	b	200040a0 <tcp_slowtmr+0x5f0>
20003af0:	e3a03000 	mov	r3, #0
20003af4:	e54b300d 	strb	r3, [fp, #-13]
20003af8:	e3a03000 	mov	r3, #0
20003afc:	e54b300e 	strb	r3, [fp, #-14]
20003b00:	e51b3008 	ldr	r3, [fp, #-8]
20003b04:	e5d33010 	ldrb	r3, [r3, #16]
20003b08:	e3530002 	cmp	r3, #2
20003b0c:	1a000007 	bne	20003b30 <tcp_slowtmr+0x80>
20003b10:	e51b3008 	ldr	r3, [fp, #-8]
20003b14:	e5d3304a 	ldrb	r3, [r3, #74]	; 0x4a
20003b18:	e3530004 	cmp	r3, #4
20003b1c:	1a000003 	bne	20003b30 <tcp_slowtmr+0x80>
20003b20:	e55b300d 	ldrb	r3, [fp, #-13]
20003b24:	e2833001 	add	r3, r3, #1
20003b28:	e54b300d 	strb	r3, [fp, #-13]
20003b2c:	ea000088 	b	20003d54 <tcp_slowtmr+0x2a4>
20003b30:	e51b3008 	ldr	r3, [fp, #-8]
20003b34:	e5d3304a 	ldrb	r3, [r3, #74]	; 0x4a
20003b38:	e353000c 	cmp	r3, #12
20003b3c:	1a000003 	bne	20003b50 <tcp_slowtmr+0xa0>
20003b40:	e55b300d 	ldrb	r3, [fp, #-13]
20003b44:	e2833001 	add	r3, r3, #1
20003b48:	e54b300d 	strb	r3, [fp, #-13]
20003b4c:	ea000080 	b	20003d54 <tcp_slowtmr+0x2a4>
20003b50:	e51b3008 	ldr	r3, [fp, #-8]
20003b54:	e5d3309c 	ldrb	r3, [r3, #156]	; 0x9c
20003b58:	e3530000 	cmp	r3, #0
20003b5c:	0a00001d 	beq	20003bd8 <tcp_slowtmr+0x128>
20003b60:	e51b3008 	ldr	r3, [fp, #-8]
20003b64:	e5933098 	ldr	r3, [r3, #152]	; 0x98
20003b68:	e2832001 	add	r2, r3, #1
20003b6c:	e51b3008 	ldr	r3, [fp, #-8]
20003b70:	e5832098 	str	r2, [r3, #152]	; 0x98
20003b74:	e51b3008 	ldr	r3, [fp, #-8]
20003b78:	e5933098 	ldr	r3, [r3, #152]	; 0x98
20003b7c:	e51b2008 	ldr	r2, [fp, #-8]
20003b80:	e5d2209c 	ldrb	r2, [r2, #156]	; 0x9c
20003b84:	e2422001 	sub	r2, r2, #1
20003b88:	e59f1604 	ldr	r1, [pc, #1540]	; 20004194 <tcp_slowtmr+0x6e4>
20003b8c:	e7d12002 	ldrb	r2, [r1, r2]
20003b90:	e1530002 	cmp	r3, r2
20003b94:	3a00006e 	bcc	20003d54 <tcp_slowtmr+0x2a4>
20003b98:	e51b3008 	ldr	r3, [fp, #-8]
20003b9c:	e3a02000 	mov	r2, #0
20003ba0:	e5832098 	str	r2, [r3, #152]	; 0x98
20003ba4:	e51b3008 	ldr	r3, [fp, #-8]
20003ba8:	e5d3309c 	ldrb	r3, [r3, #156]	; 0x9c
20003bac:	e3530006 	cmp	r3, #6
20003bb0:	8a000005 	bhi	20003bcc <tcp_slowtmr+0x11c>
20003bb4:	e51b3008 	ldr	r3, [fp, #-8]
20003bb8:	e5d3309c 	ldrb	r3, [r3, #156]	; 0x9c
20003bbc:	e2833001 	add	r3, r3, #1
20003bc0:	e20320ff 	and	r2, r3, #255	; 0xff
20003bc4:	e51b3008 	ldr	r3, [fp, #-8]
20003bc8:	e5c3209c 	strb	r2, [r3, #156]	; 0x9c
20003bcc:	e51b0008 	ldr	r0, [fp, #-8]
20003bd0:	eb001a36 	bl	2000a4b0 <tcp_zero_window_probe>
20003bd4:	ea00005e 	b	20003d54 <tcp_slowtmr+0x2a4>
20003bd8:	e51b3008 	ldr	r3, [fp, #-8]
20003bdc:	e1d333b6 	ldrh	r3, [r3, #54]	; 0x36
20003be0:	e1a03803 	lsl	r3, r3, #16
20003be4:	e1a03843 	asr	r3, r3, #16
20003be8:	e3530000 	cmp	r3, #0
20003bec:	ba00000a 	blt	20003c1c <tcp_slowtmr+0x16c>
20003bf0:	e51b3008 	ldr	r3, [fp, #-8]
20003bf4:	e1d333b6 	ldrh	r3, [r3, #54]	; 0x36
20003bf8:	e1a03803 	lsl	r3, r3, #16
20003bfc:	e1a03823 	lsr	r3, r3, #16
20003c00:	e2833001 	add	r3, r3, #1
20003c04:	e1a03803 	lsl	r3, r3, #16
20003c08:	e1a03823 	lsr	r3, r3, #16
20003c0c:	e1a03803 	lsl	r3, r3, #16
20003c10:	e1a02823 	lsr	r2, r3, #16
20003c14:	e51b3008 	ldr	r3, [fp, #-8]
20003c18:	e1c323b6 	strh	r2, [r3, #54]	; 0x36
20003c1c:	e51b3008 	ldr	r3, [fp, #-8]
20003c20:	e5933078 	ldr	r3, [r3, #120]	; 0x78
20003c24:	e3530000 	cmp	r3, #0
20003c28:	0a000049 	beq	20003d54 <tcp_slowtmr+0x2a4>
20003c2c:	e51b3008 	ldr	r3, [fp, #-8]
20003c30:	e1d323b6 	ldrh	r2, [r3, #54]	; 0x36
20003c34:	e51b3008 	ldr	r3, [fp, #-8]
20003c38:	e1d334b8 	ldrh	r3, [r3, #72]	; 0x48
20003c3c:	e1a02802 	lsl	r2, r2, #16
20003c40:	e1a02842 	asr	r2, r2, #16
20003c44:	e1a03803 	lsl	r3, r3, #16
20003c48:	e1a03843 	asr	r3, r3, #16
20003c4c:	e1520003 	cmp	r2, r3
20003c50:	ba00003f 	blt	20003d54 <tcp_slowtmr+0x2a4>
20003c54:	e51b3008 	ldr	r3, [fp, #-8]
20003c58:	e5d33010 	ldrb	r3, [r3, #16]
20003c5c:	e3530002 	cmp	r3, #2
20003c60:	0a000017 	beq	20003cc4 <tcp_slowtmr+0x214>
20003c64:	e51b3008 	ldr	r3, [fp, #-8]
20003c68:	e1d334b4 	ldrh	r3, [r3, #68]	; 0x44
20003c6c:	e1a03803 	lsl	r3, r3, #16
20003c70:	e1a03843 	asr	r3, r3, #16
20003c74:	e1a031c3 	asr	r3, r3, #3
20003c78:	e1a03803 	lsl	r3, r3, #16
20003c7c:	e1a03823 	lsr	r3, r3, #16
20003c80:	e1a03803 	lsl	r3, r3, #16
20003c84:	e1a02843 	asr	r2, r3, #16
20003c88:	e51b3008 	ldr	r3, [fp, #-8]
20003c8c:	e1d334b6 	ldrh	r3, [r3, #70]	; 0x46
20003c90:	e1a03803 	lsl	r3, r3, #16
20003c94:	e1a03843 	asr	r3, r3, #16
20003c98:	e0823003 	add	r3, r2, r3
20003c9c:	e51b2008 	ldr	r2, [fp, #-8]
20003ca0:	e5d2204a 	ldrb	r2, [r2, #74]	; 0x4a
20003ca4:	e1a01002 	mov	r1, r2
20003ca8:	e59f24e8 	ldr	r2, [pc, #1256]	; 20004198 <tcp_slowtmr+0x6e8>
20003cac:	e7d22001 	ldrb	r2, [r2, r1]
20003cb0:	e1a03213 	lsl	r3, r3, r2
20003cb4:	e1a03803 	lsl	r3, r3, #16
20003cb8:	e1a02823 	lsr	r2, r3, #16
20003cbc:	e51b3008 	ldr	r3, [fp, #-8]
20003cc0:	e1c324b8 	strh	r2, [r3, #72]	; 0x48
20003cc4:	e51b3008 	ldr	r3, [fp, #-8]
20003cc8:	e3a02000 	mov	r2, #0
20003ccc:	e1c323b6 	strh	r2, [r3, #54]	; 0x36
20003cd0:	e51b3008 	ldr	r3, [fp, #-8]
20003cd4:	e1d325bc 	ldrh	r2, [r3, #92]	; 0x5c
20003cd8:	e51b3008 	ldr	r3, [fp, #-8]
20003cdc:	e1d335b2 	ldrh	r3, [r3, #82]	; 0x52
20003ce0:	e1520003 	cmp	r2, r3
20003ce4:	31a03002 	movcc	r3, r2
20003ce8:	21a03003 	movcs	r3, r3
20003cec:	e14b31b2 	strh	r3, [fp, #-18]	; 0xffffffee
20003cf0:	e15b31b2 	ldrh	r3, [fp, #-18]	; 0xffffffee
20003cf4:	e1a030a3 	lsr	r3, r3, #1
20003cf8:	e1a03803 	lsl	r3, r3, #16
20003cfc:	e1a02823 	lsr	r2, r3, #16
20003d00:	e51b3008 	ldr	r3, [fp, #-8]
20003d04:	e1c325b4 	strh	r2, [r3, #84]	; 0x54
20003d08:	e51b3008 	ldr	r3, [fp, #-8]
20003d0c:	e1d325b4 	ldrh	r2, [r3, #84]	; 0x54
20003d10:	e51b3008 	ldr	r3, [fp, #-8]
20003d14:	e1d333b8 	ldrh	r3, [r3, #56]	; 0x38
20003d18:	e1520003 	cmp	r2, r3
20003d1c:	2a000006 	bcs	20003d3c <tcp_slowtmr+0x28c>
20003d20:	e51b3008 	ldr	r3, [fp, #-8]
20003d24:	e1d333b8 	ldrh	r3, [r3, #56]	; 0x38
20003d28:	e1a03083 	lsl	r3, r3, #1
20003d2c:	e1a03803 	lsl	r3, r3, #16
20003d30:	e1a02823 	lsr	r2, r3, #16
20003d34:	e51b3008 	ldr	r3, [fp, #-8]
20003d38:	e1c325b4 	strh	r2, [r3, #84]	; 0x54
20003d3c:	e51b3008 	ldr	r3, [fp, #-8]
20003d40:	e1d323b8 	ldrh	r2, [r3, #56]	; 0x38
20003d44:	e51b3008 	ldr	r3, [fp, #-8]
20003d48:	e1c325b2 	strh	r2, [r3, #82]	; 0x52
20003d4c:	e51b0008 	ldr	r0, [fp, #-8]
20003d50:	eb0018c4 	bl	2000a068 <tcp_rexmit_rto>
20003d54:	e51b3008 	ldr	r3, [fp, #-8]
20003d58:	e5d33010 	ldrb	r3, [r3, #16]
20003d5c:	e3530006 	cmp	r3, #6
20003d60:	1a000009 	bne	20003d8c <tcp_slowtmr+0x2dc>
20003d64:	e59f3420 	ldr	r3, [pc, #1056]	; 2000418c <tcp_slowtmr+0x6dc>
20003d68:	e5932000 	ldr	r2, [r3]
20003d6c:	e51b3008 	ldr	r3, [fp, #-8]
20003d70:	e5933030 	ldr	r3, [r3, #48]	; 0x30
20003d74:	e0633002 	rsb	r3, r3, r2
20003d78:	e3530028 	cmp	r3, #40	; 0x28
20003d7c:	9a000002 	bls	20003d8c <tcp_slowtmr+0x2dc>
20003d80:	e55b300d 	ldrb	r3, [fp, #-13]
20003d84:	e2833001 	add	r3, r3, #1
20003d88:	e54b300d 	strb	r3, [fp, #-13]
20003d8c:	e51b3008 	ldr	r3, [fp, #-8]
20003d90:	e1d330b8 	ldrh	r3, [r3, #8]
20003d94:	e2033008 	and	r3, r3, #8
20003d98:	e3530000 	cmp	r3, #0
20003d9c:	0a000040 	beq	20003ea4 <tcp_slowtmr+0x3f4>
20003da0:	e51b3008 	ldr	r3, [fp, #-8]
20003da4:	e5d33010 	ldrb	r3, [r3, #16]
20003da8:	e3530004 	cmp	r3, #4
20003dac:	0a000003 	beq	20003dc0 <tcp_slowtmr+0x310>
20003db0:	e51b3008 	ldr	r3, [fp, #-8]
20003db4:	e5d33010 	ldrb	r3, [r3, #16]
20003db8:	e3530007 	cmp	r3, #7
20003dbc:	1a000038 	bne	20003ea4 <tcp_slowtmr+0x3f4>
20003dc0:	e59f33c4 	ldr	r3, [pc, #964]	; 2000418c <tcp_slowtmr+0x6dc>
20003dc4:	e5932000 	ldr	r2, [r3]
20003dc8:	e51b3008 	ldr	r3, [fp, #-8]
20003dcc:	e5933030 	ldr	r3, [r3, #48]	; 0x30
20003dd0:	e0632002 	rsb	r2, r3, r2
20003dd4:	e51b3008 	ldr	r3, [fp, #-8]
20003dd8:	e5931094 	ldr	r1, [r3, #148]	; 0x94
20003ddc:	e59f33b8 	ldr	r3, [pc, #952]	; 2000419c <tcp_slowtmr+0x6ec>
20003de0:	e0813003 	add	r3, r1, r3
20003de4:	e59f13b4 	ldr	r1, [pc, #948]	; 200041a0 <tcp_slowtmr+0x6f0>
20003de8:	e0830391 	umull	r0, r3, r1, r3
20003dec:	e1a032a3 	lsr	r3, r3, #5
20003df0:	e1520003 	cmp	r2, r3
20003df4:	9a000006 	bls	20003e14 <tcp_slowtmr+0x364>
20003df8:	e55b300d 	ldrb	r3, [fp, #-13]
20003dfc:	e2833001 	add	r3, r3, #1
20003e00:	e54b300d 	strb	r3, [fp, #-13]
20003e04:	e55b300e 	ldrb	r3, [fp, #-14]
20003e08:	e2833001 	add	r3, r3, #1
20003e0c:	e54b300e 	strb	r3, [fp, #-14]
20003e10:	ea000023 	b	20003ea4 <tcp_slowtmr+0x3f4>
20003e14:	e59f3370 	ldr	r3, [pc, #880]	; 2000418c <tcp_slowtmr+0x6dc>
20003e18:	e5932000 	ldr	r2, [r3]
20003e1c:	e51b3008 	ldr	r3, [fp, #-8]
20003e20:	e5933030 	ldr	r3, [r3, #48]	; 0x30
20003e24:	e0631002 	rsb	r1, r3, r2
20003e28:	e51b3008 	ldr	r3, [fp, #-8]
20003e2c:	e5930094 	ldr	r0, [r3, #148]	; 0x94
20003e30:	e51b3008 	ldr	r3, [fp, #-8]
20003e34:	e5d3309d 	ldrb	r3, [r3, #157]	; 0x9d
20003e38:	e1a02003 	mov	r2, r3
20003e3c:	e1a03002 	mov	r3, r2
20003e40:	e1a03283 	lsl	r3, r3, #5
20003e44:	e0623003 	rsb	r3, r2, r3
20003e48:	e1a03103 	lsl	r3, r3, #2
20003e4c:	e0833002 	add	r3, r3, r2
20003e50:	e1a02103 	lsl	r2, r3, #2
20003e54:	e0833002 	add	r3, r3, r2
20003e58:	e1a02203 	lsl	r2, r3, #4
20003e5c:	e0632002 	rsb	r2, r3, r2
20003e60:	e1a03182 	lsl	r3, r2, #3
20003e64:	e1a02003 	mov	r2, r3
20003e68:	e1a03002 	mov	r3, r2
20003e6c:	e0803003 	add	r3, r0, r3
20003e70:	e59f2328 	ldr	r2, [pc, #808]	; 200041a0 <tcp_slowtmr+0x6f0>
20003e74:	e0830392 	umull	r0, r3, r2, r3
20003e78:	e1a032a3 	lsr	r3, r3, #5
20003e7c:	e1510003 	cmp	r1, r3
20003e80:	9a000007 	bls	20003ea4 <tcp_slowtmr+0x3f4>
20003e84:	e51b0008 	ldr	r0, [fp, #-8]
20003e88:	eb001940 	bl	2000a390 <tcp_keepalive>
20003e8c:	e51b3008 	ldr	r3, [fp, #-8]
20003e90:	e5d3309d 	ldrb	r3, [r3, #157]	; 0x9d
20003e94:	e2833001 	add	r3, r3, #1
20003e98:	e20320ff 	and	r2, r3, #255	; 0xff
20003e9c:	e51b3008 	ldr	r3, [fp, #-8]
20003ea0:	e5c3209d 	strb	r2, [r3, #157]	; 0x9d
20003ea4:	e51b3008 	ldr	r3, [fp, #-8]
20003ea8:	e5d33010 	ldrb	r3, [r3, #16]
20003eac:	e3530003 	cmp	r3, #3
20003eb0:	1a000009 	bne	20003edc <tcp_slowtmr+0x42c>
20003eb4:	e59f32d0 	ldr	r3, [pc, #720]	; 2000418c <tcp_slowtmr+0x6dc>
20003eb8:	e5932000 	ldr	r2, [r3]
20003ebc:	e51b3008 	ldr	r3, [fp, #-8]
20003ec0:	e5933030 	ldr	r3, [r3, #48]	; 0x30
20003ec4:	e0633002 	rsb	r3, r3, r2
20003ec8:	e3530028 	cmp	r3, #40	; 0x28
20003ecc:	9a000002 	bls	20003edc <tcp_slowtmr+0x42c>
20003ed0:	e55b300d 	ldrb	r3, [fp, #-13]
20003ed4:	e2833001 	add	r3, r3, #1
20003ed8:	e54b300d 	strb	r3, [fp, #-13]
20003edc:	e51b3008 	ldr	r3, [fp, #-8]
20003ee0:	e5d33010 	ldrb	r3, [r3, #16]
20003ee4:	e3530009 	cmp	r3, #9
20003ee8:	1a000009 	bne	20003f14 <tcp_slowtmr+0x464>
20003eec:	e59f3298 	ldr	r3, [pc, #664]	; 2000418c <tcp_slowtmr+0x6dc>
20003ef0:	e5932000 	ldr	r2, [r3]
20003ef4:	e51b3008 	ldr	r3, [fp, #-8]
20003ef8:	e5933030 	ldr	r3, [r3, #48]	; 0x30
20003efc:	e0633002 	rsb	r3, r3, r2
20003f00:	e35300f0 	cmp	r3, #240	; 0xf0
20003f04:	9a000002 	bls	20003f14 <tcp_slowtmr+0x464>
20003f08:	e55b300d 	ldrb	r3, [fp, #-13]
20003f0c:	e2833001 	add	r3, r3, #1
20003f10:	e54b300d 	strb	r3, [fp, #-13]
20003f14:	e55b300d 	ldrb	r3, [fp, #-13]
20003f18:	e3530000 	cmp	r3, #0
20003f1c:	0a000035 	beq	20003ff8 <tcp_slowtmr+0x548>
20003f20:	e51b0008 	ldr	r0, [fp, #-8]
20003f24:	eb00028c 	bl	2000495c <tcp_pcb_purge>
20003f28:	e51b300c 	ldr	r3, [fp, #-12]
20003f2c:	e3530000 	cmp	r3, #0
20003f30:	0a000004 	beq	20003f48 <tcp_slowtmr+0x498>
20003f34:	e51b3008 	ldr	r3, [fp, #-8]
20003f38:	e593200c 	ldr	r2, [r3, #12]
20003f3c:	e51b300c 	ldr	r3, [fp, #-12]
20003f40:	e583200c 	str	r2, [r3, #12]
20003f44:	ea000003 	b	20003f58 <tcp_slowtmr+0x4a8>
20003f48:	e51b3008 	ldr	r3, [fp, #-8]
20003f4c:	e593300c 	ldr	r3, [r3, #12]
20003f50:	e59f2238 	ldr	r2, [pc, #568]	; 20004190 <tcp_slowtmr+0x6e0>
20003f54:	e5823000 	str	r3, [r2]
20003f58:	e51b3008 	ldr	r3, [fp, #-8]
20003f5c:	e5933090 	ldr	r3, [r3, #144]	; 0x90
20003f60:	e3530000 	cmp	r3, #0
20003f64:	0a000007 	beq	20003f88 <tcp_slowtmr+0x4d8>
20003f68:	e51b3008 	ldr	r3, [fp, #-8]
20003f6c:	e5933090 	ldr	r3, [r3, #144]	; 0x90
20003f70:	e51b2008 	ldr	r2, [fp, #-8]
20003f74:	e5922014 	ldr	r2, [r2, #20]
20003f78:	e3e01004 	mvn	r1, #4
20003f7c:	e1a00002 	mov	r0, r2
20003f80:	e1a0e00f 	mov	lr, pc
20003f84:	e12fff13 	bx	r3
20003f88:	e55b300e 	ldrb	r3, [fp, #-14]
20003f8c:	e3530000 	cmp	r3, #0
20003f90:	0a00000f 	beq	20003fd4 <tcp_slowtmr+0x524>
20003f94:	e51b3008 	ldr	r3, [fp, #-8]
20003f98:	e5930058 	ldr	r0, [r3, #88]	; 0x58
20003f9c:	e51b3008 	ldr	r3, [fp, #-8]
20003fa0:	e5931024 	ldr	r1, [r3, #36]	; 0x24
20003fa4:	e51bc008 	ldr	ip, [fp, #-8]
20003fa8:	e51b3008 	ldr	r3, [fp, #-8]
20003fac:	e283e004 	add	lr, r3, #4
20003fb0:	e51b3008 	ldr	r3, [fp, #-8]
20003fb4:	e1d331b8 	ldrh	r3, [r3, #24]
20003fb8:	e51b2008 	ldr	r2, [fp, #-8]
20003fbc:	e1d222b0 	ldrh	r2, [r2, #32]
20003fc0:	e58d2004 	str	r2, [sp, #4]
20003fc4:	e58d3000 	str	r3, [sp]
20003fc8:	e1a0300e 	mov	r3, lr
20003fcc:	e1a0200c 	mov	r2, ip
20003fd0:	eb001742 	bl	20009ce0 <tcp_rst>
20003fd4:	e51b3008 	ldr	r3, [fp, #-8]
20003fd8:	e593300c 	ldr	r3, [r3, #12]
20003fdc:	e50b3018 	str	r3, [fp, #-24]	; 0xffffffe8
20003fe0:	e51b1008 	ldr	r1, [fp, #-8]
20003fe4:	e3a00002 	mov	r0, #2
20003fe8:	ebfff38b 	bl	20000e1c <memp_free>
20003fec:	e51b3018 	ldr	r3, [fp, #-24]	; 0xffffffe8
20003ff0:	e50b3008 	str	r3, [fp, #-8]
20003ff4:	ea000029 	b	200040a0 <tcp_slowtmr+0x5f0>
20003ff8:	e51b3008 	ldr	r3, [fp, #-8]
20003ffc:	e5d33034 	ldrb	r3, [r3, #52]	; 0x34
20004000:	e2833001 	add	r3, r3, #1
20004004:	e20320ff 	and	r2, r3, #255	; 0xff
20004008:	e51b3008 	ldr	r3, [fp, #-8]
2000400c:	e5c32034 	strb	r2, [r3, #52]	; 0x34
20004010:	e51b3008 	ldr	r3, [fp, #-8]
20004014:	e5d32034 	ldrb	r2, [r3, #52]	; 0x34
20004018:	e51b3008 	ldr	r3, [fp, #-8]
2000401c:	e5d33035 	ldrb	r3, [r3, #53]	; 0x35
20004020:	e1520003 	cmp	r2, r3
20004024:	3a000018 	bcc	2000408c <tcp_slowtmr+0x5dc>
20004028:	e51b3008 	ldr	r3, [fp, #-8]
2000402c:	e3a02000 	mov	r2, #0
20004030:	e5c32034 	strb	r2, [r3, #52]	; 0x34
20004034:	e51b3008 	ldr	r3, [fp, #-8]
20004038:	e593308c 	ldr	r3, [r3, #140]	; 0x8c
2000403c:	e3530000 	cmp	r3, #0
20004040:	0a00000a 	beq	20004070 <tcp_slowtmr+0x5c0>
20004044:	e51b3008 	ldr	r3, [fp, #-8]
20004048:	e593308c 	ldr	r3, [r3, #140]	; 0x8c
2000404c:	e51b2008 	ldr	r2, [fp, #-8]
20004050:	e5922014 	ldr	r2, [r2, #20]
20004054:	e51b1008 	ldr	r1, [fp, #-8]
20004058:	e1a00002 	mov	r0, r2
2000405c:	e1a0e00f 	mov	lr, pc
20004060:	e12fff13 	bx	r3
20004064:	e1a03000 	mov	r3, r0
20004068:	e54b300f 	strb	r3, [fp, #-15]
2000406c:	ea000001 	b	20004078 <tcp_slowtmr+0x5c8>
20004070:	e3a03000 	mov	r3, #0
20004074:	e54b300f 	strb	r3, [fp, #-15]
20004078:	e15b30df 	ldrsb	r3, [fp, #-15]
2000407c:	e3530000 	cmp	r3, #0
20004080:	1a000001 	bne	2000408c <tcp_slowtmr+0x5dc>
20004084:	e51b0008 	ldr	r0, [fp, #-8]
20004088:	eb00148e 	bl	200092c8 <tcp_output>
2000408c:	e51b3008 	ldr	r3, [fp, #-8]
20004090:	e50b300c 	str	r3, [fp, #-12]
20004094:	e51b3008 	ldr	r3, [fp, #-8]
20004098:	e593300c 	ldr	r3, [r3, #12]
2000409c:	e50b3008 	str	r3, [fp, #-8]
200040a0:	e51b3008 	ldr	r3, [fp, #-8]
200040a4:	e3530000 	cmp	r3, #0
200040a8:	1afffe90 	bne	20003af0 <tcp_slowtmr+0x40>
200040ac:	e3a03000 	mov	r3, #0
200040b0:	e50b300c 	str	r3, [fp, #-12]
200040b4:	e59f30e8 	ldr	r3, [pc, #232]	; 200041a4 <tcp_slowtmr+0x6f4>
200040b8:	e5933000 	ldr	r3, [r3]
200040bc:	e50b3008 	str	r3, [fp, #-8]
200040c0:	ea00002a 	b	20004170 <tcp_slowtmr+0x6c0>
200040c4:	e3a03000 	mov	r3, #0
200040c8:	e54b300d 	strb	r3, [fp, #-13]
200040cc:	e59f30b8 	ldr	r3, [pc, #184]	; 2000418c <tcp_slowtmr+0x6dc>
200040d0:	e5932000 	ldr	r2, [r3]
200040d4:	e51b3008 	ldr	r3, [fp, #-8]
200040d8:	e5933030 	ldr	r3, [r3, #48]	; 0x30
200040dc:	e0633002 	rsb	r3, r3, r2
200040e0:	e35300f0 	cmp	r3, #240	; 0xf0
200040e4:	9a000002 	bls	200040f4 <tcp_slowtmr+0x644>
200040e8:	e55b300d 	ldrb	r3, [fp, #-13]
200040ec:	e2833001 	add	r3, r3, #1
200040f0:	e54b300d 	strb	r3, [fp, #-13]
200040f4:	e55b300d 	ldrb	r3, [fp, #-13]
200040f8:	e3530000 	cmp	r3, #0
200040fc:	0a000016 	beq	2000415c <tcp_slowtmr+0x6ac>
20004100:	e51b0008 	ldr	r0, [fp, #-8]
20004104:	eb000214 	bl	2000495c <tcp_pcb_purge>
20004108:	e51b300c 	ldr	r3, [fp, #-12]
2000410c:	e3530000 	cmp	r3, #0
20004110:	0a000004 	beq	20004128 <tcp_slowtmr+0x678>
20004114:	e51b3008 	ldr	r3, [fp, #-8]
20004118:	e593200c 	ldr	r2, [r3, #12]
2000411c:	e51b300c 	ldr	r3, [fp, #-12]
20004120:	e583200c 	str	r2, [r3, #12]
20004124:	ea000003 	b	20004138 <tcp_slowtmr+0x688>
20004128:	e51b3008 	ldr	r3, [fp, #-8]
2000412c:	e593300c 	ldr	r3, [r3, #12]
20004130:	e59f206c 	ldr	r2, [pc, #108]	; 200041a4 <tcp_slowtmr+0x6f4>
20004134:	e5823000 	str	r3, [r2]
20004138:	e51b3008 	ldr	r3, [fp, #-8]
2000413c:	e593300c 	ldr	r3, [r3, #12]
20004140:	e50b3018 	str	r3, [fp, #-24]	; 0xffffffe8
20004144:	e51b1008 	ldr	r1, [fp, #-8]
20004148:	e3a00002 	mov	r0, #2
2000414c:	ebfff332 	bl	20000e1c <memp_free>
20004150:	e51b3018 	ldr	r3, [fp, #-24]	; 0xffffffe8
20004154:	e50b3008 	str	r3, [fp, #-8]
20004158:	ea000004 	b	20004170 <tcp_slowtmr+0x6c0>
2000415c:	e51b3008 	ldr	r3, [fp, #-8]
20004160:	e50b300c 	str	r3, [fp, #-12]
20004164:	e51b3008 	ldr	r3, [fp, #-8]
20004168:	e593300c 	ldr	r3, [r3, #12]
2000416c:	e50b3008 	str	r3, [fp, #-8]
20004170:	e51b3008 	ldr	r3, [fp, #-8]
20004174:	e3530000 	cmp	r3, #0
20004178:	1affffd1 	bne	200040c4 <tcp_slowtmr+0x614>
2000417c:	e1a00000 	nop			; (mov r0, r0)
20004180:	e24bd004 	sub	sp, fp, #4
20004184:	e8bd4800 	pop	{fp, lr}
20004188:	e12fff1e 	bx	lr
2000418c:	2001574c 	.word	0x2001574c
20004190:	20015748 	.word	0x20015748
20004194:	200135f8 	.word	0x200135f8
20004198:	200135e8 	.word	0x200135e8
2000419c:	000a4cb8 	.word	0x000a4cb8
200041a0:	10624dd3 	.word	0x10624dd3
200041a4:	2001575c 	.word	0x2001575c

200041a8 <tcp_fasttmr>:
200041a8:	e92d4810 	push	{r4, fp, lr}
200041ac:	e28db008 	add	fp, sp, #8
200041b0:	e24dd00c 	sub	sp, sp, #12
200041b4:	e59f3108 	ldr	r3, [pc, #264]	; 200042c4 <tcp_fasttmr+0x11c>
200041b8:	e5933000 	ldr	r3, [r3]
200041bc:	e50b3010 	str	r3, [fp, #-16]
200041c0:	ea000038 	b	200042a8 <tcp_fasttmr+0x100>
200041c4:	e51b3010 	ldr	r3, [fp, #-16]
200041c8:	e593307c 	ldr	r3, [r3, #124]	; 0x7c
200041cc:	e3530000 	cmp	r3, #0
200041d0:	0a00001e 	beq	20004250 <tcp_fasttmr+0xa8>
200041d4:	e51b3010 	ldr	r3, [fp, #-16]
200041d8:	e5933084 	ldr	r3, [r3, #132]	; 0x84
200041dc:	e3530000 	cmp	r3, #0
200041e0:	0a00000c 	beq	20004218 <tcp_fasttmr+0x70>
200041e4:	e51b3010 	ldr	r3, [fp, #-16]
200041e8:	e5934084 	ldr	r4, [r3, #132]	; 0x84
200041ec:	e51b3010 	ldr	r3, [fp, #-16]
200041f0:	e5930014 	ldr	r0, [r3, #20]
200041f4:	e51b3010 	ldr	r3, [fp, #-16]
200041f8:	e593207c 	ldr	r2, [r3, #124]	; 0x7c
200041fc:	e3a03000 	mov	r3, #0
20004200:	e51b1010 	ldr	r1, [fp, #-16]
20004204:	e1a0e00f 	mov	lr, pc
20004208:	e12fff14 	bx	r4
2000420c:	e1a03000 	mov	r3, r0
20004210:	e54b3011 	strb	r3, [fp, #-17]	; 0xffffffef
20004214:	ea000007 	b	20004238 <tcp_fasttmr+0x90>
20004218:	e51b3010 	ldr	r3, [fp, #-16]
2000421c:	e593207c 	ldr	r2, [r3, #124]	; 0x7c
20004220:	e3a03000 	mov	r3, #0
20004224:	e51b1010 	ldr	r1, [fp, #-16]
20004228:	e3a00000 	mov	r0, #0
2000422c:	eb000068 	bl	200043d4 <tcp_recv_null>
20004230:	e1a03000 	mov	r3, r0
20004234:	e54b3011 	strb	r3, [fp, #-17]	; 0xffffffef
20004238:	e15b31d1 	ldrsb	r3, [fp, #-17]	; 0xffffffef
2000423c:	e3530000 	cmp	r3, #0
20004240:	1a000002 	bne	20004250 <tcp_fasttmr+0xa8>
20004244:	e51b3010 	ldr	r3, [fp, #-16]
20004248:	e3a02000 	mov	r2, #0
2000424c:	e583207c 	str	r2, [r3, #124]	; 0x7c
20004250:	e51b3010 	ldr	r3, [fp, #-16]
20004254:	e5d33022 	ldrb	r3, [r3, #34]	; 0x22
20004258:	e2033001 	and	r3, r3, #1
2000425c:	e3530000 	cmp	r3, #0
20004260:	0a00000d 	beq	2000429c <tcp_fasttmr+0xf4>
20004264:	e51b3010 	ldr	r3, [fp, #-16]
20004268:	e5d33022 	ldrb	r3, [r3, #34]	; 0x22
2000426c:	e3833002 	orr	r3, r3, #2
20004270:	e20320ff 	and	r2, r3, #255	; 0xff
20004274:	e51b3010 	ldr	r3, [fp, #-16]
20004278:	e5c32022 	strb	r2, [r3, #34]	; 0x22
2000427c:	e51b0010 	ldr	r0, [fp, #-16]
20004280:	eb001410 	bl	200092c8 <tcp_output>
20004284:	e51b3010 	ldr	r3, [fp, #-16]
20004288:	e5d33022 	ldrb	r3, [r3, #34]	; 0x22
2000428c:	e3c33003 	bic	r3, r3, #3
20004290:	e20320ff 	and	r2, r3, #255	; 0xff
20004294:	e51b3010 	ldr	r3, [fp, #-16]
20004298:	e5c32022 	strb	r2, [r3, #34]	; 0x22
2000429c:	e51b3010 	ldr	r3, [fp, #-16]
200042a0:	e593300c 	ldr	r3, [r3, #12]
200042a4:	e50b3010 	str	r3, [fp, #-16]
200042a8:	e51b3010 	ldr	r3, [fp, #-16]
200042ac:	e3530000 	cmp	r3, #0
200042b0:	1affffc3 	bne	200041c4 <tcp_fasttmr+0x1c>
200042b4:	e1a00000 	nop			; (mov r0, r0)
200042b8:	e24bd008 	sub	sp, fp, #8
200042bc:	e8bd4810 	pop	{r4, fp, lr}
200042c0:	e12fff1e 	bx	lr
200042c4:	20015748 	.word	0x20015748

200042c8 <tcp_segs_free>:
200042c8:	e92d4800 	push	{fp, lr}
200042cc:	e28db004 	add	fp, sp, #4
200042d0:	e24dd010 	sub	sp, sp, #16
200042d4:	e50b0010 	str	r0, [fp, #-16]
200042d8:	e3a03000 	mov	r3, #0
200042dc:	e54b3005 	strb	r3, [fp, #-5]
200042e0:	ea00000b 	b	20004314 <tcp_segs_free+0x4c>
200042e4:	e51b3010 	ldr	r3, [fp, #-16]
200042e8:	e5933000 	ldr	r3, [r3]
200042ec:	e50b300c 	str	r3, [fp, #-12]
200042f0:	e51b0010 	ldr	r0, [fp, #-16]
200042f4:	eb00000e 	bl	20004334 <tcp_seg_free>
200042f8:	e1a03000 	mov	r3, r0
200042fc:	e1a02003 	mov	r2, r3
20004300:	e55b3005 	ldrb	r3, [fp, #-5]
20004304:	e0823003 	add	r3, r2, r3
20004308:	e54b3005 	strb	r3, [fp, #-5]
2000430c:	e51b300c 	ldr	r3, [fp, #-12]
20004310:	e50b3010 	str	r3, [fp, #-16]
20004314:	e51b3010 	ldr	r3, [fp, #-16]
20004318:	e3530000 	cmp	r3, #0
2000431c:	1afffff0 	bne	200042e4 <tcp_segs_free+0x1c>
20004320:	e55b3005 	ldrb	r3, [fp, #-5]
20004324:	e1a00003 	mov	r0, r3
20004328:	e24bd004 	sub	sp, fp, #4
2000432c:	e8bd4800 	pop	{fp, lr}
20004330:	e12fff1e 	bx	lr

20004334 <tcp_seg_free>:
20004334:	e92d4800 	push	{fp, lr}
20004338:	e28db004 	add	fp, sp, #4
2000433c:	e24dd010 	sub	sp, sp, #16
20004340:	e50b0010 	str	r0, [fp, #-16]
20004344:	e3a03000 	mov	r3, #0
20004348:	e54b3005 	strb	r3, [fp, #-5]
2000434c:	e51b3010 	ldr	r3, [fp, #-16]
20004350:	e3530000 	cmp	r3, #0
20004354:	0a00000c 	beq	2000438c <tcp_seg_free+0x58>
20004358:	e51b3010 	ldr	r3, [fp, #-16]
2000435c:	e5933004 	ldr	r3, [r3, #4]
20004360:	e3530000 	cmp	r3, #0
20004364:	0a000005 	beq	20004380 <tcp_seg_free+0x4c>
20004368:	e51b3010 	ldr	r3, [fp, #-16]
2000436c:	e5933004 	ldr	r3, [r3, #4]
20004370:	e1a00003 	mov	r0, r3
20004374:	ebfff63e 	bl	20001c74 <pbuf_free>
20004378:	e1a03000 	mov	r3, r0
2000437c:	e54b3005 	strb	r3, [fp, #-5]
20004380:	e51b1010 	ldr	r1, [fp, #-16]
20004384:	e3a00004 	mov	r0, #4
20004388:	ebfff2a3 	bl	20000e1c <memp_free>
2000438c:	e55b3005 	ldrb	r3, [fp, #-5]
20004390:	e1a00003 	mov	r0, r3
20004394:	e24bd004 	sub	sp, fp, #4
20004398:	e8bd4800 	pop	{fp, lr}
2000439c:	e12fff1e 	bx	lr

200043a0 <tcp_setprio>:
200043a0:	e52db004 	push	{fp}		; (str fp, [sp, #-4]!)
200043a4:	e28db000 	add	fp, sp, #0
200043a8:	e24dd00c 	sub	sp, sp, #12
200043ac:	e50b0008 	str	r0, [fp, #-8]
200043b0:	e1a03001 	mov	r3, r1
200043b4:	e54b3009 	strb	r3, [fp, #-9]
200043b8:	e51b3008 	ldr	r3, [fp, #-8]
200043bc:	e55b2009 	ldrb	r2, [fp, #-9]
200043c0:	e5c32011 	strb	r2, [r3, #17]
200043c4:	e1a00000 	nop			; (mov r0, r0)
200043c8:	e24bd000 	sub	sp, fp, #0
200043cc:	e49db004 	pop	{fp}		; (ldr fp, [sp], #4)
200043d0:	e12fff1e 	bx	lr

200043d4 <tcp_recv_null>:
200043d4:	e92d4800 	push	{fp, lr}
200043d8:	e28db004 	add	fp, sp, #4
200043dc:	e24dd010 	sub	sp, sp, #16
200043e0:	e50b0008 	str	r0, [fp, #-8]
200043e4:	e50b100c 	str	r1, [fp, #-12]
200043e8:	e50b2010 	str	r2, [fp, #-16]
200043ec:	e54b3011 	strb	r3, [fp, #-17]	; 0xffffffef
200043f0:	e51b3010 	ldr	r3, [fp, #-16]
200043f4:	e3530000 	cmp	r3, #0
200043f8:	0a000007 	beq	2000441c <tcp_recv_null+0x48>
200043fc:	e51b3010 	ldr	r3, [fp, #-16]
20004400:	e1d330b8 	ldrh	r3, [r3, #8]
20004404:	e1a01003 	mov	r1, r3
20004408:	e51b000c 	ldr	r0, [fp, #-12]
2000440c:	ebfffc82 	bl	2000361c <tcp_recved>
20004410:	e51b0010 	ldr	r0, [fp, #-16]
20004414:	ebfff616 	bl	20001c74 <pbuf_free>
20004418:	ea000006 	b	20004438 <tcp_recv_null+0x64>
2000441c:	e15b31d1 	ldrsb	r3, [fp, #-17]	; 0xffffffef
20004420:	e3530000 	cmp	r3, #0
20004424:	1a000003 	bne	20004438 <tcp_recv_null+0x64>
20004428:	e51b000c 	ldr	r0, [fp, #-12]
2000442c:	ebfff9ae 	bl	20002aec <tcp_close>
20004430:	e1a03000 	mov	r3, r0
20004434:	ea000000 	b	2000443c <tcp_recv_null+0x68>
20004438:	e3a03000 	mov	r3, #0
2000443c:	e1a03c03 	lsl	r3, r3, #24
20004440:	e1a03c43 	asr	r3, r3, #24
20004444:	e1a00003 	mov	r0, r3
20004448:	e24bd004 	sub	sp, fp, #4
2000444c:	e8bd4800 	pop	{fp, lr}
20004450:	e12fff1e 	bx	lr

20004454 <tcp_kill_prio>:
20004454:	e92d4800 	push	{fp, lr}
20004458:	e28db004 	add	fp, sp, #4
2000445c:	e24dd018 	sub	sp, sp, #24
20004460:	e1a03000 	mov	r3, r0
20004464:	e54b3015 	strb	r3, [fp, #-21]	; 0xffffffeb
20004468:	e3a0307f 	mov	r3, #127	; 0x7f
2000446c:	e54b3011 	strb	r3, [fp, #-17]	; 0xffffffef
20004470:	e3a03000 	mov	r3, #0
20004474:	e50b3010 	str	r3, [fp, #-16]
20004478:	e3a03000 	mov	r3, #0
2000447c:	e50b300c 	str	r3, [fp, #-12]
20004480:	e59f30bc 	ldr	r3, [pc, #188]	; 20004544 <tcp_kill_prio+0xf0>
20004484:	e5933000 	ldr	r3, [r3]
20004488:	e50b3008 	str	r3, [fp, #-8]
2000448c:	ea00001f 	b	20004510 <tcp_kill_prio+0xbc>
20004490:	e51b3008 	ldr	r3, [fp, #-8]
20004494:	e5d33011 	ldrb	r3, [r3, #17]
20004498:	e55b2015 	ldrb	r2, [fp, #-21]	; 0xffffffeb
2000449c:	e1520003 	cmp	r2, r3
200044a0:	3a000017 	bcc	20004504 <tcp_kill_prio+0xb0>
200044a4:	e51b3008 	ldr	r3, [fp, #-8]
200044a8:	e5d33011 	ldrb	r3, [r3, #17]
200044ac:	e55b2011 	ldrb	r2, [fp, #-17]	; 0xffffffef
200044b0:	e1520003 	cmp	r2, r3
200044b4:	3a000012 	bcc	20004504 <tcp_kill_prio+0xb0>
200044b8:	e59f3088 	ldr	r3, [pc, #136]	; 20004548 <tcp_kill_prio+0xf4>
200044bc:	e5932000 	ldr	r2, [r3]
200044c0:	e51b3008 	ldr	r3, [fp, #-8]
200044c4:	e5933030 	ldr	r3, [r3, #48]	; 0x30
200044c8:	e0632002 	rsb	r2, r3, r2
200044cc:	e51b3010 	ldr	r3, [fp, #-16]
200044d0:	e1520003 	cmp	r2, r3
200044d4:	3a00000a 	bcc	20004504 <tcp_kill_prio+0xb0>
200044d8:	e59f3068 	ldr	r3, [pc, #104]	; 20004548 <tcp_kill_prio+0xf4>
200044dc:	e5932000 	ldr	r2, [r3]
200044e0:	e51b3008 	ldr	r3, [fp, #-8]
200044e4:	e5933030 	ldr	r3, [r3, #48]	; 0x30
200044e8:	e0633002 	rsb	r3, r3, r2
200044ec:	e50b3010 	str	r3, [fp, #-16]
200044f0:	e51b3008 	ldr	r3, [fp, #-8]
200044f4:	e50b300c 	str	r3, [fp, #-12]
200044f8:	e51b3008 	ldr	r3, [fp, #-8]
200044fc:	e5d33011 	ldrb	r3, [r3, #17]
20004500:	e54b3011 	strb	r3, [fp, #-17]	; 0xffffffef
20004504:	e51b3008 	ldr	r3, [fp, #-8]
20004508:	e593300c 	ldr	r3, [r3, #12]
2000450c:	e50b3008 	str	r3, [fp, #-8]
20004510:	e51b3008 	ldr	r3, [fp, #-8]
20004514:	e3530000 	cmp	r3, #0
20004518:	1affffdc 	bne	20004490 <tcp_kill_prio+0x3c>
2000451c:	e51b300c 	ldr	r3, [fp, #-12]
20004520:	e3530000 	cmp	r3, #0
20004524:	0a000002 	beq	20004534 <tcp_kill_prio+0xe0>
20004528:	e3a01001 	mov	r1, #1
2000452c:	e51b000c 	ldr	r0, [fp, #-12]
20004530:	ebfffa05 	bl	20002d4c <tcp_abandon>
20004534:	e1a00000 	nop			; (mov r0, r0)
20004538:	e24bd004 	sub	sp, fp, #4
2000453c:	e8bd4800 	pop	{fp, lr}
20004540:	e12fff1e 	bx	lr
20004544:	20015748 	.word	0x20015748
20004548:	2001574c 	.word	0x2001574c

2000454c <tcp_kill_timewait>:
2000454c:	e92d4800 	push	{fp, lr}
20004550:	e28db004 	add	fp, sp, #4
20004554:	e24dd010 	sub	sp, sp, #16
20004558:	e3a03000 	mov	r3, #0
2000455c:	e50b3010 	str	r3, [fp, #-16]
20004560:	e3a03000 	mov	r3, #0
20004564:	e50b300c 	str	r3, [fp, #-12]
20004568:	e59f3088 	ldr	r3, [pc, #136]	; 200045f8 <tcp_kill_timewait+0xac>
2000456c:	e5933000 	ldr	r3, [r3]
20004570:	e50b3008 	str	r3, [fp, #-8]
20004574:	ea000012 	b	200045c4 <tcp_kill_timewait+0x78>
20004578:	e59f307c 	ldr	r3, [pc, #124]	; 200045fc <tcp_kill_timewait+0xb0>
2000457c:	e5932000 	ldr	r2, [r3]
20004580:	e51b3008 	ldr	r3, [fp, #-8]
20004584:	e5933030 	ldr	r3, [r3, #48]	; 0x30
20004588:	e0632002 	rsb	r2, r3, r2
2000458c:	e51b3010 	ldr	r3, [fp, #-16]
20004590:	e1520003 	cmp	r2, r3
20004594:	3a000007 	bcc	200045b8 <tcp_kill_timewait+0x6c>
20004598:	e59f305c 	ldr	r3, [pc, #92]	; 200045fc <tcp_kill_timewait+0xb0>
2000459c:	e5932000 	ldr	r2, [r3]
200045a0:	e51b3008 	ldr	r3, [fp, #-8]
200045a4:	e5933030 	ldr	r3, [r3, #48]	; 0x30
200045a8:	e0633002 	rsb	r3, r3, r2
200045ac:	e50b3010 	str	r3, [fp, #-16]
200045b0:	e51b3008 	ldr	r3, [fp, #-8]
200045b4:	e50b300c 	str	r3, [fp, #-12]
200045b8:	e51b3008 	ldr	r3, [fp, #-8]
200045bc:	e593300c 	ldr	r3, [r3, #12]
200045c0:	e50b3008 	str	r3, [fp, #-8]
200045c4:	e51b3008 	ldr	r3, [fp, #-8]
200045c8:	e3530000 	cmp	r3, #0
200045cc:	1affffe9 	bne	20004578 <tcp_kill_timewait+0x2c>
200045d0:	e51b300c 	ldr	r3, [fp, #-12]
200045d4:	e3530000 	cmp	r3, #0
200045d8:	0a000002 	beq	200045e8 <tcp_kill_timewait+0x9c>
200045dc:	e3a01001 	mov	r1, #1
200045e0:	e51b000c 	ldr	r0, [fp, #-12]
200045e4:	ebfff9d8 	bl	20002d4c <tcp_abandon>
200045e8:	e1a00000 	nop			; (mov r0, r0)
200045ec:	e24bd004 	sub	sp, fp, #4
200045f0:	e8bd4800 	pop	{fp, lr}
200045f4:	e12fff1e 	bx	lr
200045f8:	2001575c 	.word	0x2001575c
200045fc:	2001574c 	.word	0x2001574c

20004600 <tcp_alloc>:
20004600:	e92d4800 	push	{fp, lr}
20004604:	e28db004 	add	fp, sp, #4
20004608:	e24dd010 	sub	sp, sp, #16
2000460c:	e1a03000 	mov	r3, r0
20004610:	e54b300d 	strb	r3, [fp, #-13]
20004614:	e3a00002 	mov	r0, #2
20004618:	ebfff193 	bl	20000c6c <memp_malloc>
2000461c:	e50b0008 	str	r0, [fp, #-8]
20004620:	e51b3008 	ldr	r3, [fp, #-8]
20004624:	e3530000 	cmp	r3, #0
20004628:	1a000020 	bne	200046b0 <tcp_alloc+0xb0>
2000462c:	ebffffc6 	bl	2000454c <tcp_kill_timewait>
20004630:	e3a00002 	mov	r0, #2
20004634:	ebfff18c 	bl	20000c6c <memp_malloc>
20004638:	e50b0008 	str	r0, [fp, #-8]
2000463c:	e51b3008 	ldr	r3, [fp, #-8]
20004640:	e3530000 	cmp	r3, #0
20004644:	1a00000f 	bne	20004688 <tcp_alloc+0x88>
20004648:	e55b300d 	ldrb	r3, [fp, #-13]
2000464c:	e1a00003 	mov	r0, r3
20004650:	ebffff7f 	bl	20004454 <tcp_kill_prio>
20004654:	e3a00002 	mov	r0, #2
20004658:	ebfff183 	bl	20000c6c <memp_malloc>
2000465c:	e50b0008 	str	r0, [fp, #-8]
20004660:	e51b3008 	ldr	r3, [fp, #-8]
20004664:	e3530000 	cmp	r3, #0
20004668:	0a000006 	beq	20004688 <tcp_alloc+0x88>
2000466c:	e59f3180 	ldr	r3, [pc, #384]	; 200047f4 <tcp_alloc+0x1f4>
20004670:	e1d33cbc 	ldrh	r3, [r3, #204]	; 0xcc
20004674:	e2433001 	sub	r3, r3, #1
20004678:	e1a03803 	lsl	r3, r3, #16
2000467c:	e1a03823 	lsr	r3, r3, #16
20004680:	e59f216c 	ldr	r2, [pc, #364]	; 200047f4 <tcp_alloc+0x1f4>
20004684:	e1c23cbc 	strh	r3, [r2, #204]	; 0xcc
20004688:	e51b3008 	ldr	r3, [fp, #-8]
2000468c:	e3530000 	cmp	r3, #0
20004690:	0a000006 	beq	200046b0 <tcp_alloc+0xb0>
20004694:	e59f3158 	ldr	r3, [pc, #344]	; 200047f4 <tcp_alloc+0x1f4>
20004698:	e1d33cbc 	ldrh	r3, [r3, #204]	; 0xcc
2000469c:	e2433001 	sub	r3, r3, #1
200046a0:	e1a03803 	lsl	r3, r3, #16
200046a4:	e1a03823 	lsr	r3, r3, #16
200046a8:	e59f2144 	ldr	r2, [pc, #324]	; 200047f4 <tcp_alloc+0x1f4>
200046ac:	e1c23cbc 	strh	r3, [r2, #204]	; 0xcc
200046b0:	e51b3008 	ldr	r3, [fp, #-8]
200046b4:	e3530000 	cmp	r3, #0
200046b8:	0a000048 	beq	200047e0 <tcp_alloc+0x1e0>
200046bc:	e3a020a0 	mov	r2, #160	; 0xa0
200046c0:	e3a01000 	mov	r1, #0
200046c4:	e51b0008 	ldr	r0, [fp, #-8]
200046c8:	eb003d7b 	bl	20013cbc <memset>
200046cc:	e51b3008 	ldr	r3, [fp, #-8]
200046d0:	e3a02040 	mov	r2, #64	; 0x40
200046d4:	e5c32011 	strb	r2, [r3, #17]
200046d8:	e51b3008 	ldr	r3, [fp, #-8]
200046dc:	e3a02c01 	mov	r2, #256	; 0x100
200046e0:	e1c326be 	strh	r2, [r3, #110]	; 0x6e
200046e4:	e51b3008 	ldr	r3, [fp, #-8]
200046e8:	e3a02000 	mov	r2, #0
200046ec:	e1c327b0 	strh	r2, [r3, #112]	; 0x70
200046f0:	e51b3008 	ldr	r3, [fp, #-8]
200046f4:	e3a02c02 	mov	r2, #512	; 0x200
200046f8:	e1c322b8 	strh	r2, [r3, #40]	; 0x28
200046fc:	e51b3008 	ldr	r3, [fp, #-8]
20004700:	e3a02c02 	mov	r2, #512	; 0x200
20004704:	e1c322ba 	strh	r2, [r3, #42]	; 0x2a
20004708:	e51b3008 	ldr	r3, [fp, #-8]
2000470c:	e3a02000 	mov	r2, #0
20004710:	e5c3200a 	strb	r2, [r3, #10]
20004714:	e51b3008 	ldr	r3, [fp, #-8]
20004718:	e3e02000 	mvn	r2, #0
2000471c:	e5c3200b 	strb	r2, [r3, #11]
20004720:	e51b3008 	ldr	r3, [fp, #-8]
20004724:	e3a02080 	mov	r2, #128	; 0x80
20004728:	e1c323b8 	strh	r2, [r3, #56]	; 0x38
2000472c:	e51b3008 	ldr	r3, [fp, #-8]
20004730:	e3a02006 	mov	r2, #6
20004734:	e1c324b8 	strh	r2, [r3, #72]	; 0x48
20004738:	e51b3008 	ldr	r3, [fp, #-8]
2000473c:	e3a02000 	mov	r2, #0
20004740:	e1c324b4 	strh	r2, [r3, #68]	; 0x44
20004744:	e51b3008 	ldr	r3, [fp, #-8]
20004748:	e3a02006 	mov	r2, #6
2000474c:	e1c324b6 	strh	r2, [r3, #70]	; 0x46
20004750:	e51b3008 	ldr	r3, [fp, #-8]
20004754:	e3e02000 	mvn	r2, #0
20004758:	e1c323b6 	strh	r2, [r3, #54]	; 0x36
2000475c:	e51b3008 	ldr	r3, [fp, #-8]
20004760:	e3a02001 	mov	r2, #1
20004764:	e1c325b2 	strh	r2, [r3, #82]	; 0x52
20004768:	eb0000f8 	bl	20004b50 <tcp_next_iss>
2000476c:	e50b000c 	str	r0, [fp, #-12]
20004770:	e51b3008 	ldr	r3, [fp, #-8]
20004774:	e51b200c 	ldr	r2, [fp, #-12]
20004778:	e5832064 	str	r2, [r3, #100]	; 0x64
2000477c:	e51b3008 	ldr	r3, [fp, #-8]
20004780:	e51b200c 	ldr	r2, [fp, #-12]
20004784:	e5832058 	str	r2, [r3, #88]	; 0x58
20004788:	e51b3008 	ldr	r3, [fp, #-8]
2000478c:	e51b200c 	ldr	r2, [fp, #-12]
20004790:	e583204c 	str	r2, [r3, #76]	; 0x4c
20004794:	e51b3008 	ldr	r3, [fp, #-8]
20004798:	e51b200c 	ldr	r2, [fp, #-12]
2000479c:	e5832068 	str	r2, [r3, #104]	; 0x68
200047a0:	e59f3050 	ldr	r3, [pc, #80]	; 200047f8 <tcp_alloc+0x1f8>
200047a4:	e5932000 	ldr	r2, [r3]
200047a8:	e51b3008 	ldr	r3, [fp, #-8]
200047ac:	e5832030 	str	r2, [r3, #48]	; 0x30
200047b0:	e51b3008 	ldr	r3, [fp, #-8]
200047b4:	e3a02000 	mov	r2, #0
200047b8:	e5c32034 	strb	r2, [r3, #52]	; 0x34
200047bc:	e51b3008 	ldr	r3, [fp, #-8]
200047c0:	e59f2034 	ldr	r2, [pc, #52]	; 200047fc <tcp_alloc+0x1fc>
200047c4:	e5832084 	str	r2, [r3, #132]	; 0x84
200047c8:	e51b3008 	ldr	r3, [fp, #-8]
200047cc:	e59f202c 	ldr	r2, [pc, #44]	; 20004800 <tcp_alloc+0x200>
200047d0:	e5832094 	str	r2, [r3, #148]	; 0x94
200047d4:	e51b3008 	ldr	r3, [fp, #-8]
200047d8:	e3a02000 	mov	r2, #0
200047dc:	e5c3209d 	strb	r2, [r3, #157]	; 0x9d
200047e0:	e51b3008 	ldr	r3, [fp, #-8]
200047e4:	e1a00003 	mov	r0, r3
200047e8:	e24bd004 	sub	sp, fp, #4
200047ec:	e8bd4800 	pop	{fp, lr}
200047f0:	e12fff1e 	bx	lr
200047f4:	20015630 	.word	0x20015630
200047f8:	2001574c 	.word	0x2001574c
200047fc:	200043d4 	.word	0x200043d4
20004800:	006ddd00 	.word	0x006ddd00

20004804 <tcp_new>:
20004804:	e92d4800 	push	{fp, lr}
20004808:	e28db004 	add	fp, sp, #4
2000480c:	e3a00040 	mov	r0, #64	; 0x40
20004810:	ebffff7a 	bl	20004600 <tcp_alloc>
20004814:	e1a03000 	mov	r3, r0
20004818:	e1a00003 	mov	r0, r3
2000481c:	e24bd004 	sub	sp, fp, #4
20004820:	e8bd4800 	pop	{fp, lr}
20004824:	e12fff1e 	bx	lr

20004828 <tcp_arg>:
20004828:	e52db004 	push	{fp}		; (str fp, [sp, #-4]!)
2000482c:	e28db000 	add	fp, sp, #0
20004830:	e24dd00c 	sub	sp, sp, #12
20004834:	e50b0008 	str	r0, [fp, #-8]
20004838:	e50b100c 	str	r1, [fp, #-12]
2000483c:	e51b3008 	ldr	r3, [fp, #-8]
20004840:	e51b200c 	ldr	r2, [fp, #-12]
20004844:	e5832014 	str	r2, [r3, #20]
20004848:	e1a00000 	nop			; (mov r0, r0)
2000484c:	e24bd000 	sub	sp, fp, #0
20004850:	e49db004 	pop	{fp}		; (ldr fp, [sp], #4)
20004854:	e12fff1e 	bx	lr

20004858 <tcp_recv>:
20004858:	e52db004 	push	{fp}		; (str fp, [sp, #-4]!)
2000485c:	e28db000 	add	fp, sp, #0
20004860:	e24dd00c 	sub	sp, sp, #12
20004864:	e50b0008 	str	r0, [fp, #-8]
20004868:	e50b100c 	str	r1, [fp, #-12]
2000486c:	e51b3008 	ldr	r3, [fp, #-8]
20004870:	e51b200c 	ldr	r2, [fp, #-12]
20004874:	e5832084 	str	r2, [r3, #132]	; 0x84
20004878:	e1a00000 	nop			; (mov r0, r0)
2000487c:	e24bd000 	sub	sp, fp, #0
20004880:	e49db004 	pop	{fp}		; (ldr fp, [sp], #4)
20004884:	e12fff1e 	bx	lr

20004888 <tcp_sent>:
20004888:	e52db004 	push	{fp}		; (str fp, [sp, #-4]!)
2000488c:	e28db000 	add	fp, sp, #0
20004890:	e24dd00c 	sub	sp, sp, #12
20004894:	e50b0008 	str	r0, [fp, #-8]
20004898:	e50b100c 	str	r1, [fp, #-12]
2000489c:	e51b3008 	ldr	r3, [fp, #-8]
200048a0:	e51b200c 	ldr	r2, [fp, #-12]
200048a4:	e5832080 	str	r2, [r3, #128]	; 0x80
200048a8:	e1a00000 	nop			; (mov r0, r0)
200048ac:	e24bd000 	sub	sp, fp, #0
200048b0:	e49db004 	pop	{fp}		; (ldr fp, [sp], #4)
200048b4:	e12fff1e 	bx	lr

200048b8 <tcp_err>:
200048b8:	e52db004 	push	{fp}		; (str fp, [sp, #-4]!)
200048bc:	e28db000 	add	fp, sp, #0
200048c0:	e24dd00c 	sub	sp, sp, #12
200048c4:	e50b0008 	str	r0, [fp, #-8]
200048c8:	e50b100c 	str	r1, [fp, #-12]
200048cc:	e51b3008 	ldr	r3, [fp, #-8]
200048d0:	e51b200c 	ldr	r2, [fp, #-12]
200048d4:	e5832090 	str	r2, [r3, #144]	; 0x90
200048d8:	e1a00000 	nop			; (mov r0, r0)
200048dc:	e24bd000 	sub	sp, fp, #0
200048e0:	e49db004 	pop	{fp}		; (ldr fp, [sp], #4)
200048e4:	e12fff1e 	bx	lr

200048e8 <tcp_accept>:
200048e8:	e52db004 	push	{fp}		; (str fp, [sp, #-4]!)
200048ec:	e28db000 	add	fp, sp, #0
200048f0:	e24dd00c 	sub	sp, sp, #12
200048f4:	e50b0008 	str	r0, [fp, #-8]
200048f8:	e50b100c 	str	r1, [fp, #-12]
200048fc:	e51b3008 	ldr	r3, [fp, #-8]
20004900:	e51b200c 	ldr	r2, [fp, #-12]
20004904:	e583201c 	str	r2, [r3, #28]
20004908:	e1a00000 	nop			; (mov r0, r0)
2000490c:	e24bd000 	sub	sp, fp, #0
20004910:	e49db004 	pop	{fp}		; (ldr fp, [sp], #4)
20004914:	e12fff1e 	bx	lr

20004918 <tcp_poll>:
20004918:	e52db004 	push	{fp}		; (str fp, [sp, #-4]!)
2000491c:	e28db000 	add	fp, sp, #0
20004920:	e24dd014 	sub	sp, sp, #20
20004924:	e50b0008 	str	r0, [fp, #-8]
20004928:	e50b100c 	str	r1, [fp, #-12]
2000492c:	e1a03002 	mov	r3, r2
20004930:	e54b300d 	strb	r3, [fp, #-13]
20004934:	e51b3008 	ldr	r3, [fp, #-8]
20004938:	e51b200c 	ldr	r2, [fp, #-12]
2000493c:	e583208c 	str	r2, [r3, #140]	; 0x8c
20004940:	e51b3008 	ldr	r3, [fp, #-8]
20004944:	e55b200d 	ldrb	r2, [fp, #-13]
20004948:	e5c32035 	strb	r2, [r3, #53]	; 0x35
2000494c:	e1a00000 	nop			; (mov r0, r0)
20004950:	e24bd000 	sub	sp, fp, #0
20004954:	e49db004 	pop	{fp}		; (ldr fp, [sp], #4)
20004958:	e12fff1e 	bx	lr

2000495c <tcp_pcb_purge>:
2000495c:	e92d4800 	push	{fp, lr}
20004960:	e28db004 	add	fp, sp, #4
20004964:	e24dd008 	sub	sp, sp, #8
20004968:	e50b0008 	str	r0, [fp, #-8]
2000496c:	e51b3008 	ldr	r3, [fp, #-8]
20004970:	e5d33010 	ldrb	r3, [r3, #16]
20004974:	e3530000 	cmp	r3, #0
20004978:	0a000021 	beq	20004a04 <tcp_pcb_purge+0xa8>
2000497c:	e51b3008 	ldr	r3, [fp, #-8]
20004980:	e5d33010 	ldrb	r3, [r3, #16]
20004984:	e353000a 	cmp	r3, #10
20004988:	0a00001d 	beq	20004a04 <tcp_pcb_purge+0xa8>
2000498c:	e51b3008 	ldr	r3, [fp, #-8]
20004990:	e5d33010 	ldrb	r3, [r3, #16]
20004994:	e3530001 	cmp	r3, #1
20004998:	0a000019 	beq	20004a04 <tcp_pcb_purge+0xa8>
2000499c:	e51b3008 	ldr	r3, [fp, #-8]
200049a0:	e593307c 	ldr	r3, [r3, #124]	; 0x7c
200049a4:	e3530000 	cmp	r3, #0
200049a8:	0a000006 	beq	200049c8 <tcp_pcb_purge+0x6c>
200049ac:	e51b3008 	ldr	r3, [fp, #-8]
200049b0:	e593307c 	ldr	r3, [r3, #124]	; 0x7c
200049b4:	e1a00003 	mov	r0, r3
200049b8:	ebfff4ad 	bl	20001c74 <pbuf_free>
200049bc:	e51b3008 	ldr	r3, [fp, #-8]
200049c0:	e3a02000 	mov	r2, #0
200049c4:	e583207c 	str	r2, [r3, #124]	; 0x7c
200049c8:	e51b3008 	ldr	r3, [fp, #-8]
200049cc:	e5933074 	ldr	r3, [r3, #116]	; 0x74
200049d0:	e1a00003 	mov	r0, r3
200049d4:	ebfffe3b 	bl	200042c8 <tcp_segs_free>
200049d8:	e51b3008 	ldr	r3, [fp, #-8]
200049dc:	e5933078 	ldr	r3, [r3, #120]	; 0x78
200049e0:	e1a00003 	mov	r0, r3
200049e4:	ebfffe37 	bl	200042c8 <tcp_segs_free>
200049e8:	e51b3008 	ldr	r3, [fp, #-8]
200049ec:	e3a02000 	mov	r2, #0
200049f0:	e5832074 	str	r2, [r3, #116]	; 0x74
200049f4:	e51b3008 	ldr	r3, [fp, #-8]
200049f8:	e5932074 	ldr	r2, [r3, #116]	; 0x74
200049fc:	e51b3008 	ldr	r3, [fp, #-8]
20004a00:	e5832078 	str	r2, [r3, #120]	; 0x78
20004a04:	e1a00000 	nop			; (mov r0, r0)
20004a08:	e24bd004 	sub	sp, fp, #4
20004a0c:	e8bd4800 	pop	{fp, lr}
20004a10:	e12fff1e 	bx	lr

20004a14 <tcp_pcb_remove>:
20004a14:	e92d4800 	push	{fp, lr}
20004a18:	e28db004 	add	fp, sp, #4
20004a1c:	e24dd008 	sub	sp, sp, #8
20004a20:	e50b0008 	str	r0, [fp, #-8]
20004a24:	e50b100c 	str	r1, [fp, #-12]
20004a28:	e51b3008 	ldr	r3, [fp, #-8]
20004a2c:	e5932000 	ldr	r2, [r3]
20004a30:	e51b300c 	ldr	r3, [fp, #-12]
20004a34:	e1520003 	cmp	r2, r3
20004a38:	1a000005 	bne	20004a54 <tcp_pcb_remove+0x40>
20004a3c:	e51b3008 	ldr	r3, [fp, #-8]
20004a40:	e5933000 	ldr	r3, [r3]
20004a44:	e593200c 	ldr	r2, [r3, #12]
20004a48:	e51b3008 	ldr	r3, [fp, #-8]
20004a4c:	e5832000 	str	r2, [r3]
20004a50:	ea000019 	b	20004abc <tcp_pcb_remove+0xa8>
20004a54:	e51b3008 	ldr	r3, [fp, #-8]
20004a58:	e5933000 	ldr	r3, [r3]
20004a5c:	e59f20e8 	ldr	r2, [pc, #232]	; 20004b4c <tcp_pcb_remove+0x138>
20004a60:	e5823000 	str	r3, [r2]
20004a64:	ea000010 	b	20004aac <tcp_pcb_remove+0x98>
20004a68:	e59f30dc 	ldr	r3, [pc, #220]	; 20004b4c <tcp_pcb_remove+0x138>
20004a6c:	e5933000 	ldr	r3, [r3]
20004a70:	e593200c 	ldr	r2, [r3, #12]
20004a74:	e51b300c 	ldr	r3, [fp, #-12]
20004a78:	e1520003 	cmp	r2, r3
20004a7c:	1a000005 	bne	20004a98 <tcp_pcb_remove+0x84>
20004a80:	e59f30c4 	ldr	r3, [pc, #196]	; 20004b4c <tcp_pcb_remove+0x138>
20004a84:	e5933000 	ldr	r3, [r3]
20004a88:	e51b200c 	ldr	r2, [fp, #-12]
20004a8c:	e592200c 	ldr	r2, [r2, #12]
20004a90:	e583200c 	str	r2, [r3, #12]
20004a94:	ea000008 	b	20004abc <tcp_pcb_remove+0xa8>
20004a98:	e59f30ac 	ldr	r3, [pc, #172]	; 20004b4c <tcp_pcb_remove+0x138>
20004a9c:	e5933000 	ldr	r3, [r3]
20004aa0:	e593300c 	ldr	r3, [r3, #12]
20004aa4:	e59f20a0 	ldr	r2, [pc, #160]	; 20004b4c <tcp_pcb_remove+0x138>
20004aa8:	e5823000 	str	r3, [r2]
20004aac:	e59f3098 	ldr	r3, [pc, #152]	; 20004b4c <tcp_pcb_remove+0x138>
20004ab0:	e5933000 	ldr	r3, [r3]
20004ab4:	e3530000 	cmp	r3, #0
20004ab8:	1affffea 	bne	20004a68 <tcp_pcb_remove+0x54>
20004abc:	e51b300c 	ldr	r3, [fp, #-12]
20004ac0:	e3a02000 	mov	r2, #0
20004ac4:	e583200c 	str	r2, [r3, #12]
20004ac8:	e51b000c 	ldr	r0, [fp, #-12]
20004acc:	ebffffa2 	bl	2000495c <tcp_pcb_purge>
20004ad0:	e51b300c 	ldr	r3, [fp, #-12]
20004ad4:	e5d33010 	ldrb	r3, [r3, #16]
20004ad8:	e353000a 	cmp	r3, #10
20004adc:	0a000010 	beq	20004b24 <tcp_pcb_remove+0x110>
20004ae0:	e51b300c 	ldr	r3, [fp, #-12]
20004ae4:	e5d33010 	ldrb	r3, [r3, #16]
20004ae8:	e3530001 	cmp	r3, #1
20004aec:	0a00000c 	beq	20004b24 <tcp_pcb_remove+0x110>
20004af0:	e51b300c 	ldr	r3, [fp, #-12]
20004af4:	e5d33022 	ldrb	r3, [r3, #34]	; 0x22
20004af8:	e2033001 	and	r3, r3, #1
20004afc:	e3530000 	cmp	r3, #0
20004b00:	0a000007 	beq	20004b24 <tcp_pcb_remove+0x110>
20004b04:	e51b300c 	ldr	r3, [fp, #-12]
20004b08:	e5d33022 	ldrb	r3, [r3, #34]	; 0x22
20004b0c:	e3833002 	orr	r3, r3, #2
20004b10:	e20320ff 	and	r2, r3, #255	; 0xff
20004b14:	e51b300c 	ldr	r3, [fp, #-12]
20004b18:	e5c32022 	strb	r2, [r3, #34]	; 0x22
20004b1c:	e51b000c 	ldr	r0, [fp, #-12]
20004b20:	eb0011e8 	bl	200092c8 <tcp_output>
20004b24:	e51b300c 	ldr	r3, [fp, #-12]
20004b28:	e5d33010 	ldrb	r3, [r3, #16]
20004b2c:	e3530001 	cmp	r3, #1
20004b30:	e51b300c 	ldr	r3, [fp, #-12]
20004b34:	e3a02000 	mov	r2, #0
20004b38:	e5c32010 	strb	r2, [r3, #16]
20004b3c:	e1a00000 	nop			; (mov r0, r0)
20004b40:	e24bd004 	sub	sp, fp, #4
20004b44:	e8bd4800 	pop	{fp, lr}
20004b48:	e12fff1e 	bx	lr
20004b4c:	20015754 	.word	0x20015754

20004b50 <tcp_next_iss>:
20004b50:	e52db004 	push	{fp}		; (str fp, [sp, #-4]!)
20004b54:	e28db000 	add	fp, sp, #0
20004b58:	e59f302c 	ldr	r3, [pc, #44]	; 20004b8c <tcp_next_iss+0x3c>
20004b5c:	e5932000 	ldr	r2, [r3]
20004b60:	e59f3028 	ldr	r3, [pc, #40]	; 20004b90 <tcp_next_iss+0x40>
20004b64:	e5933000 	ldr	r3, [r3]
20004b68:	e0823003 	add	r3, r2, r3
20004b6c:	e59f2018 	ldr	r2, [pc, #24]	; 20004b8c <tcp_next_iss+0x3c>
20004b70:	e5823000 	str	r3, [r2]
20004b74:	e59f3010 	ldr	r3, [pc, #16]	; 20004b8c <tcp_next_iss+0x3c>
20004b78:	e5933000 	ldr	r3, [r3]
20004b7c:	e1a00003 	mov	r0, r3
20004b80:	e24bd000 	sub	sp, fp, #0
20004b84:	e49db004 	pop	{fp}		; (ldr fp, [sp], #4)
20004b88:	e12fff1e 	bx	lr
20004b8c:	20013de0 	.word	0x20013de0
20004b90:	2001574c 	.word	0x2001574c

20004b94 <tcp_eff_send_mss>:
20004b94:	e92d4800 	push	{fp, lr}
20004b98:	e28db004 	add	fp, sp, #4
20004b9c:	e24dd010 	sub	sp, sp, #16
20004ba0:	e1a03000 	mov	r3, r0
20004ba4:	e50b1014 	str	r1, [fp, #-20]	; 0xffffffec
20004ba8:	e14b30be 	strh	r3, [fp, #-14]
20004bac:	e51b0014 	ldr	r0, [fp, #-20]	; 0xffffffec
20004bb0:	eb001cfd 	bl	2000bfac <ip_route>
20004bb4:	e50b0008 	str	r0, [fp, #-8]
20004bb8:	e51b3008 	ldr	r3, [fp, #-8]
20004bbc:	e3530000 	cmp	r3, #0
20004bc0:	0a00000d 	beq	20004bfc <tcp_eff_send_mss+0x68>
20004bc4:	e51b3008 	ldr	r3, [fp, #-8]
20004bc8:	e1d332b0 	ldrh	r3, [r3, #32]
20004bcc:	e3530000 	cmp	r3, #0
20004bd0:	0a000009 	beq	20004bfc <tcp_eff_send_mss+0x68>
20004bd4:	e51b3008 	ldr	r3, [fp, #-8]
20004bd8:	e1d332b0 	ldrh	r3, [r3, #32]
20004bdc:	e2433028 	sub	r3, r3, #40	; 0x28
20004be0:	e14b30ba 	strh	r3, [fp, #-10]
20004be4:	e15b20ba 	ldrh	r2, [fp, #-10]
20004be8:	e15b30be 	ldrh	r3, [fp, #-14]
20004bec:	e1520003 	cmp	r2, r3
20004bf0:	31a03002 	movcc	r3, r2
20004bf4:	21a03003 	movcs	r3, r3
20004bf8:	e14b30be 	strh	r3, [fp, #-14]
20004bfc:	e15b30be 	ldrh	r3, [fp, #-14]
20004c00:	e1a00003 	mov	r0, r3
20004c04:	e24bd004 	sub	sp, fp, #4
20004c08:	e8bd4800 	pop	{fp, lr}
20004c0c:	e12fff1e 	bx	lr

20004c10 <tcp_debug_state_str>:
20004c10:	e52db004 	push	{fp}		; (str fp, [sp, #-4]!)
20004c14:	e28db000 	add	fp, sp, #0
20004c18:	e24dd00c 	sub	sp, sp, #12
20004c1c:	e1a03000 	mov	r3, r0
20004c20:	e54b3005 	strb	r3, [fp, #-5]
20004c24:	e55b3005 	ldrb	r3, [fp, #-5]
20004c28:	e59f2010 	ldr	r2, [pc, #16]	; 20004c40 <tcp_debug_state_str+0x30>
20004c2c:	e7923103 	ldr	r3, [r2, r3, lsl #2]
20004c30:	e1a00003 	mov	r0, r3
20004c34:	e24bd000 	sub	sp, fp, #0
20004c38:	e49db004 	pop	{fp}		; (ldr fp, [sp], #4)
20004c3c:	e12fff1e 	bx	lr
20004c40:	20013db0 	.word	0x20013db0

20004c44 <tcp_input>:
20004c44:	e92d4810 	push	{r4, fp, lr}
20004c48:	e28db008 	add	fp, sp, #8
20004c4c:	e24dd024 	sub	sp, sp, #36	; 0x24
20004c50:	e50b0020 	str	r0, [fp, #-32]	; 0xffffffe0
20004c54:	e50b1024 	str	r1, [fp, #-36]	; 0xffffffdc
20004c58:	e59f3ed8 	ldr	r3, [pc, #3800]	; 20005b38 <tcp_input+0xef4>
20004c5c:	e1d339b2 	ldrh	r3, [r3, #146]	; 0x92
20004c60:	e2833001 	add	r3, r3, #1
20004c64:	e1a03803 	lsl	r3, r3, #16
20004c68:	e1a03823 	lsr	r3, r3, #16
20004c6c:	e59f2ec4 	ldr	r2, [pc, #3780]	; 20005b38 <tcp_input+0xef4>
20004c70:	e1c239b2 	strh	r3, [r2, #146]	; 0x92
20004c74:	e51b3020 	ldr	r3, [fp, #-32]	; 0xffffffe0
20004c78:	e5933004 	ldr	r3, [r3, #4]
20004c7c:	e59f2eb8 	ldr	r2, [pc, #3768]	; 20005b3c <tcp_input+0xef8>
20004c80:	e5823000 	str	r3, [r2]
20004c84:	e51b3020 	ldr	r3, [fp, #-32]	; 0xffffffe0
20004c88:	e5934004 	ldr	r4, [r3, #4]
20004c8c:	e59f3ea8 	ldr	r3, [pc, #3752]	; 20005b3c <tcp_input+0xef8>
20004c90:	e5933000 	ldr	r3, [r3]
20004c94:	e5d32000 	ldrb	r2, [r3]
20004c98:	e5d33001 	ldrb	r3, [r3, #1]
20004c9c:	e1a03403 	lsl	r3, r3, #8
20004ca0:	e1833002 	orr	r3, r3, r2
20004ca4:	e1a03803 	lsl	r3, r3, #16
20004ca8:	e1a03823 	lsr	r3, r3, #16
20004cac:	e1a00003 	mov	r0, r3
20004cb0:	eb002185 	bl	2000d2cc <ntohs>
20004cb4:	e1a03000 	mov	r3, r0
20004cb8:	e1a03423 	lsr	r3, r3, #8
20004cbc:	e1a03803 	lsl	r3, r3, #16
20004cc0:	e1a03823 	lsr	r3, r3, #16
20004cc4:	e203300f 	and	r3, r3, #15
20004cc8:	e1a03103 	lsl	r3, r3, #2
20004ccc:	e0843003 	add	r3, r4, r3
20004cd0:	e59f2e68 	ldr	r2, [pc, #3688]	; 20005b40 <tcp_input+0xefc>
20004cd4:	e5823000 	str	r3, [r2]
20004cd8:	e59f3e5c 	ldr	r3, [pc, #3676]	; 20005b3c <tcp_input+0xef8>
20004cdc:	e5933000 	ldr	r3, [r3]
20004ce0:	e5d32000 	ldrb	r2, [r3]
20004ce4:	e5d33001 	ldrb	r3, [r3, #1]
20004ce8:	e1a03403 	lsl	r3, r3, #8
20004cec:	e1833002 	orr	r3, r3, r2
20004cf0:	e1a03803 	lsl	r3, r3, #16
20004cf4:	e1a03823 	lsr	r3, r3, #16
20004cf8:	e1a00003 	mov	r0, r3
20004cfc:	eb002172 	bl	2000d2cc <ntohs>
20004d00:	e1a03000 	mov	r3, r0
20004d04:	e1a03423 	lsr	r3, r3, #8
20004d08:	e1a03803 	lsl	r3, r3, #16
20004d0c:	e1a03823 	lsr	r3, r3, #16
20004d10:	e203300f 	and	r3, r3, #15
20004d14:	e1a03803 	lsl	r3, r3, #16
20004d18:	e1a03823 	lsr	r3, r3, #16
20004d1c:	e1a03103 	lsl	r3, r3, #2
20004d20:	e1a03803 	lsl	r3, r3, #16
20004d24:	e1a03823 	lsr	r3, r3, #16
20004d28:	e2633000 	rsb	r3, r3, #0
20004d2c:	e1a03803 	lsl	r3, r3, #16
20004d30:	e1a03823 	lsr	r3, r3, #16
20004d34:	e1a03803 	lsl	r3, r3, #16
20004d38:	e1a03823 	lsr	r3, r3, #16
20004d3c:	e1a03803 	lsl	r3, r3, #16
20004d40:	e1a03843 	asr	r3, r3, #16
20004d44:	e1a01003 	mov	r1, r3
20004d48:	e51b0020 	ldr	r0, [fp, #-32]	; 0xffffffe0
20004d4c:	ebfff35e 	bl	20001acc <pbuf_header>
20004d50:	e1a03000 	mov	r3, r0
20004d54:	e3530000 	cmp	r3, #0
20004d58:	1a000003 	bne	20004d6c <tcp_input+0x128>
20004d5c:	e51b3020 	ldr	r3, [fp, #-32]	; 0xffffffe0
20004d60:	e1d330b8 	ldrh	r3, [r3, #8]
20004d64:	e3530013 	cmp	r3, #19
20004d68:	8a000010 	bhi	20004db0 <tcp_input+0x16c>
20004d6c:	e59f3dc4 	ldr	r3, [pc, #3524]	; 20005b38 <tcp_input+0xef4>
20004d70:	e1d339ba 	ldrh	r3, [r3, #154]	; 0x9a
20004d74:	e2833001 	add	r3, r3, #1
20004d78:	e1a03803 	lsl	r3, r3, #16
20004d7c:	e1a03823 	lsr	r3, r3, #16
20004d80:	e59f2db0 	ldr	r2, [pc, #3504]	; 20005b38 <tcp_input+0xef4>
20004d84:	e1c239ba 	strh	r3, [r2, #154]	; 0x9a
20004d88:	e59f3da8 	ldr	r3, [pc, #3496]	; 20005b38 <tcp_input+0xef4>
20004d8c:	e1d339b6 	ldrh	r3, [r3, #150]	; 0x96
20004d90:	e2833001 	add	r3, r3, #1
20004d94:	e1a03803 	lsl	r3, r3, #16
20004d98:	e1a03823 	lsr	r3, r3, #16
20004d9c:	e59f2d94 	ldr	r2, [pc, #3476]	; 20005b38 <tcp_input+0xef4>
20004da0:	e1c239b6 	strh	r3, [r2, #150]	; 0x96
20004da4:	e51b0020 	ldr	r0, [fp, #-32]	; 0xffffffe0
20004da8:	ebfff3b1 	bl	20001c74 <pbuf_free>
20004dac:	ea00035e 	b	20005b2c <tcp_input+0xee8>
20004db0:	e59f3d84 	ldr	r3, [pc, #3460]	; 20005b3c <tcp_input+0xef8>
20004db4:	e5933000 	ldr	r3, [r3]
20004db8:	e2833010 	add	r3, r3, #16
20004dbc:	e51b1024 	ldr	r1, [fp, #-36]	; 0xffffffdc
20004dc0:	e1a00003 	mov	r0, r3
20004dc4:	eb00216d 	bl	2000d380 <ip_addr_isbroadcast>
20004dc8:	e1a03000 	mov	r3, r0
20004dcc:	e3530000 	cmp	r3, #0
20004dd0:	1a000015 	bne	20004e2c <tcp_input+0x1e8>
20004dd4:	e59f3d60 	ldr	r3, [pc, #3424]	; 20005b3c <tcp_input+0xef8>
20004dd8:	e5933000 	ldr	r3, [r3]
20004ddc:	e5d32010 	ldrb	r2, [r3, #16]
20004de0:	e5d31011 	ldrb	r1, [r3, #17]
20004de4:	e1a01401 	lsl	r1, r1, #8
20004de8:	e1812002 	orr	r2, r1, r2
20004dec:	e5d31012 	ldrb	r1, [r3, #18]
20004df0:	e1a01801 	lsl	r1, r1, #16
20004df4:	e1812002 	orr	r2, r1, r2
20004df8:	e5d33013 	ldrb	r3, [r3, #19]
20004dfc:	e1a03c03 	lsl	r3, r3, #24
20004e00:	e1833002 	orr	r3, r3, r2
20004e04:	e1a04003 	mov	r4, r3
20004e08:	e3a0020f 	mov	r0, #-268435456	; 0xf0000000
20004e0c:	eb002150 	bl	2000d354 <ntohl>
20004e10:	e1a03000 	mov	r3, r0
20004e14:	e0044003 	and	r4, r4, r3
20004e18:	e3a0020e 	mov	r0, #-536870912	; 0xe0000000
20004e1c:	eb00214c 	bl	2000d354 <ntohl>
20004e20:	e1a03000 	mov	r3, r0
20004e24:	e1540003 	cmp	r4, r3
20004e28:	1a000010 	bne	20004e70 <tcp_input+0x22c>
20004e2c:	e59f3d04 	ldr	r3, [pc, #3332]	; 20005b38 <tcp_input+0xef4>
20004e30:	e1d33ab0 	ldrh	r3, [r3, #160]	; 0xa0
20004e34:	e2833001 	add	r3, r3, #1
20004e38:	e1a03803 	lsl	r3, r3, #16
20004e3c:	e1a03823 	lsr	r3, r3, #16
20004e40:	e59f2cf0 	ldr	r2, [pc, #3312]	; 20005b38 <tcp_input+0xef4>
20004e44:	e1c23ab0 	strh	r3, [r2, #160]	; 0xa0
20004e48:	e59f3ce8 	ldr	r3, [pc, #3304]	; 20005b38 <tcp_input+0xef4>
20004e4c:	e1d339b6 	ldrh	r3, [r3, #150]	; 0x96
20004e50:	e2833001 	add	r3, r3, #1
20004e54:	e1a03803 	lsl	r3, r3, #16
20004e58:	e1a03823 	lsr	r3, r3, #16
20004e5c:	e59f2cd4 	ldr	r2, [pc, #3284]	; 20005b38 <tcp_input+0xef4>
20004e60:	e1c239b6 	strh	r3, [r2, #150]	; 0x96
20004e64:	e51b0020 	ldr	r0, [fp, #-32]	; 0xffffffe0
20004e68:	ebfff381 	bl	20001c74 <pbuf_free>
20004e6c:	ea00032e 	b	20005b2c <tcp_input+0xee8>
20004e70:	e59f3cc4 	ldr	r3, [pc, #3268]	; 20005b3c <tcp_input+0xef8>
20004e74:	e5933000 	ldr	r3, [r3]
20004e78:	e283100c 	add	r1, r3, #12
20004e7c:	e59f3cb8 	ldr	r3, [pc, #3256]	; 20005b3c <tcp_input+0xef8>
20004e80:	e5933000 	ldr	r3, [r3]
20004e84:	e2832010 	add	r2, r3, #16
20004e88:	e51b3020 	ldr	r3, [fp, #-32]	; 0xffffffe0
20004e8c:	e1d330b8 	ldrh	r3, [r3, #8]
20004e90:	e58d3000 	str	r3, [sp]
20004e94:	e3a03006 	mov	r3, #6
20004e98:	e51b0020 	ldr	r0, [fp, #-32]	; 0xffffffe0
20004e9c:	eb002759 	bl	2000ec08 <inet_chksum_pseudo>
20004ea0:	e1a03000 	mov	r3, r0
20004ea4:	e3530000 	cmp	r3, #0
20004ea8:	0a000010 	beq	20004ef0 <tcp_input+0x2ac>
20004eac:	e59f3c84 	ldr	r3, [pc, #3204]	; 20005b38 <tcp_input+0xef4>
20004eb0:	e1d339b8 	ldrh	r3, [r3, #152]	; 0x98
20004eb4:	e2833001 	add	r3, r3, #1
20004eb8:	e1a03803 	lsl	r3, r3, #16
20004ebc:	e1a03823 	lsr	r3, r3, #16
20004ec0:	e59f2c70 	ldr	r2, [pc, #3184]	; 20005b38 <tcp_input+0xef4>
20004ec4:	e1c239b8 	strh	r3, [r2, #152]	; 0x98
20004ec8:	e59f3c68 	ldr	r3, [pc, #3176]	; 20005b38 <tcp_input+0xef4>
20004ecc:	e1d339b6 	ldrh	r3, [r3, #150]	; 0x96
20004ed0:	e2833001 	add	r3, r3, #1
20004ed4:	e1a03803 	lsl	r3, r3, #16
20004ed8:	e1a03823 	lsr	r3, r3, #16
20004edc:	e59f2c54 	ldr	r2, [pc, #3156]	; 20005b38 <tcp_input+0xef4>
20004ee0:	e1c239b6 	strh	r3, [r2, #150]	; 0x96
20004ee4:	e51b0020 	ldr	r0, [fp, #-32]	; 0xffffffe0
20004ee8:	ebfff361 	bl	20001c74 <pbuf_free>
20004eec:	ea00030e 	b	20005b2c <tcp_input+0xee8>
20004ef0:	e59f3c48 	ldr	r3, [pc, #3144]	; 20005b40 <tcp_input+0xefc>
20004ef4:	e5933000 	ldr	r3, [r3]
20004ef8:	e5d3200c 	ldrb	r2, [r3, #12]
20004efc:	e5d3300d 	ldrb	r3, [r3, #13]
20004f00:	e1a03403 	lsl	r3, r3, #8
20004f04:	e1833002 	orr	r3, r3, r2
20004f08:	e1a03803 	lsl	r3, r3, #16
20004f0c:	e1a03823 	lsr	r3, r3, #16
20004f10:	e1a00003 	mov	r0, r3
20004f14:	eb0020ec 	bl	2000d2cc <ntohs>
20004f18:	e1a03000 	mov	r3, r0
20004f1c:	e1a03623 	lsr	r3, r3, #12
20004f20:	e1a03803 	lsl	r3, r3, #16
20004f24:	e1a03823 	lsr	r3, r3, #16
20004f28:	e54b301a 	strb	r3, [fp, #-26]	; 0xffffffe6
20004f2c:	e55b301a 	ldrb	r3, [fp, #-26]	; 0xffffffe6
20004f30:	e1a03803 	lsl	r3, r3, #16
20004f34:	e1a03823 	lsr	r3, r3, #16
20004f38:	e1a02003 	mov	r2, r3
20004f3c:	e1a02702 	lsl	r2, r2, #14
20004f40:	e0633002 	rsb	r3, r3, r2
20004f44:	e1a03103 	lsl	r3, r3, #2
20004f48:	e1a03803 	lsl	r3, r3, #16
20004f4c:	e1a03823 	lsr	r3, r3, #16
20004f50:	e1a03803 	lsl	r3, r3, #16
20004f54:	e1a03823 	lsr	r3, r3, #16
20004f58:	e1a03803 	lsl	r3, r3, #16
20004f5c:	e1a03843 	asr	r3, r3, #16
20004f60:	e1a01003 	mov	r1, r3
20004f64:	e51b0020 	ldr	r0, [fp, #-32]	; 0xffffffe0
20004f68:	ebfff2d7 	bl	20001acc <pbuf_header>
20004f6c:	e1a03000 	mov	r3, r0
20004f70:	e3530000 	cmp	r3, #0
20004f74:	0a000010 	beq	20004fbc <tcp_input+0x378>
20004f78:	e59f3bb8 	ldr	r3, [pc, #3000]	; 20005b38 <tcp_input+0xef4>
20004f7c:	e1d339ba 	ldrh	r3, [r3, #154]	; 0x9a
20004f80:	e2833001 	add	r3, r3, #1
20004f84:	e1a03803 	lsl	r3, r3, #16
20004f88:	e1a03823 	lsr	r3, r3, #16
20004f8c:	e59f2ba4 	ldr	r2, [pc, #2980]	; 20005b38 <tcp_input+0xef4>
20004f90:	e1c239ba 	strh	r3, [r2, #154]	; 0x9a
20004f94:	e59f3b9c 	ldr	r3, [pc, #2972]	; 20005b38 <tcp_input+0xef4>
20004f98:	e1d339b6 	ldrh	r3, [r3, #150]	; 0x96
20004f9c:	e2833001 	add	r3, r3, #1
20004fa0:	e1a03803 	lsl	r3, r3, #16
20004fa4:	e1a03823 	lsr	r3, r3, #16
20004fa8:	e59f2b88 	ldr	r2, [pc, #2952]	; 20005b38 <tcp_input+0xef4>
20004fac:	e1c239b6 	strh	r3, [r2, #150]	; 0x96
20004fb0:	e51b0020 	ldr	r0, [fp, #-32]	; 0xffffffe0
20004fb4:	ebfff32e 	bl	20001c74 <pbuf_free>
20004fb8:	ea0002db 	b	20005b2c <tcp_input+0xee8>
20004fbc:	e59f3b7c 	ldr	r3, [pc, #2940]	; 20005b40 <tcp_input+0xefc>
20004fc0:	e5934000 	ldr	r4, [r3]
20004fc4:	e59f3b74 	ldr	r3, [pc, #2932]	; 20005b40 <tcp_input+0xefc>
20004fc8:	e5933000 	ldr	r3, [r3]
20004fcc:	e5d32000 	ldrb	r2, [r3]
20004fd0:	e5d33001 	ldrb	r3, [r3, #1]
20004fd4:	e1a03403 	lsl	r3, r3, #8
20004fd8:	e1833002 	orr	r3, r3, r2
20004fdc:	e1a03803 	lsl	r3, r3, #16
20004fe0:	e1a03823 	lsr	r3, r3, #16
20004fe4:	e1a00003 	mov	r0, r3
20004fe8:	eb0020b7 	bl	2000d2cc <ntohs>
20004fec:	e1a03000 	mov	r3, r0
20004ff0:	e20320ff 	and	r2, r3, #255	; 0xff
20004ff4:	e3a01000 	mov	r1, #0
20004ff8:	e1812002 	orr	r2, r1, r2
20004ffc:	e5c42000 	strb	r2, [r4]
20005000:	e1a03423 	lsr	r3, r3, #8
20005004:	e1a03803 	lsl	r3, r3, #16
20005008:	e1a03823 	lsr	r3, r3, #16
2000500c:	e3a02000 	mov	r2, #0
20005010:	e1823003 	orr	r3, r2, r3
20005014:	e5c43001 	strb	r3, [r4, #1]
20005018:	e59f3b20 	ldr	r3, [pc, #2848]	; 20005b40 <tcp_input+0xefc>
2000501c:	e5934000 	ldr	r4, [r3]
20005020:	e59f3b18 	ldr	r3, [pc, #2840]	; 20005b40 <tcp_input+0xefc>
20005024:	e5933000 	ldr	r3, [r3]
20005028:	e5d32002 	ldrb	r2, [r3, #2]
2000502c:	e5d33003 	ldrb	r3, [r3, #3]
20005030:	e1a03403 	lsl	r3, r3, #8
20005034:	e1833002 	orr	r3, r3, r2
20005038:	e1a03803 	lsl	r3, r3, #16
2000503c:	e1a03823 	lsr	r3, r3, #16
20005040:	e1a00003 	mov	r0, r3
20005044:	eb0020a0 	bl	2000d2cc <ntohs>
20005048:	e1a03000 	mov	r3, r0
2000504c:	e20320ff 	and	r2, r3, #255	; 0xff
20005050:	e3a01000 	mov	r1, #0
20005054:	e1812002 	orr	r2, r1, r2
20005058:	e5c42002 	strb	r2, [r4, #2]
2000505c:	e1a03423 	lsr	r3, r3, #8
20005060:	e1a03803 	lsl	r3, r3, #16
20005064:	e1a03823 	lsr	r3, r3, #16
20005068:	e3a02000 	mov	r2, #0
2000506c:	e1823003 	orr	r3, r2, r3
20005070:	e5c43003 	strb	r3, [r4, #3]
20005074:	e59f3ac4 	ldr	r3, [pc, #2756]	; 20005b40 <tcp_input+0xefc>
20005078:	e5934000 	ldr	r4, [r3]
2000507c:	e59f3abc 	ldr	r3, [pc, #2748]	; 20005b40 <tcp_input+0xefc>
20005080:	e5933000 	ldr	r3, [r3]
20005084:	e5d32004 	ldrb	r2, [r3, #4]
20005088:	e5d31005 	ldrb	r1, [r3, #5]
2000508c:	e1a01401 	lsl	r1, r1, #8
20005090:	e1812002 	orr	r2, r1, r2
20005094:	e5d31006 	ldrb	r1, [r3, #6]
20005098:	e1a01801 	lsl	r1, r1, #16
2000509c:	e1812002 	orr	r2, r1, r2
200050a0:	e5d33007 	ldrb	r3, [r3, #7]
200050a4:	e1a03c03 	lsl	r3, r3, #24
200050a8:	e1833002 	orr	r3, r3, r2
200050ac:	e1a00003 	mov	r0, r3
200050b0:	eb0020a7 	bl	2000d354 <ntohl>
200050b4:	e1a03000 	mov	r3, r0
200050b8:	e20320ff 	and	r2, r3, #255	; 0xff
200050bc:	e3a01000 	mov	r1, #0
200050c0:	e1812002 	orr	r2, r1, r2
200050c4:	e5c42004 	strb	r2, [r4, #4]
200050c8:	e1a02423 	lsr	r2, r3, #8
200050cc:	e20220ff 	and	r2, r2, #255	; 0xff
200050d0:	e3a01000 	mov	r1, #0
200050d4:	e1812002 	orr	r2, r1, r2
200050d8:	e5c42005 	strb	r2, [r4, #5]
200050dc:	e1a02823 	lsr	r2, r3, #16
200050e0:	e20220ff 	and	r2, r2, #255	; 0xff
200050e4:	e3a01000 	mov	r1, #0
200050e8:	e1812002 	orr	r2, r1, r2
200050ec:	e5c42006 	strb	r2, [r4, #6]
200050f0:	e1a03c23 	lsr	r3, r3, #24
200050f4:	e3a02000 	mov	r2, #0
200050f8:	e1823003 	orr	r3, r2, r3
200050fc:	e5c43007 	strb	r3, [r4, #7]
20005100:	e5d43004 	ldrb	r3, [r4, #4]
20005104:	e5d42005 	ldrb	r2, [r4, #5]
20005108:	e1a02402 	lsl	r2, r2, #8
2000510c:	e1823003 	orr	r3, r2, r3
20005110:	e5d42006 	ldrb	r2, [r4, #6]
20005114:	e1a02802 	lsl	r2, r2, #16
20005118:	e1823003 	orr	r3, r2, r3
2000511c:	e5d42007 	ldrb	r2, [r4, #7]
20005120:	e1a02c02 	lsl	r2, r2, #24
20005124:	e1823003 	orr	r3, r2, r3
20005128:	e1a02003 	mov	r2, r3
2000512c:	e59f3a10 	ldr	r3, [pc, #2576]	; 20005b44 <tcp_input+0xf00>
20005130:	e5832000 	str	r2, [r3]
20005134:	e59f3a04 	ldr	r3, [pc, #2564]	; 20005b40 <tcp_input+0xefc>
20005138:	e5934000 	ldr	r4, [r3]
2000513c:	e59f39fc 	ldr	r3, [pc, #2556]	; 20005b40 <tcp_input+0xefc>
20005140:	e5933000 	ldr	r3, [r3]
20005144:	e5d32008 	ldrb	r2, [r3, #8]
20005148:	e5d31009 	ldrb	r1, [r3, #9]
2000514c:	e1a01401 	lsl	r1, r1, #8
20005150:	e1812002 	orr	r2, r1, r2
20005154:	e5d3100a 	ldrb	r1, [r3, #10]
20005158:	e1a01801 	lsl	r1, r1, #16
2000515c:	e1812002 	orr	r2, r1, r2
20005160:	e5d3300b 	ldrb	r3, [r3, #11]
20005164:	e1a03c03 	lsl	r3, r3, #24
20005168:	e1833002 	orr	r3, r3, r2
2000516c:	e1a00003 	mov	r0, r3
20005170:	eb002077 	bl	2000d354 <ntohl>
20005174:	e1a03000 	mov	r3, r0
20005178:	e20320ff 	and	r2, r3, #255	; 0xff
2000517c:	e3a01000 	mov	r1, #0
20005180:	e1812002 	orr	r2, r1, r2
20005184:	e5c42008 	strb	r2, [r4, #8]
20005188:	e1a02423 	lsr	r2, r3, #8
2000518c:	e20220ff 	and	r2, r2, #255	; 0xff
20005190:	e3a01000 	mov	r1, #0
20005194:	e1812002 	orr	r2, r1, r2
20005198:	e5c42009 	strb	r2, [r4, #9]
2000519c:	e1a02823 	lsr	r2, r3, #16
200051a0:	e20220ff 	and	r2, r2, #255	; 0xff
200051a4:	e3a01000 	mov	r1, #0
200051a8:	e1812002 	orr	r2, r1, r2
200051ac:	e5c4200a 	strb	r2, [r4, #10]
200051b0:	e1a03c23 	lsr	r3, r3, #24
200051b4:	e3a02000 	mov	r2, #0
200051b8:	e1823003 	orr	r3, r2, r3
200051bc:	e5c4300b 	strb	r3, [r4, #11]
200051c0:	e5d43008 	ldrb	r3, [r4, #8]
200051c4:	e5d42009 	ldrb	r2, [r4, #9]
200051c8:	e1a02402 	lsl	r2, r2, #8
200051cc:	e1823003 	orr	r3, r2, r3
200051d0:	e5d4200a 	ldrb	r2, [r4, #10]
200051d4:	e1a02802 	lsl	r2, r2, #16
200051d8:	e1823003 	orr	r3, r2, r3
200051dc:	e5d4200b 	ldrb	r2, [r4, #11]
200051e0:	e1a02c02 	lsl	r2, r2, #24
200051e4:	e1823003 	orr	r3, r2, r3
200051e8:	e1a02003 	mov	r2, r3
200051ec:	e59f3954 	ldr	r3, [pc, #2388]	; 20005b48 <tcp_input+0xf04>
200051f0:	e5832000 	str	r2, [r3]
200051f4:	e59f3944 	ldr	r3, [pc, #2372]	; 20005b40 <tcp_input+0xefc>
200051f8:	e5934000 	ldr	r4, [r3]
200051fc:	e59f393c 	ldr	r3, [pc, #2364]	; 20005b40 <tcp_input+0xefc>
20005200:	e5933000 	ldr	r3, [r3]
20005204:	e5d3200e 	ldrb	r2, [r3, #14]
20005208:	e5d3300f 	ldrb	r3, [r3, #15]
2000520c:	e1a03403 	lsl	r3, r3, #8
20005210:	e1833002 	orr	r3, r3, r2
20005214:	e1a03803 	lsl	r3, r3, #16
20005218:	e1a03823 	lsr	r3, r3, #16
2000521c:	e1a00003 	mov	r0, r3
20005220:	eb002029 	bl	2000d2cc <ntohs>
20005224:	e1a03000 	mov	r3, r0
20005228:	e20320ff 	and	r2, r3, #255	; 0xff
2000522c:	e3a01000 	mov	r1, #0
20005230:	e1812002 	orr	r2, r1, r2
20005234:	e5c4200e 	strb	r2, [r4, #14]
20005238:	e1a03423 	lsr	r3, r3, #8
2000523c:	e1a03803 	lsl	r3, r3, #16
20005240:	e1a03823 	lsr	r3, r3, #16
20005244:	e3a02000 	mov	r2, #0
20005248:	e1823003 	orr	r3, r2, r3
2000524c:	e5c4300f 	strb	r3, [r4, #15]
20005250:	e59f38e8 	ldr	r3, [pc, #2280]	; 20005b40 <tcp_input+0xefc>
20005254:	e5933000 	ldr	r3, [r3]
20005258:	e5d3200c 	ldrb	r2, [r3, #12]
2000525c:	e5d3300d 	ldrb	r3, [r3, #13]
20005260:	e1a03403 	lsl	r3, r3, #8
20005264:	e1833002 	orr	r3, r3, r2
20005268:	e1a03803 	lsl	r3, r3, #16
2000526c:	e1a03823 	lsr	r3, r3, #16
20005270:	e1a00003 	mov	r0, r3
20005274:	eb002014 	bl	2000d2cc <ntohs>
20005278:	e1a03000 	mov	r3, r0
2000527c:	e20330ff 	and	r3, r3, #255	; 0xff
20005280:	e203303f 	and	r3, r3, #63	; 0x3f
20005284:	e20320ff 	and	r2, r3, #255	; 0xff
20005288:	e59f38bc 	ldr	r3, [pc, #2236]	; 20005b4c <tcp_input+0xf08>
2000528c:	e5c32000 	strb	r2, [r3]
20005290:	e51b3020 	ldr	r3, [fp, #-32]	; 0xffffffe0
20005294:	e1d320b8 	ldrh	r2, [r3, #8]
20005298:	e59f38ac 	ldr	r3, [pc, #2220]	; 20005b4c <tcp_input+0xf08>
2000529c:	e5d33000 	ldrb	r3, [r3]
200052a0:	e2033003 	and	r3, r3, #3
200052a4:	e3530000 	cmp	r3, #0
200052a8:	13a03001 	movne	r3, #1
200052ac:	03a03000 	moveq	r3, #0
200052b0:	e20330ff 	and	r3, r3, #255	; 0xff
200052b4:	e1a03803 	lsl	r3, r3, #16
200052b8:	e1a03823 	lsr	r3, r3, #16
200052bc:	e0823003 	add	r3, r2, r3
200052c0:	e1a03803 	lsl	r3, r3, #16
200052c4:	e1a03823 	lsr	r3, r3, #16
200052c8:	e59f2880 	ldr	r2, [pc, #2176]	; 20005b50 <tcp_input+0xf0c>
200052cc:	e1c230b0 	strh	r3, [r2]
200052d0:	e3a03000 	mov	r3, #0
200052d4:	e50b3014 	str	r3, [fp, #-20]	; 0xffffffec
200052d8:	e59f3874 	ldr	r3, [pc, #2164]	; 20005b54 <tcp_input+0xf10>
200052dc:	e5933000 	ldr	r3, [r3]
200052e0:	e50b3010 	str	r3, [fp, #-16]
200052e4:	ea00004b 	b	20005418 <tcp_input+0x7d4>
200052e8:	e51b3010 	ldr	r3, [fp, #-16]
200052ec:	e1d322b0 	ldrh	r2, [r3, #32]
200052f0:	e59f3848 	ldr	r3, [pc, #2120]	; 20005b40 <tcp_input+0xefc>
200052f4:	e5933000 	ldr	r3, [r3]
200052f8:	e5d31000 	ldrb	r1, [r3]
200052fc:	e5d33001 	ldrb	r3, [r3, #1]
20005300:	e1a03403 	lsl	r3, r3, #8
20005304:	e1833001 	orr	r3, r3, r1
20005308:	e1a03803 	lsl	r3, r3, #16
2000530c:	e1a03823 	lsr	r3, r3, #16
20005310:	e1520003 	cmp	r2, r3
20005314:	1a00003a 	bne	20005404 <tcp_input+0x7c0>
20005318:	e51b3010 	ldr	r3, [fp, #-16]
2000531c:	e1d321b8 	ldrh	r2, [r3, #24]
20005320:	e59f3818 	ldr	r3, [pc, #2072]	; 20005b40 <tcp_input+0xefc>
20005324:	e5933000 	ldr	r3, [r3]
20005328:	e5d31002 	ldrb	r1, [r3, #2]
2000532c:	e5d33003 	ldrb	r3, [r3, #3]
20005330:	e1a03403 	lsl	r3, r3, #8
20005334:	e1833001 	orr	r3, r3, r1
20005338:	e1a03803 	lsl	r3, r3, #16
2000533c:	e1a03823 	lsr	r3, r3, #16
20005340:	e1520003 	cmp	r2, r3
20005344:	1a00002e 	bne	20005404 <tcp_input+0x7c0>
20005348:	e51b3010 	ldr	r3, [fp, #-16]
2000534c:	e5932004 	ldr	r2, [r3, #4]
20005350:	e59f37e4 	ldr	r3, [pc, #2020]	; 20005b3c <tcp_input+0xef8>
20005354:	e5933000 	ldr	r3, [r3]
20005358:	e5d3100c 	ldrb	r1, [r3, #12]
2000535c:	e5d3000d 	ldrb	r0, [r3, #13]
20005360:	e1a00400 	lsl	r0, r0, #8
20005364:	e1801001 	orr	r1, r0, r1
20005368:	e5d3000e 	ldrb	r0, [r3, #14]
2000536c:	e1a00800 	lsl	r0, r0, #16
20005370:	e1801001 	orr	r1, r0, r1
20005374:	e5d3300f 	ldrb	r3, [r3, #15]
20005378:	e1a03c03 	lsl	r3, r3, #24
2000537c:	e1833001 	orr	r3, r3, r1
20005380:	e1520003 	cmp	r2, r3
20005384:	1a00001e 	bne	20005404 <tcp_input+0x7c0>
20005388:	e51b3010 	ldr	r3, [fp, #-16]
2000538c:	e5932000 	ldr	r2, [r3]
20005390:	e59f37a4 	ldr	r3, [pc, #1956]	; 20005b3c <tcp_input+0xef8>
20005394:	e5933000 	ldr	r3, [r3]
20005398:	e5d31010 	ldrb	r1, [r3, #16]
2000539c:	e5d30011 	ldrb	r0, [r3, #17]
200053a0:	e1a00400 	lsl	r0, r0, #8
200053a4:	e1801001 	orr	r1, r0, r1
200053a8:	e5d30012 	ldrb	r0, [r3, #18]
200053ac:	e1a00800 	lsl	r0, r0, #16
200053b0:	e1801001 	orr	r1, r0, r1
200053b4:	e5d33013 	ldrb	r3, [r3, #19]
200053b8:	e1a03c03 	lsl	r3, r3, #24
200053bc:	e1833001 	orr	r3, r3, r1
200053c0:	e1520003 	cmp	r2, r3
200053c4:	1a00000e 	bne	20005404 <tcp_input+0x7c0>
200053c8:	e51b3014 	ldr	r3, [fp, #-20]	; 0xffffffec
200053cc:	e3530000 	cmp	r3, #0
200053d0:	0a000014 	beq	20005428 <tcp_input+0x7e4>
200053d4:	e51b3010 	ldr	r3, [fp, #-16]
200053d8:	e593200c 	ldr	r2, [r3, #12]
200053dc:	e51b3014 	ldr	r3, [fp, #-20]	; 0xffffffec
200053e0:	e583200c 	str	r2, [r3, #12]
200053e4:	e59f3768 	ldr	r3, [pc, #1896]	; 20005b54 <tcp_input+0xf10>
200053e8:	e5932000 	ldr	r2, [r3]
200053ec:	e51b3010 	ldr	r3, [fp, #-16]
200053f0:	e583200c 	str	r2, [r3, #12]
200053f4:	e59f2758 	ldr	r2, [pc, #1880]	; 20005b54 <tcp_input+0xf10>
200053f8:	e51b3010 	ldr	r3, [fp, #-16]
200053fc:	e5823000 	str	r3, [r2]
20005400:	ea000008 	b	20005428 <tcp_input+0x7e4>
20005404:	e51b3010 	ldr	r3, [fp, #-16]
20005408:	e50b3014 	str	r3, [fp, #-20]	; 0xffffffec
2000540c:	e51b3010 	ldr	r3, [fp, #-16]
20005410:	e593300c 	ldr	r3, [r3, #12]
20005414:	e50b3010 	str	r3, [fp, #-16]
20005418:	e51b3010 	ldr	r3, [fp, #-16]
2000541c:	e3530000 	cmp	r3, #0
20005420:	1affffb0 	bne	200052e8 <tcp_input+0x6a4>
20005424:	ea000000 	b	2000542c <tcp_input+0x7e8>
20005428:	e1a00000 	nop			; (mov r0, r0)
2000542c:	e51b3010 	ldr	r3, [fp, #-16]
20005430:	e3530000 	cmp	r3, #0
20005434:	1a00008a 	bne	20005664 <tcp_input+0xa20>
20005438:	e59f3718 	ldr	r3, [pc, #1816]	; 20005b58 <tcp_input+0xf14>
2000543c:	e5933000 	ldr	r3, [r3]
20005440:	e50b3010 	str	r3, [fp, #-16]
20005444:	ea00003f 	b	20005548 <tcp_input+0x904>
20005448:	e51b3010 	ldr	r3, [fp, #-16]
2000544c:	e1d322b0 	ldrh	r2, [r3, #32]
20005450:	e59f36e8 	ldr	r3, [pc, #1768]	; 20005b40 <tcp_input+0xefc>
20005454:	e5933000 	ldr	r3, [r3]
20005458:	e5d31000 	ldrb	r1, [r3]
2000545c:	e5d33001 	ldrb	r3, [r3, #1]
20005460:	e1a03403 	lsl	r3, r3, #8
20005464:	e1833001 	orr	r3, r3, r1
20005468:	e1a03803 	lsl	r3, r3, #16
2000546c:	e1a03823 	lsr	r3, r3, #16
20005470:	e1520003 	cmp	r2, r3
20005474:	1a000030 	bne	2000553c <tcp_input+0x8f8>
20005478:	e51b3010 	ldr	r3, [fp, #-16]
2000547c:	e1d321b8 	ldrh	r2, [r3, #24]
20005480:	e59f36b8 	ldr	r3, [pc, #1720]	; 20005b40 <tcp_input+0xefc>
20005484:	e5933000 	ldr	r3, [r3]
20005488:	e5d31002 	ldrb	r1, [r3, #2]
2000548c:	e5d33003 	ldrb	r3, [r3, #3]
20005490:	e1a03403 	lsl	r3, r3, #8
20005494:	e1833001 	orr	r3, r3, r1
20005498:	e1a03803 	lsl	r3, r3, #16
2000549c:	e1a03823 	lsr	r3, r3, #16
200054a0:	e1520003 	cmp	r2, r3
200054a4:	1a000024 	bne	2000553c <tcp_input+0x8f8>
200054a8:	e51b3010 	ldr	r3, [fp, #-16]
200054ac:	e5932004 	ldr	r2, [r3, #4]
200054b0:	e59f3684 	ldr	r3, [pc, #1668]	; 20005b3c <tcp_input+0xef8>
200054b4:	e5933000 	ldr	r3, [r3]
200054b8:	e5d3100c 	ldrb	r1, [r3, #12]
200054bc:	e5d3000d 	ldrb	r0, [r3, #13]
200054c0:	e1a00400 	lsl	r0, r0, #8
200054c4:	e1801001 	orr	r1, r0, r1
200054c8:	e5d3000e 	ldrb	r0, [r3, #14]
200054cc:	e1a00800 	lsl	r0, r0, #16
200054d0:	e1801001 	orr	r1, r0, r1
200054d4:	e5d3300f 	ldrb	r3, [r3, #15]
200054d8:	e1a03c03 	lsl	r3, r3, #24
200054dc:	e1833001 	orr	r3, r3, r1
200054e0:	e1520003 	cmp	r2, r3
200054e4:	1a000014 	bne	2000553c <tcp_input+0x8f8>
200054e8:	e51b3010 	ldr	r3, [fp, #-16]
200054ec:	e5932000 	ldr	r2, [r3]
200054f0:	e59f3644 	ldr	r3, [pc, #1604]	; 20005b3c <tcp_input+0xef8>
200054f4:	e5933000 	ldr	r3, [r3]
200054f8:	e5d31010 	ldrb	r1, [r3, #16]
200054fc:	e5d30011 	ldrb	r0, [r3, #17]
20005500:	e1a00400 	lsl	r0, r0, #8
20005504:	e1801001 	orr	r1, r0, r1
20005508:	e5d30012 	ldrb	r0, [r3, #18]
2000550c:	e1a00800 	lsl	r0, r0, #16
20005510:	e1801001 	orr	r1, r0, r1
20005514:	e5d33013 	ldrb	r3, [r3, #19]
20005518:	e1a03c03 	lsl	r3, r3, #24
2000551c:	e1833001 	orr	r3, r3, r1
20005520:	e1520003 	cmp	r2, r3
20005524:	1a000004 	bne	2000553c <tcp_input+0x8f8>
20005528:	e51b0010 	ldr	r0, [fp, #-16]
2000552c:	eb000278 	bl	20005f14 <tcp_timewait_input>
20005530:	e51b0020 	ldr	r0, [fp, #-32]	; 0xffffffe0
20005534:	ebfff1ce 	bl	20001c74 <pbuf_free>
20005538:	ea00017b 	b	20005b2c <tcp_input+0xee8>
2000553c:	e51b3010 	ldr	r3, [fp, #-16]
20005540:	e593300c 	ldr	r3, [r3, #12]
20005544:	e50b3010 	str	r3, [fp, #-16]
20005548:	e51b3010 	ldr	r3, [fp, #-16]
2000554c:	e3530000 	cmp	r3, #0
20005550:	1affffbc 	bne	20005448 <tcp_input+0x804>
20005554:	e3a03000 	mov	r3, #0
20005558:	e50b3014 	str	r3, [fp, #-20]	; 0xffffffec
2000555c:	e59f35f8 	ldr	r3, [pc, #1528]	; 20005b5c <tcp_input+0xf18>
20005560:	e5933000 	ldr	r3, [r3]
20005564:	e50b3018 	str	r3, [fp, #-24]	; 0xffffffe8
20005568:	ea00003a 	b	20005658 <tcp_input+0xa14>
2000556c:	e51b3018 	ldr	r3, [fp, #-24]	; 0xffffffe8
20005570:	e3530000 	cmp	r3, #0
20005574:	0a000013 	beq	200055c8 <tcp_input+0x984>
20005578:	e51b3018 	ldr	r3, [fp, #-24]	; 0xffffffe8
2000557c:	e5933000 	ldr	r3, [r3]
20005580:	e3530000 	cmp	r3, #0
20005584:	0a00000f 	beq	200055c8 <tcp_input+0x984>
20005588:	e51b3018 	ldr	r3, [fp, #-24]	; 0xffffffe8
2000558c:	e5932000 	ldr	r2, [r3]
20005590:	e59f35a4 	ldr	r3, [pc, #1444]	; 20005b3c <tcp_input+0xef8>
20005594:	e5933000 	ldr	r3, [r3]
20005598:	e5d31010 	ldrb	r1, [r3, #16]
2000559c:	e5d30011 	ldrb	r0, [r3, #17]
200055a0:	e1a00400 	lsl	r0, r0, #8
200055a4:	e1801001 	orr	r1, r0, r1
200055a8:	e5d30012 	ldrb	r0, [r3, #18]
200055ac:	e1a00800 	lsl	r0, r0, #16
200055b0:	e1801001 	orr	r1, r0, r1
200055b4:	e5d33013 	ldrb	r3, [r3, #19]
200055b8:	e1a03c03 	lsl	r3, r3, #24
200055bc:	e1833001 	orr	r3, r3, r1
200055c0:	e1520003 	cmp	r2, r3
200055c4:	1a00001e 	bne	20005644 <tcp_input+0xa00>
200055c8:	e51b3018 	ldr	r3, [fp, #-24]	; 0xffffffe8
200055cc:	e1d321b8 	ldrh	r2, [r3, #24]
200055d0:	e59f3568 	ldr	r3, [pc, #1384]	; 20005b40 <tcp_input+0xefc>
200055d4:	e5933000 	ldr	r3, [r3]
200055d8:	e5d31002 	ldrb	r1, [r3, #2]
200055dc:	e5d33003 	ldrb	r3, [r3, #3]
200055e0:	e1a03403 	lsl	r3, r3, #8
200055e4:	e1833001 	orr	r3, r3, r1
200055e8:	e1a03803 	lsl	r3, r3, #16
200055ec:	e1a03823 	lsr	r3, r3, #16
200055f0:	e1520003 	cmp	r2, r3
200055f4:	1a000012 	bne	20005644 <tcp_input+0xa00>
200055f8:	e51b3014 	ldr	r3, [fp, #-20]	; 0xffffffec
200055fc:	e3530000 	cmp	r3, #0
20005600:	0a00000a 	beq	20005630 <tcp_input+0x9ec>
20005604:	e51b3018 	ldr	r3, [fp, #-24]	; 0xffffffe8
20005608:	e593200c 	ldr	r2, [r3, #12]
2000560c:	e51b3014 	ldr	r3, [fp, #-20]	; 0xffffffec
20005610:	e583200c 	str	r2, [r3, #12]
20005614:	e59f3540 	ldr	r3, [pc, #1344]	; 20005b5c <tcp_input+0xf18>
20005618:	e5932000 	ldr	r2, [r3]
2000561c:	e51b3018 	ldr	r3, [fp, #-24]	; 0xffffffe8
20005620:	e583200c 	str	r2, [r3, #12]
20005624:	e59f2530 	ldr	r2, [pc, #1328]	; 20005b5c <tcp_input+0xf18>
20005628:	e51b3018 	ldr	r3, [fp, #-24]	; 0xffffffe8
2000562c:	e5823000 	str	r3, [r2]
20005630:	e51b0018 	ldr	r0, [fp, #-24]	; 0xffffffe8
20005634:	eb00014d 	bl	20005b70 <tcp_listen_input>
20005638:	e51b0020 	ldr	r0, [fp, #-32]	; 0xffffffe0
2000563c:	ebfff18c 	bl	20001c74 <pbuf_free>
20005640:	ea000139 	b	20005b2c <tcp_input+0xee8>
20005644:	e51b3018 	ldr	r3, [fp, #-24]	; 0xffffffe8
20005648:	e50b3014 	str	r3, [fp, #-20]	; 0xffffffec
2000564c:	e51b3018 	ldr	r3, [fp, #-24]	; 0xffffffe8
20005650:	e593300c 	ldr	r3, [r3, #12]
20005654:	e50b3018 	str	r3, [fp, #-24]	; 0xffffffe8
20005658:	e51b3018 	ldr	r3, [fp, #-24]	; 0xffffffe8
2000565c:	e3530000 	cmp	r3, #0
20005660:	1affffc1 	bne	2000556c <tcp_input+0x928>
20005664:	e51b3010 	ldr	r3, [fp, #-16]
20005668:	e3530000 	cmp	r3, #0
2000566c:	0a0000ec 	beq	20005a24 <tcp_input+0xde0>
20005670:	e59f34e8 	ldr	r3, [pc, #1256]	; 20005b60 <tcp_input+0xf1c>
20005674:	e3a02000 	mov	r2, #0
20005678:	e5832000 	str	r2, [r3]
2000567c:	e51b3020 	ldr	r3, [fp, #-32]	; 0xffffffe0
20005680:	e1d330b8 	ldrh	r3, [r3, #8]
20005684:	e59f24d4 	ldr	r2, [pc, #1236]	; 20005b60 <tcp_input+0xf1c>
20005688:	e1c230bc 	strh	r3, [r2, #12]
2000568c:	e51b3020 	ldr	r3, [fp, #-32]	; 0xffffffe0
20005690:	e5933004 	ldr	r3, [r3, #4]
20005694:	e59f24c4 	ldr	r2, [pc, #1220]	; 20005b60 <tcp_input+0xf1c>
20005698:	e5823008 	str	r3, [r2, #8]
2000569c:	e59f24bc 	ldr	r2, [pc, #1212]	; 20005b60 <tcp_input+0xf1c>
200056a0:	e51b3020 	ldr	r3, [fp, #-32]	; 0xffffffe0
200056a4:	e5823004 	str	r3, [r2, #4]
200056a8:	e59f3490 	ldr	r3, [pc, #1168]	; 20005b40 <tcp_input+0xefc>
200056ac:	e5933000 	ldr	r3, [r3]
200056b0:	e59f24a8 	ldr	r2, [pc, #1192]	; 20005b60 <tcp_input+0xf1c>
200056b4:	e5823010 	str	r3, [r2, #16]
200056b8:	e59f34a4 	ldr	r3, [pc, #1188]	; 20005b64 <tcp_input+0xf20>
200056bc:	e3a02000 	mov	r2, #0
200056c0:	e5832000 	str	r2, [r3]
200056c4:	e59f349c 	ldr	r3, [pc, #1180]	; 20005b68 <tcp_input+0xf24>
200056c8:	e3a02000 	mov	r2, #0
200056cc:	e5c32000 	strb	r2, [r3]
200056d0:	e51b3010 	ldr	r3, [fp, #-16]
200056d4:	e593307c 	ldr	r3, [r3, #124]	; 0x7c
200056d8:	e3530000 	cmp	r3, #0
200056dc:	0a000029 	beq	20005788 <tcp_input+0xb44>
200056e0:	e51b3010 	ldr	r3, [fp, #-16]
200056e4:	e5933084 	ldr	r3, [r3, #132]	; 0x84
200056e8:	e3530000 	cmp	r3, #0
200056ec:	0a00000c 	beq	20005724 <tcp_input+0xae0>
200056f0:	e51b3010 	ldr	r3, [fp, #-16]
200056f4:	e5934084 	ldr	r4, [r3, #132]	; 0x84
200056f8:	e51b3010 	ldr	r3, [fp, #-16]
200056fc:	e5930014 	ldr	r0, [r3, #20]
20005700:	e51b3010 	ldr	r3, [fp, #-16]
20005704:	e593207c 	ldr	r2, [r3, #124]	; 0x7c
20005708:	e3a03000 	mov	r3, #0
2000570c:	e51b1010 	ldr	r1, [fp, #-16]
20005710:	e1a0e00f 	mov	lr, pc
20005714:	e12fff14 	bx	r4
20005718:	e1a03000 	mov	r3, r0
2000571c:	e54b3019 	strb	r3, [fp, #-25]	; 0xffffffe7
20005720:	ea000007 	b	20005744 <tcp_input+0xb00>
20005724:	e51b3010 	ldr	r3, [fp, #-16]
20005728:	e593207c 	ldr	r2, [r3, #124]	; 0x7c
2000572c:	e3a03000 	mov	r3, #0
20005730:	e51b1010 	ldr	r1, [fp, #-16]
20005734:	e3a00000 	mov	r0, #0
20005738:	ebfffb25 	bl	200043d4 <tcp_recv_null>
2000573c:	e1a03000 	mov	r3, r0
20005740:	e54b3019 	strb	r3, [fp, #-25]	; 0xffffffe7
20005744:	e15b31d9 	ldrsb	r3, [fp, #-25]	; 0xffffffe7
20005748:	e3530000 	cmp	r3, #0
2000574c:	1a000003 	bne	20005760 <tcp_input+0xb1c>
20005750:	e51b3010 	ldr	r3, [fp, #-16]
20005754:	e3a02000 	mov	r2, #0
20005758:	e583207c 	str	r2, [r3, #124]	; 0x7c
2000575c:	ea000009 	b	20005788 <tcp_input+0xb44>
20005760:	e59f33d0 	ldr	r3, [pc, #976]	; 20005b38 <tcp_input+0xef4>
20005764:	e1d339b6 	ldrh	r3, [r3, #150]	; 0x96
20005768:	e2833001 	add	r3, r3, #1
2000576c:	e1a03803 	lsl	r3, r3, #16
20005770:	e1a03823 	lsr	r3, r3, #16
20005774:	e59f23bc 	ldr	r2, [pc, #956]	; 20005b38 <tcp_input+0xef4>
20005778:	e1c239b6 	strh	r3, [r2, #150]	; 0x96
2000577c:	e51b0020 	ldr	r0, [fp, #-32]	; 0xffffffe0
20005780:	ebfff13b 	bl	20001c74 <pbuf_free>
20005784:	ea0000e8 	b	20005b2c <tcp_input+0xee8>
20005788:	e59f23dc 	ldr	r2, [pc, #988]	; 20005b6c <tcp_input+0xf28>
2000578c:	e51b3010 	ldr	r3, [fp, #-16]
20005790:	e5823000 	str	r3, [r2]
20005794:	e51b0010 	ldr	r0, [fp, #-16]
20005798:	eb000249 	bl	200060c4 <tcp_process>
2000579c:	e1a03000 	mov	r3, r0
200057a0:	e54b3019 	strb	r3, [fp, #-25]	; 0xffffffe7
200057a4:	e15b31d9 	ldrsb	r3, [fp, #-25]	; 0xffffffe7
200057a8:	e3730005 	cmn	r3, #5
200057ac:	0a00008d 	beq	200059e8 <tcp_input+0xda4>
200057b0:	e59f33b0 	ldr	r3, [pc, #944]	; 20005b68 <tcp_input+0xf24>
200057b4:	e5d33000 	ldrb	r3, [r3]
200057b8:	e2033008 	and	r3, r3, #8
200057bc:	e3530000 	cmp	r3, #0
200057c0:	0a000012 	beq	20005810 <tcp_input+0xbcc>
200057c4:	e51b3010 	ldr	r3, [fp, #-16]
200057c8:	e5933090 	ldr	r3, [r3, #144]	; 0x90
200057cc:	e3530000 	cmp	r3, #0
200057d0:	0a000007 	beq	200057f4 <tcp_input+0xbb0>
200057d4:	e51b3010 	ldr	r3, [fp, #-16]
200057d8:	e5933090 	ldr	r3, [r3, #144]	; 0x90
200057dc:	e51b2010 	ldr	r2, [fp, #-16]
200057e0:	e5922014 	ldr	r2, [r2, #20]
200057e4:	e3e01005 	mvn	r1, #5
200057e8:	e1a00002 	mov	r0, r2
200057ec:	e1a0e00f 	mov	lr, pc
200057f0:	e12fff13 	bx	r3
200057f4:	e51b1010 	ldr	r1, [fp, #-16]
200057f8:	e59f0354 	ldr	r0, [pc, #852]	; 20005b54 <tcp_input+0xf10>
200057fc:	ebfffc84 	bl	20004a14 <tcp_pcb_remove>
20005800:	e51b1010 	ldr	r1, [fp, #-16]
20005804:	e3a00002 	mov	r0, #2
20005808:	ebffed83 	bl	20000e1c <memp_free>
2000580c:	ea000075 	b	200059e8 <tcp_input+0xda4>
20005810:	e59f3350 	ldr	r3, [pc, #848]	; 20005b68 <tcp_input+0xf24>
20005814:	e5d33000 	ldrb	r3, [r3]
20005818:	e2033010 	and	r3, r3, #16
2000581c:	e3530000 	cmp	r3, #0
20005820:	0a000006 	beq	20005840 <tcp_input+0xbfc>
20005824:	e51b1010 	ldr	r1, [fp, #-16]
20005828:	e59f0324 	ldr	r0, [pc, #804]	; 20005b54 <tcp_input+0xf10>
2000582c:	ebfffc78 	bl	20004a14 <tcp_pcb_remove>
20005830:	e51b1010 	ldr	r1, [fp, #-16]
20005834:	e3a00002 	mov	r0, #2
20005838:	ebffed77 	bl	20000e1c <memp_free>
2000583c:	ea000069 	b	200059e8 <tcp_input+0xda4>
20005840:	e3a03000 	mov	r3, #0
20005844:	e54b3019 	strb	r3, [fp, #-25]	; 0xffffffe7
20005848:	e51b3010 	ldr	r3, [fp, #-16]
2000584c:	e1d336bc 	ldrh	r3, [r3, #108]	; 0x6c
20005850:	e3530000 	cmp	r3, #0
20005854:	0a000011 	beq	200058a0 <tcp_input+0xc5c>
20005858:	e51b3010 	ldr	r3, [fp, #-16]
2000585c:	e5933080 	ldr	r3, [r3, #128]	; 0x80
20005860:	e3530000 	cmp	r3, #0
20005864:	0a00000b 	beq	20005898 <tcp_input+0xc54>
20005868:	e51b3010 	ldr	r3, [fp, #-16]
2000586c:	e5933080 	ldr	r3, [r3, #128]	; 0x80
20005870:	e51b2010 	ldr	r2, [fp, #-16]
20005874:	e5920014 	ldr	r0, [r2, #20]
20005878:	e51b2010 	ldr	r2, [fp, #-16]
2000587c:	e1d226bc 	ldrh	r2, [r2, #108]	; 0x6c
20005880:	e51b1010 	ldr	r1, [fp, #-16]
20005884:	e1a0e00f 	mov	lr, pc
20005888:	e12fff13 	bx	r3
2000588c:	e1a03000 	mov	r3, r0
20005890:	e54b3019 	strb	r3, [fp, #-25]	; 0xffffffe7
20005894:	ea000001 	b	200058a0 <tcp_input+0xc5c>
20005898:	e3a03000 	mov	r3, #0
2000589c:	e54b3019 	strb	r3, [fp, #-25]	; 0xffffffe7
200058a0:	e59f32bc 	ldr	r3, [pc, #700]	; 20005b64 <tcp_input+0xf20>
200058a4:	e5933000 	ldr	r3, [r3]
200058a8:	e3530000 	cmp	r3, #0
200058ac:	0a00002c 	beq	20005964 <tcp_input+0xd20>
200058b0:	e59f3294 	ldr	r3, [pc, #660]	; 20005b4c <tcp_input+0xf08>
200058b4:	e5d33000 	ldrb	r3, [r3]
200058b8:	e2033008 	and	r3, r3, #8
200058bc:	e3530000 	cmp	r3, #0
200058c0:	0a000007 	beq	200058e4 <tcp_input+0xca0>
200058c4:	e59f3298 	ldr	r3, [pc, #664]	; 20005b64 <tcp_input+0xf20>
200058c8:	e5933000 	ldr	r3, [r3]
200058cc:	e59f2290 	ldr	r2, [pc, #656]	; 20005b64 <tcp_input+0xf20>
200058d0:	e5922000 	ldr	r2, [r2]
200058d4:	e5d2200d 	ldrb	r2, [r2, #13]
200058d8:	e3822001 	orr	r2, r2, #1
200058dc:	e20220ff 	and	r2, r2, #255	; 0xff
200058e0:	e5c3200d 	strb	r2, [r3, #13]
200058e4:	e51b3010 	ldr	r3, [fp, #-16]
200058e8:	e5933084 	ldr	r3, [r3, #132]	; 0x84
200058ec:	e3530000 	cmp	r3, #0
200058f0:	0a00000c 	beq	20005928 <tcp_input+0xce4>
200058f4:	e51b3010 	ldr	r3, [fp, #-16]
200058f8:	e5934084 	ldr	r4, [r3, #132]	; 0x84
200058fc:	e51b3010 	ldr	r3, [fp, #-16]
20005900:	e5930014 	ldr	r0, [r3, #20]
20005904:	e59f3258 	ldr	r3, [pc, #600]	; 20005b64 <tcp_input+0xf20>
20005908:	e5932000 	ldr	r2, [r3]
2000590c:	e3a03000 	mov	r3, #0
20005910:	e51b1010 	ldr	r1, [fp, #-16]
20005914:	e1a0e00f 	mov	lr, pc
20005918:	e12fff14 	bx	r4
2000591c:	e1a03000 	mov	r3, r0
20005920:	e54b3019 	strb	r3, [fp, #-25]	; 0xffffffe7
20005924:	ea000007 	b	20005948 <tcp_input+0xd04>
20005928:	e59f3234 	ldr	r3, [pc, #564]	; 20005b64 <tcp_input+0xf20>
2000592c:	e5932000 	ldr	r2, [r3]
20005930:	e3a03000 	mov	r3, #0
20005934:	e51b1010 	ldr	r1, [fp, #-16]
20005938:	e3a00000 	mov	r0, #0
2000593c:	ebfffaa4 	bl	200043d4 <tcp_recv_null>
20005940:	e1a03000 	mov	r3, r0
20005944:	e54b3019 	strb	r3, [fp, #-25]	; 0xffffffe7
20005948:	e15b31d9 	ldrsb	r3, [fp, #-25]	; 0xffffffe7
2000594c:	e3530000 	cmp	r3, #0
20005950:	0a000003 	beq	20005964 <tcp_input+0xd20>
20005954:	e59f3208 	ldr	r3, [pc, #520]	; 20005b64 <tcp_input+0xf20>
20005958:	e5932000 	ldr	r2, [r3]
2000595c:	e51b3010 	ldr	r3, [fp, #-16]
20005960:	e583207c 	str	r2, [r3, #124]	; 0x7c
20005964:	e59f31fc 	ldr	r3, [pc, #508]	; 20005b68 <tcp_input+0xf24>
20005968:	e5d33000 	ldrb	r3, [r3]
2000596c:	e2033020 	and	r3, r3, #32
20005970:	e3530000 	cmp	r3, #0
20005974:	0a000016 	beq	200059d4 <tcp_input+0xd90>
20005978:	e51b3010 	ldr	r3, [fp, #-16]
2000597c:	e5933084 	ldr	r3, [r3, #132]	; 0x84
20005980:	e3530000 	cmp	r3, #0
20005984:	0a00000b 	beq	200059b8 <tcp_input+0xd74>
20005988:	e51b3010 	ldr	r3, [fp, #-16]
2000598c:	e5934084 	ldr	r4, [r3, #132]	; 0x84
20005990:	e51b3010 	ldr	r3, [fp, #-16]
20005994:	e5930014 	ldr	r0, [r3, #20]
20005998:	e3a03000 	mov	r3, #0
2000599c:	e3a02000 	mov	r2, #0
200059a0:	e51b1010 	ldr	r1, [fp, #-16]
200059a4:	e1a0e00f 	mov	lr, pc
200059a8:	e12fff14 	bx	r4
200059ac:	e1a03000 	mov	r3, r0
200059b0:	e54b3019 	strb	r3, [fp, #-25]	; 0xffffffe7
200059b4:	ea000006 	b	200059d4 <tcp_input+0xd90>
200059b8:	e3a03000 	mov	r3, #0
200059bc:	e3a02000 	mov	r2, #0
200059c0:	e51b1010 	ldr	r1, [fp, #-16]
200059c4:	e3a00000 	mov	r0, #0
200059c8:	ebfffa81 	bl	200043d4 <tcp_recv_null>
200059cc:	e1a03000 	mov	r3, r0
200059d0:	e54b3019 	strb	r3, [fp, #-25]	; 0xffffffe7
200059d4:	e59f3190 	ldr	r3, [pc, #400]	; 20005b6c <tcp_input+0xf28>
200059d8:	e3a02000 	mov	r2, #0
200059dc:	e5832000 	str	r2, [r3]
200059e0:	e51b0010 	ldr	r0, [fp, #-16]
200059e4:	eb000e37 	bl	200092c8 <tcp_output>
200059e8:	e59f317c 	ldr	r3, [pc, #380]	; 20005b6c <tcp_input+0xf28>
200059ec:	e3a02000 	mov	r2, #0
200059f0:	e5832000 	str	r2, [r3]
200059f4:	e59f3164 	ldr	r3, [pc, #356]	; 20005b60 <tcp_input+0xf1c>
200059f8:	e5933004 	ldr	r3, [r3, #4]
200059fc:	e3530000 	cmp	r3, #0
20005a00:	0a000049 	beq	20005b2c <tcp_input+0xee8>
20005a04:	e59f3154 	ldr	r3, [pc, #340]	; 20005b60 <tcp_input+0xf1c>
20005a08:	e5933004 	ldr	r3, [r3, #4]
20005a0c:	e1a00003 	mov	r0, r3
20005a10:	ebfff097 	bl	20001c74 <pbuf_free>
20005a14:	e59f3144 	ldr	r3, [pc, #324]	; 20005b60 <tcp_input+0xf1c>
20005a18:	e3a02000 	mov	r2, #0
20005a1c:	e5832004 	str	r2, [r3, #4]
20005a20:	ea000041 	b	20005b2c <tcp_input+0xee8>
20005a24:	e59f3114 	ldr	r3, [pc, #276]	; 20005b40 <tcp_input+0xefc>
20005a28:	e5933000 	ldr	r3, [r3]
20005a2c:	e5d3200c 	ldrb	r2, [r3, #12]
20005a30:	e5d3300d 	ldrb	r3, [r3, #13]
20005a34:	e1a03403 	lsl	r3, r3, #8
20005a38:	e1833002 	orr	r3, r3, r2
20005a3c:	e1a03803 	lsl	r3, r3, #16
20005a40:	e1a03823 	lsr	r3, r3, #16
20005a44:	e1a00003 	mov	r0, r3
20005a48:	eb001e1f 	bl	2000d2cc <ntohs>
20005a4c:	e1a03000 	mov	r3, r0
20005a50:	e2033004 	and	r3, r3, #4
20005a54:	e3530000 	cmp	r3, #0
20005a58:	1a000031 	bne	20005b24 <tcp_input+0xee0>
20005a5c:	e59f30d4 	ldr	r3, [pc, #212]	; 20005b38 <tcp_input+0xef4>
20005a60:	e1d33ab0 	ldrh	r3, [r3, #160]	; 0xa0
20005a64:	e2833001 	add	r3, r3, #1
20005a68:	e1a03803 	lsl	r3, r3, #16
20005a6c:	e1a03823 	lsr	r3, r3, #16
20005a70:	e59f20c0 	ldr	r2, [pc, #192]	; 20005b38 <tcp_input+0xef4>
20005a74:	e1c23ab0 	strh	r3, [r2, #160]	; 0xa0
20005a78:	e59f30b8 	ldr	r3, [pc, #184]	; 20005b38 <tcp_input+0xef4>
20005a7c:	e1d339b6 	ldrh	r3, [r3, #150]	; 0x96
20005a80:	e2833001 	add	r3, r3, #1
20005a84:	e1a03803 	lsl	r3, r3, #16
20005a88:	e1a03823 	lsr	r3, r3, #16
20005a8c:	e59f20a4 	ldr	r2, [pc, #164]	; 20005b38 <tcp_input+0xef4>
20005a90:	e1c239b6 	strh	r3, [r2, #150]	; 0x96
20005a94:	e59f30ac 	ldr	r3, [pc, #172]	; 20005b48 <tcp_input+0xf04>
20005a98:	e5930000 	ldr	r0, [r3]
20005a9c:	e59f30ac 	ldr	r3, [pc, #172]	; 20005b50 <tcp_input+0xf0c>
20005aa0:	e1d330b0 	ldrh	r3, [r3]
20005aa4:	e1a02003 	mov	r2, r3
20005aa8:	e59f3094 	ldr	r3, [pc, #148]	; 20005b44 <tcp_input+0xf00>
20005aac:	e5933000 	ldr	r3, [r3]
20005ab0:	e082c003 	add	ip, r2, r3
20005ab4:	e59f3080 	ldr	r3, [pc, #128]	; 20005b3c <tcp_input+0xef8>
20005ab8:	e5933000 	ldr	r3, [r3]
20005abc:	e283e010 	add	lr, r3, #16
20005ac0:	e59f3074 	ldr	r3, [pc, #116]	; 20005b3c <tcp_input+0xef8>
20005ac4:	e5933000 	ldr	r3, [r3]
20005ac8:	e283400c 	add	r4, r3, #12
20005acc:	e59f306c 	ldr	r3, [pc, #108]	; 20005b40 <tcp_input+0xefc>
20005ad0:	e5933000 	ldr	r3, [r3]
20005ad4:	e5d32002 	ldrb	r2, [r3, #2]
20005ad8:	e5d33003 	ldrb	r3, [r3, #3]
20005adc:	e1a03403 	lsl	r3, r3, #8
20005ae0:	e1833002 	orr	r3, r3, r2
20005ae4:	e1a03803 	lsl	r3, r3, #16
20005ae8:	e1a02823 	lsr	r2, r3, #16
20005aec:	e59f304c 	ldr	r3, [pc, #76]	; 20005b40 <tcp_input+0xefc>
20005af0:	e5933000 	ldr	r3, [r3]
20005af4:	e5d31000 	ldrb	r1, [r3]
20005af8:	e5d33001 	ldrb	r3, [r3, #1]
20005afc:	e1a03403 	lsl	r3, r3, #8
20005b00:	e1833001 	orr	r3, r3, r1
20005b04:	e1a03803 	lsl	r3, r3, #16
20005b08:	e1a03823 	lsr	r3, r3, #16
20005b0c:	e58d3004 	str	r3, [sp, #4]
20005b10:	e58d2000 	str	r2, [sp]
20005b14:	e1a03004 	mov	r3, r4
20005b18:	e1a0200e 	mov	r2, lr
20005b1c:	e1a0100c 	mov	r1, ip
20005b20:	eb00106e 	bl	20009ce0 <tcp_rst>
20005b24:	e51b0020 	ldr	r0, [fp, #-32]	; 0xffffffe0
20005b28:	ebfff051 	bl	20001c74 <pbuf_free>
20005b2c:	e24bd008 	sub	sp, fp, #8
20005b30:	e8bd4810 	pop	{r4, fp, lr}
20005b34:	e12fff1e 	bx	lr
20005b38:	20015630 	.word	0x20015630
20005b3c:	20014bb0 	.word	0x20014bb0
20005b40:	20014bac 	.word	0x20014bac
20005b44:	20014bb4 	.word	0x20014bb4
20005b48:	20014bb8 	.word	0x20014bb8
20005b4c:	20014bbc 	.word	0x20014bbc
20005b50:	20014bbe 	.word	0x20014bbe
20005b54:	20015748 	.word	0x20015748
20005b58:	2001575c 	.word	0x2001575c
20005b5c:	20015750 	.word	0x20015750
20005b60:	20014b98 	.word	0x20014b98
20005b64:	20014bc4 	.word	0x20014bc4
20005b68:	20014bc0 	.word	0x20014bc0
20005b6c:	20015760 	.word	0x20015760

20005b70 <tcp_listen_input>:
20005b70:	e92d4810 	push	{r4, fp, lr}
20005b74:	e28db008 	add	fp, sp, #8
20005b78:	e24dd01c 	sub	sp, sp, #28
20005b7c:	e50b0018 	str	r0, [fp, #-24]	; 0xffffffe8
20005b80:	e59f3368 	ldr	r3, [pc, #872]	; 20005ef0 <tcp_listen_input+0x380>
20005b84:	e5d33000 	ldrb	r3, [r3]
20005b88:	e2033010 	and	r3, r3, #16
20005b8c:	e3530000 	cmp	r3, #0
20005b90:	0a000025 	beq	20005c2c <tcp_listen_input+0xbc>
20005b94:	e59f3358 	ldr	r3, [pc, #856]	; 20005ef4 <tcp_listen_input+0x384>
20005b98:	e5933000 	ldr	r3, [r3]
20005b9c:	e2830001 	add	r0, r3, #1
20005ba0:	e59f3350 	ldr	r3, [pc, #848]	; 20005ef8 <tcp_listen_input+0x388>
20005ba4:	e1d330b0 	ldrh	r3, [r3]
20005ba8:	e1a02003 	mov	r2, r3
20005bac:	e59f3348 	ldr	r3, [pc, #840]	; 20005efc <tcp_listen_input+0x38c>
20005bb0:	e5933000 	ldr	r3, [r3]
20005bb4:	e082c003 	add	ip, r2, r3
20005bb8:	e59f3340 	ldr	r3, [pc, #832]	; 20005f00 <tcp_listen_input+0x390>
20005bbc:	e5933000 	ldr	r3, [r3]
20005bc0:	e283e010 	add	lr, r3, #16
20005bc4:	e59f3334 	ldr	r3, [pc, #820]	; 20005f00 <tcp_listen_input+0x390>
20005bc8:	e5933000 	ldr	r3, [r3]
20005bcc:	e283400c 	add	r4, r3, #12
20005bd0:	e59f332c 	ldr	r3, [pc, #812]	; 20005f04 <tcp_listen_input+0x394>
20005bd4:	e5933000 	ldr	r3, [r3]
20005bd8:	e5d32002 	ldrb	r2, [r3, #2]
20005bdc:	e5d33003 	ldrb	r3, [r3, #3]
20005be0:	e1a03403 	lsl	r3, r3, #8
20005be4:	e1833002 	orr	r3, r3, r2
20005be8:	e1a03803 	lsl	r3, r3, #16
20005bec:	e1a02823 	lsr	r2, r3, #16
20005bf0:	e59f330c 	ldr	r3, [pc, #780]	; 20005f04 <tcp_listen_input+0x394>
20005bf4:	e5933000 	ldr	r3, [r3]
20005bf8:	e5d31000 	ldrb	r1, [r3]
20005bfc:	e5d33001 	ldrb	r3, [r3, #1]
20005c00:	e1a03403 	lsl	r3, r3, #8
20005c04:	e1833001 	orr	r3, r3, r1
20005c08:	e1a03803 	lsl	r3, r3, #16
20005c0c:	e1a03823 	lsr	r3, r3, #16
20005c10:	e58d3004 	str	r3, [sp, #4]
20005c14:	e58d2000 	str	r2, [sp]
20005c18:	e1a03004 	mov	r3, r4
20005c1c:	e1a0200e 	mov	r2, lr
20005c20:	e1a0100c 	mov	r1, ip
20005c24:	eb00102d 	bl	20009ce0 <tcp_rst>
20005c28:	ea0000a9 	b	20005ed4 <tcp_listen_input+0x364>
20005c2c:	e59f32bc 	ldr	r3, [pc, #700]	; 20005ef0 <tcp_listen_input+0x380>
20005c30:	e5d33000 	ldrb	r3, [r3]
20005c34:	e2033002 	and	r3, r3, #2
20005c38:	e3530000 	cmp	r3, #0
20005c3c:	0a0000a4 	beq	20005ed4 <tcp_listen_input+0x364>
20005c40:	e51b3018 	ldr	r3, [fp, #-24]	; 0xffffffe8
20005c44:	e5d33011 	ldrb	r3, [r3, #17]
20005c48:	e1a00003 	mov	r0, r3
20005c4c:	ebfffa6b 	bl	20004600 <tcp_alloc>
20005c50:	e50b0010 	str	r0, [fp, #-16]
20005c54:	e51b3010 	ldr	r3, [fp, #-16]
20005c58:	e3530000 	cmp	r3, #0
20005c5c:	1a000008 	bne	20005c84 <tcp_listen_input+0x114>
20005c60:	e59f32a0 	ldr	r3, [pc, #672]	; 20005f08 <tcp_listen_input+0x398>
20005c64:	e1d339bc 	ldrh	r3, [r3, #156]	; 0x9c
20005c68:	e2833001 	add	r3, r3, #1
20005c6c:	e1a03803 	lsl	r3, r3, #16
20005c70:	e1a03823 	lsr	r3, r3, #16
20005c74:	e59f228c 	ldr	r2, [pc, #652]	; 20005f08 <tcp_listen_input+0x398>
20005c78:	e1c239bc 	strh	r3, [r2, #156]	; 0x9c
20005c7c:	e3a030ff 	mov	r3, #255	; 0xff
20005c80:	ea000094 	b	20005ed8 <tcp_listen_input+0x368>
20005c84:	e59f3274 	ldr	r3, [pc, #628]	; 20005f00 <tcp_listen_input+0x390>
20005c88:	e5933000 	ldr	r3, [r3]
20005c8c:	e2833010 	add	r3, r3, #16
20005c90:	e3530000 	cmp	r3, #0
20005c94:	0a00000d 	beq	20005cd0 <tcp_listen_input+0x160>
20005c98:	e59f3260 	ldr	r3, [pc, #608]	; 20005f00 <tcp_listen_input+0x390>
20005c9c:	e5933000 	ldr	r3, [r3]
20005ca0:	e5d32010 	ldrb	r2, [r3, #16]
20005ca4:	e5d31011 	ldrb	r1, [r3, #17]
20005ca8:	e1a01401 	lsl	r1, r1, #8
20005cac:	e1812002 	orr	r2, r1, r2
20005cb0:	e5d31012 	ldrb	r1, [r3, #18]
20005cb4:	e1a01801 	lsl	r1, r1, #16
20005cb8:	e1812002 	orr	r2, r1, r2
20005cbc:	e5d33013 	ldrb	r3, [r3, #19]
20005cc0:	e1a03c03 	lsl	r3, r3, #24
20005cc4:	e1833002 	orr	r3, r3, r2
20005cc8:	e1a02003 	mov	r2, r3
20005ccc:	ea000000 	b	20005cd4 <tcp_listen_input+0x164>
20005cd0:	e3a02000 	mov	r2, #0
20005cd4:	e51b3010 	ldr	r3, [fp, #-16]
20005cd8:	e5832000 	str	r2, [r3]
20005cdc:	e51b3018 	ldr	r3, [fp, #-24]	; 0xffffffe8
20005ce0:	e1d321b8 	ldrh	r2, [r3, #24]
20005ce4:	e51b3010 	ldr	r3, [fp, #-16]
20005ce8:	e1c321b8 	strh	r2, [r3, #24]
20005cec:	e59f320c 	ldr	r3, [pc, #524]	; 20005f00 <tcp_listen_input+0x390>
20005cf0:	e5933000 	ldr	r3, [r3]
20005cf4:	e283300c 	add	r3, r3, #12
20005cf8:	e3530000 	cmp	r3, #0
20005cfc:	0a00000d 	beq	20005d38 <tcp_listen_input+0x1c8>
20005d00:	e59f31f8 	ldr	r3, [pc, #504]	; 20005f00 <tcp_listen_input+0x390>
20005d04:	e5933000 	ldr	r3, [r3]
20005d08:	e5d3200c 	ldrb	r2, [r3, #12]
20005d0c:	e5d3100d 	ldrb	r1, [r3, #13]
20005d10:	e1a01401 	lsl	r1, r1, #8
20005d14:	e1812002 	orr	r2, r1, r2
20005d18:	e5d3100e 	ldrb	r1, [r3, #14]
20005d1c:	e1a01801 	lsl	r1, r1, #16
20005d20:	e1812002 	orr	r2, r1, r2
20005d24:	e5d3300f 	ldrb	r3, [r3, #15]
20005d28:	e1a03c03 	lsl	r3, r3, #24
20005d2c:	e1833002 	orr	r3, r3, r2
20005d30:	e1a02003 	mov	r2, r3
20005d34:	ea000000 	b	20005d3c <tcp_listen_input+0x1cc>
20005d38:	e3a02000 	mov	r2, #0
20005d3c:	e51b3010 	ldr	r3, [fp, #-16]
20005d40:	e5832004 	str	r2, [r3, #4]
20005d44:	e59f31b8 	ldr	r3, [pc, #440]	; 20005f04 <tcp_listen_input+0x394>
20005d48:	e5933000 	ldr	r3, [r3]
20005d4c:	e5d32000 	ldrb	r2, [r3]
20005d50:	e5d33001 	ldrb	r3, [r3, #1]
20005d54:	e1a03403 	lsl	r3, r3, #8
20005d58:	e1833002 	orr	r3, r3, r2
20005d5c:	e1a03803 	lsl	r3, r3, #16
20005d60:	e1a02823 	lsr	r2, r3, #16
20005d64:	e51b3010 	ldr	r3, [fp, #-16]
20005d68:	e1c322b0 	strh	r2, [r3, #32]
20005d6c:	e51b3010 	ldr	r3, [fp, #-16]
20005d70:	e3a02003 	mov	r2, #3
20005d74:	e5c32010 	strb	r2, [r3, #16]
20005d78:	e59f317c 	ldr	r3, [pc, #380]	; 20005efc <tcp_listen_input+0x38c>
20005d7c:	e5933000 	ldr	r3, [r3]
20005d80:	e2832001 	add	r2, r3, #1
20005d84:	e51b3010 	ldr	r3, [fp, #-16]
20005d88:	e5832024 	str	r2, [r3, #36]	; 0x24
20005d8c:	e51b3010 	ldr	r3, [fp, #-16]
20005d90:	e5932024 	ldr	r2, [r3, #36]	; 0x24
20005d94:	e51b3010 	ldr	r3, [fp, #-16]
20005d98:	e583202c 	str	r2, [r3, #44]	; 0x2c
20005d9c:	e59f3160 	ldr	r3, [pc, #352]	; 20005f04 <tcp_listen_input+0x394>
20005da0:	e5933000 	ldr	r3, [r3]
20005da4:	e5d3200e 	ldrb	r2, [r3, #14]
20005da8:	e5d3300f 	ldrb	r3, [r3, #15]
20005dac:	e1a03403 	lsl	r3, r3, #8
20005db0:	e1833002 	orr	r3, r3, r2
20005db4:	e1a03803 	lsl	r3, r3, #16
20005db8:	e1a02823 	lsr	r2, r3, #16
20005dbc:	e51b3010 	ldr	r3, [fp, #-16]
20005dc0:	e1c325bc 	strh	r2, [r3, #92]	; 0x5c
20005dc4:	e51b3010 	ldr	r3, [fp, #-16]
20005dc8:	e1d325bc 	ldrh	r2, [r3, #92]	; 0x5c
20005dcc:	e51b3010 	ldr	r3, [fp, #-16]
20005dd0:	e1c325b4 	strh	r2, [r3, #84]	; 0x54
20005dd4:	e59f3120 	ldr	r3, [pc, #288]	; 20005efc <tcp_listen_input+0x38c>
20005dd8:	e5933000 	ldr	r3, [r3]
20005ddc:	e2432001 	sub	r2, r3, #1
20005de0:	e51b3010 	ldr	r3, [fp, #-16]
20005de4:	e5832060 	str	r2, [r3, #96]	; 0x60
20005de8:	e51b3018 	ldr	r3, [fp, #-24]	; 0xffffffe8
20005dec:	e5932014 	ldr	r2, [r3, #20]
20005df0:	e51b3010 	ldr	r3, [fp, #-16]
20005df4:	e5832014 	str	r2, [r3, #20]
20005df8:	e51b3018 	ldr	r3, [fp, #-24]	; 0xffffffe8
20005dfc:	e593201c 	ldr	r2, [r3, #28]
20005e00:	e51b3010 	ldr	r3, [fp, #-16]
20005e04:	e583201c 	str	r2, [r3, #28]
20005e08:	e51b3018 	ldr	r3, [fp, #-24]	; 0xffffffe8
20005e0c:	e1d320b8 	ldrh	r2, [r3, #8]
20005e10:	e59f30f4 	ldr	r3, [pc, #244]	; 20005f0c <tcp_listen_input+0x39c>
20005e14:	e0033002 	and	r3, r3, r2
20005e18:	e1a03803 	lsl	r3, r3, #16
20005e1c:	e1a02823 	lsr	r2, r3, #16
20005e20:	e51b3010 	ldr	r3, [fp, #-16]
20005e24:	e1c320b8 	strh	r2, [r3, #8]
20005e28:	e59f30e0 	ldr	r3, [pc, #224]	; 20005f10 <tcp_listen_input+0x3a0>
20005e2c:	e5932000 	ldr	r2, [r3]
20005e30:	e51b3010 	ldr	r3, [fp, #-16]
20005e34:	e583200c 	str	r2, [r3, #12]
20005e38:	e59f20d0 	ldr	r2, [pc, #208]	; 20005f10 <tcp_listen_input+0x3a0>
20005e3c:	e51b3010 	ldr	r3, [fp, #-16]
20005e40:	e5823000 	str	r3, [r2]
20005e44:	e51b0010 	ldr	r0, [fp, #-16]
20005e48:	eb000803 	bl	20007e5c <tcp_parseopt>
20005e4c:	e51b3010 	ldr	r3, [fp, #-16]
20005e50:	e1d323b8 	ldrh	r2, [r3, #56]	; 0x38
20005e54:	e51b3010 	ldr	r3, [fp, #-16]
20005e58:	e2833004 	add	r3, r3, #4
20005e5c:	e1a01003 	mov	r1, r3
20005e60:	e1a00002 	mov	r0, r2
20005e64:	ebfffb4a 	bl	20004b94 <tcp_eff_send_mss>
20005e68:	e1a03000 	mov	r3, r0
20005e6c:	e1a02003 	mov	r2, r3
20005e70:	e51b3010 	ldr	r3, [fp, #-16]
20005e74:	e1c323b8 	strh	r2, [r3, #56]	; 0x38
20005e78:	e3a03001 	mov	r3, #1
20005e7c:	e58d3004 	str	r3, [sp, #4]
20005e80:	e3a03000 	mov	r3, #0
20005e84:	e58d3000 	str	r3, [sp]
20005e88:	e3a03012 	mov	r3, #18
20005e8c:	e3a02000 	mov	r2, #0
20005e90:	e3a01000 	mov	r1, #0
20005e94:	e51b0010 	ldr	r0, [fp, #-16]
20005e98:	eb000987 	bl	200084bc <tcp_enqueue>
20005e9c:	e1a03000 	mov	r3, r0
20005ea0:	e54b3011 	strb	r3, [fp, #-17]	; 0xffffffef
20005ea4:	e15b31d1 	ldrsb	r3, [fp, #-17]	; 0xffffffef
20005ea8:	e3530000 	cmp	r3, #0
20005eac:	0a000004 	beq	20005ec4 <tcp_listen_input+0x354>
20005eb0:	e3a01000 	mov	r1, #0
20005eb4:	e51b0010 	ldr	r0, [fp, #-16]
20005eb8:	ebfff3a3 	bl	20002d4c <tcp_abandon>
20005ebc:	e55b3011 	ldrb	r3, [fp, #-17]	; 0xffffffef
20005ec0:	ea000004 	b	20005ed8 <tcp_listen_input+0x368>
20005ec4:	e51b0010 	ldr	r0, [fp, #-16]
20005ec8:	eb000cfe 	bl	200092c8 <tcp_output>
20005ecc:	e1a03000 	mov	r3, r0
20005ed0:	ea000000 	b	20005ed8 <tcp_listen_input+0x368>
20005ed4:	e3a03000 	mov	r3, #0
20005ed8:	e1a03c03 	lsl	r3, r3, #24
20005edc:	e1a03c43 	asr	r3, r3, #24
20005ee0:	e1a00003 	mov	r0, r3
20005ee4:	e24bd008 	sub	sp, fp, #8
20005ee8:	e8bd4810 	pop	{r4, fp, lr}
20005eec:	e12fff1e 	bx	lr
20005ef0:	20014bbc 	.word	0x20014bbc
20005ef4:	20014bb8 	.word	0x20014bb8
20005ef8:	20014bbe 	.word	0x20014bbe
20005efc:	20014bb4 	.word	0x20014bb4
20005f00:	20014bb0 	.word	0x20014bb0
20005f04:	20014bac 	.word	0x20014bac
20005f08:	20015630 	.word	0x20015630
20005f0c:	00000199 	.word	0x00000199
20005f10:	20015748 	.word	0x20015748

20005f14 <tcp_timewait_input>:
20005f14:	e92d4810 	push	{r4, fp, lr}
20005f18:	e28db008 	add	fp, sp, #8
20005f1c:	e24dd014 	sub	sp, sp, #20
20005f20:	e50b0010 	str	r0, [fp, #-16]
20005f24:	e59f317c 	ldr	r3, [pc, #380]	; 200060a8 <tcp_timewait_input+0x194>
20005f28:	e5d33000 	ldrb	r3, [r3]
20005f2c:	e2033004 	and	r3, r3, #4
20005f30:	e3530000 	cmp	r3, #0
20005f34:	0a000001 	beq	20005f40 <tcp_timewait_input+0x2c>
20005f38:	e3a03000 	mov	r3, #0
20005f3c:	ea000053 	b	20006090 <tcp_timewait_input+0x17c>
20005f40:	e59f3160 	ldr	r3, [pc, #352]	; 200060a8 <tcp_timewait_input+0x194>
20005f44:	e5d33000 	ldrb	r3, [r3]
20005f48:	e2033002 	and	r3, r3, #2
20005f4c:	e3530000 	cmp	r3, #0
20005f50:	0a000036 	beq	20006030 <tcp_timewait_input+0x11c>
20005f54:	e59f3150 	ldr	r3, [pc, #336]	; 200060ac <tcp_timewait_input+0x198>
20005f58:	e5932000 	ldr	r2, [r3]
20005f5c:	e51b3010 	ldr	r3, [fp, #-16]
20005f60:	e5933024 	ldr	r3, [r3, #36]	; 0x24
20005f64:	e0633002 	rsb	r3, r3, r2
20005f68:	e3530000 	cmp	r3, #0
20005f6c:	ba000038 	blt	20006054 <tcp_timewait_input+0x140>
20005f70:	e59f3134 	ldr	r3, [pc, #308]	; 200060ac <tcp_timewait_input+0x198>
20005f74:	e5932000 	ldr	r2, [r3]
20005f78:	e51b3010 	ldr	r3, [fp, #-16]
20005f7c:	e5933024 	ldr	r3, [r3, #36]	; 0x24
20005f80:	e51b1010 	ldr	r1, [fp, #-16]
20005f84:	e1d112b8 	ldrh	r1, [r1, #40]	; 0x28
20005f88:	e0833001 	add	r3, r3, r1
20005f8c:	e0633002 	rsb	r3, r3, r2
20005f90:	e3530000 	cmp	r3, #0
20005f94:	ca00002e 	bgt	20006054 <tcp_timewait_input+0x140>
20005f98:	e59f3110 	ldr	r3, [pc, #272]	; 200060b0 <tcp_timewait_input+0x19c>
20005f9c:	e5930000 	ldr	r0, [r3]
20005fa0:	e59f310c 	ldr	r3, [pc, #268]	; 200060b4 <tcp_timewait_input+0x1a0>
20005fa4:	e1d330b0 	ldrh	r3, [r3]
20005fa8:	e1a02003 	mov	r2, r3
20005fac:	e59f30f8 	ldr	r3, [pc, #248]	; 200060ac <tcp_timewait_input+0x198>
20005fb0:	e5933000 	ldr	r3, [r3]
20005fb4:	e082c003 	add	ip, r2, r3
20005fb8:	e59f30f8 	ldr	r3, [pc, #248]	; 200060b8 <tcp_timewait_input+0x1a4>
20005fbc:	e5933000 	ldr	r3, [r3]
20005fc0:	e283e010 	add	lr, r3, #16
20005fc4:	e59f30ec 	ldr	r3, [pc, #236]	; 200060b8 <tcp_timewait_input+0x1a4>
20005fc8:	e5933000 	ldr	r3, [r3]
20005fcc:	e283400c 	add	r4, r3, #12
20005fd0:	e59f30e4 	ldr	r3, [pc, #228]	; 200060bc <tcp_timewait_input+0x1a8>
20005fd4:	e5933000 	ldr	r3, [r3]
20005fd8:	e5d32002 	ldrb	r2, [r3, #2]
20005fdc:	e5d33003 	ldrb	r3, [r3, #3]
20005fe0:	e1a03403 	lsl	r3, r3, #8
20005fe4:	e1833002 	orr	r3, r3, r2
20005fe8:	e1a03803 	lsl	r3, r3, #16
20005fec:	e1a02823 	lsr	r2, r3, #16
20005ff0:	e59f30c4 	ldr	r3, [pc, #196]	; 200060bc <tcp_timewait_input+0x1a8>
20005ff4:	e5933000 	ldr	r3, [r3]
20005ff8:	e5d31000 	ldrb	r1, [r3]
20005ffc:	e5d33001 	ldrb	r3, [r3, #1]
20006000:	e1a03403 	lsl	r3, r3, #8
20006004:	e1833001 	orr	r3, r3, r1
20006008:	e1a03803 	lsl	r3, r3, #16
2000600c:	e1a03823 	lsr	r3, r3, #16
20006010:	e58d3004 	str	r3, [sp, #4]
20006014:	e58d2000 	str	r2, [sp]
20006018:	e1a03004 	mov	r3, r4
2000601c:	e1a0200e 	mov	r2, lr
20006020:	e1a0100c 	mov	r1, ip
20006024:	eb000f2d 	bl	20009ce0 <tcp_rst>
20006028:	e3a03000 	mov	r3, #0
2000602c:	ea000017 	b	20006090 <tcp_timewait_input+0x17c>
20006030:	e59f3070 	ldr	r3, [pc, #112]	; 200060a8 <tcp_timewait_input+0x194>
20006034:	e5d33000 	ldrb	r3, [r3]
20006038:	e2033001 	and	r3, r3, #1
2000603c:	e3530000 	cmp	r3, #0
20006040:	0a000003 	beq	20006054 <tcp_timewait_input+0x140>
20006044:	e59f3074 	ldr	r3, [pc, #116]	; 200060c0 <tcp_timewait_input+0x1ac>
20006048:	e5932000 	ldr	r2, [r3]
2000604c:	e51b3010 	ldr	r3, [fp, #-16]
20006050:	e5832030 	str	r2, [r3, #48]	; 0x30
20006054:	e59f3058 	ldr	r3, [pc, #88]	; 200060b4 <tcp_timewait_input+0x1a0>
20006058:	e1d330b0 	ldrh	r3, [r3]
2000605c:	e3530000 	cmp	r3, #0
20006060:	0a000009 	beq	2000608c <tcp_timewait_input+0x178>
20006064:	e51b3010 	ldr	r3, [fp, #-16]
20006068:	e5d33022 	ldrb	r3, [r3, #34]	; 0x22
2000606c:	e3833002 	orr	r3, r3, #2
20006070:	e20320ff 	and	r2, r3, #255	; 0xff
20006074:	e51b3010 	ldr	r3, [fp, #-16]
20006078:	e5c32022 	strb	r2, [r3, #34]	; 0x22
2000607c:	e51b0010 	ldr	r0, [fp, #-16]
20006080:	eb000c90 	bl	200092c8 <tcp_output>
20006084:	e1a03000 	mov	r3, r0
20006088:	ea000000 	b	20006090 <tcp_timewait_input+0x17c>
2000608c:	e3a03000 	mov	r3, #0
20006090:	e1a03c03 	lsl	r3, r3, #24
20006094:	e1a03c43 	asr	r3, r3, #24
20006098:	e1a00003 	mov	r0, r3
2000609c:	e24bd008 	sub	sp, fp, #8
200060a0:	e8bd4810 	pop	{r4, fp, lr}
200060a4:	e12fff1e 	bx	lr
200060a8:	20014bbc 	.word	0x20014bbc
200060ac:	20014bb4 	.word	0x20014bb4
200060b0:	20014bb8 	.word	0x20014bb8
200060b4:	20014bbe 	.word	0x20014bbe
200060b8:	20014bb0 	.word	0x20014bb0
200060bc:	20014bac 	.word	0x20014bac
200060c0:	2001574c 	.word	0x2001574c

200060c4 <tcp_process>:
200060c4:	e92d4810 	push	{r4, fp, lr}
200060c8:	e28db008 	add	fp, sp, #8
200060cc:	e24dd01c 	sub	sp, sp, #28
200060d0:	e50b0018 	str	r0, [fp, #-24]	; 0xffffffe8
200060d4:	e3a03000 	mov	r3, #0
200060d8:	e54b300d 	strb	r3, [fp, #-13]
200060dc:	e3a03000 	mov	r3, #0
200060e0:	e54b300e 	strb	r3, [fp, #-14]
200060e4:	e59f3bbc 	ldr	r3, [pc, #3004]	; 20006ca8 <tcp_process+0xbe4>
200060e8:	e5d33000 	ldrb	r3, [r3]
200060ec:	e2033004 	and	r3, r3, #4
200060f0:	e3530000 	cmp	r3, #0
200060f4:	0a000032 	beq	200061c4 <tcp_process+0x100>
200060f8:	e51b3018 	ldr	r3, [fp, #-24]	; 0xffffffe8
200060fc:	e5d33010 	ldrb	r3, [r3, #16]
20006100:	e3530002 	cmp	r3, #2
20006104:	1a000008 	bne	2000612c <tcp_process+0x68>
20006108:	e51b3018 	ldr	r3, [fp, #-24]	; 0xffffffe8
2000610c:	e5932058 	ldr	r2, [r3, #88]	; 0x58
20006110:	e59f3b94 	ldr	r3, [pc, #2964]	; 20006cac <tcp_process+0xbe8>
20006114:	e5933000 	ldr	r3, [r3]
20006118:	e1520003 	cmp	r2, r3
2000611c:	1a000015 	bne	20006178 <tcp_process+0xb4>
20006120:	e3a03001 	mov	r3, #1
20006124:	e54b300d 	strb	r3, [fp, #-13]
20006128:	ea000012 	b	20006178 <tcp_process+0xb4>
2000612c:	e59f3b7c 	ldr	r3, [pc, #2940]	; 20006cb0 <tcp_process+0xbec>
20006130:	e5932000 	ldr	r2, [r3]
20006134:	e51b3018 	ldr	r3, [fp, #-24]	; 0xffffffe8
20006138:	e5933024 	ldr	r3, [r3, #36]	; 0x24
2000613c:	e0633002 	rsb	r3, r3, r2
20006140:	e3530000 	cmp	r3, #0
20006144:	ba00000b 	blt	20006178 <tcp_process+0xb4>
20006148:	e59f3b60 	ldr	r3, [pc, #2912]	; 20006cb0 <tcp_process+0xbec>
2000614c:	e5932000 	ldr	r2, [r3]
20006150:	e51b3018 	ldr	r3, [fp, #-24]	; 0xffffffe8
20006154:	e5933024 	ldr	r3, [r3, #36]	; 0x24
20006158:	e51b1018 	ldr	r1, [fp, #-24]	; 0xffffffe8
2000615c:	e1d112b8 	ldrh	r1, [r1, #40]	; 0x28
20006160:	e0833001 	add	r3, r3, r1
20006164:	e0633002 	rsb	r3, r3, r2
20006168:	e3530000 	cmp	r3, #0
2000616c:	ca000001 	bgt	20006178 <tcp_process+0xb4>
20006170:	e3a03001 	mov	r3, #1
20006174:	e54b300d 	strb	r3, [fp, #-13]
20006178:	e55b300d 	ldrb	r3, [fp, #-13]
2000617c:	e3530000 	cmp	r3, #0
20006180:	0a00000d 	beq	200061bc <tcp_process+0xf8>
20006184:	e59f3b28 	ldr	r3, [pc, #2856]	; 20006cb4 <tcp_process+0xbf0>
20006188:	e5d33000 	ldrb	r3, [r3]
2000618c:	e3833008 	orr	r3, r3, #8
20006190:	e20320ff 	and	r2, r3, #255	; 0xff
20006194:	e59f3b18 	ldr	r3, [pc, #2840]	; 20006cb4 <tcp_process+0xbf0>
20006198:	e5c32000 	strb	r2, [r3]
2000619c:	e51b3018 	ldr	r3, [fp, #-24]	; 0xffffffe8
200061a0:	e5d33022 	ldrb	r3, [r3, #34]	; 0x22
200061a4:	e3c33001 	bic	r3, r3, #1
200061a8:	e20320ff 	and	r2, r3, #255	; 0xff
200061ac:	e51b3018 	ldr	r3, [fp, #-24]	; 0xffffffe8
200061b0:	e5c32022 	strb	r2, [r3, #34]	; 0x22
200061b4:	e3a030fa 	mov	r3, #250	; 0xfa
200061b8:	ea0002b4 	b	20006c90 <tcp_process+0xbcc>
200061bc:	e3a03000 	mov	r3, #0
200061c0:	ea0002b2 	b	20006c90 <tcp_process+0xbcc>
200061c4:	e59f3adc 	ldr	r3, [pc, #2780]	; 20006ca8 <tcp_process+0xbe4>
200061c8:	e5d33000 	ldrb	r3, [r3]
200061cc:	e2033002 	and	r3, r3, #2
200061d0:	e3530000 	cmp	r3, #0
200061d4:	0a000011 	beq	20006220 <tcp_process+0x15c>
200061d8:	e51b3018 	ldr	r3, [fp, #-24]	; 0xffffffe8
200061dc:	e5d33010 	ldrb	r3, [r3, #16]
200061e0:	e3530002 	cmp	r3, #2
200061e4:	0a00000d 	beq	20006220 <tcp_process+0x15c>
200061e8:	e51b3018 	ldr	r3, [fp, #-24]	; 0xffffffe8
200061ec:	e5d33010 	ldrb	r3, [r3, #16]
200061f0:	e3530003 	cmp	r3, #3
200061f4:	0a000009 	beq	20006220 <tcp_process+0x15c>
200061f8:	e51b3018 	ldr	r3, [fp, #-24]	; 0xffffffe8
200061fc:	e5d33022 	ldrb	r3, [r3, #34]	; 0x22
20006200:	e3833002 	orr	r3, r3, #2
20006204:	e20320ff 	and	r2, r3, #255	; 0xff
20006208:	e51b3018 	ldr	r3, [fp, #-24]	; 0xffffffe8
2000620c:	e5c32022 	strb	r2, [r3, #34]	; 0x22
20006210:	e51b0018 	ldr	r0, [fp, #-24]	; 0xffffffe8
20006214:	eb000c2b 	bl	200092c8 <tcp_output>
20006218:	e3a03000 	mov	r3, #0
2000621c:	ea00029b 	b	20006c90 <tcp_process+0xbcc>
20006220:	e59f3a90 	ldr	r3, [pc, #2704]	; 20006cb8 <tcp_process+0xbf4>
20006224:	e5932000 	ldr	r2, [r3]
20006228:	e51b3018 	ldr	r3, [fp, #-24]	; 0xffffffe8
2000622c:	e5832030 	str	r2, [r3, #48]	; 0x30
20006230:	e51b3018 	ldr	r3, [fp, #-24]	; 0xffffffe8
20006234:	e3a02000 	mov	r2, #0
20006238:	e5c3209d 	strb	r2, [r3, #157]	; 0x9d
2000623c:	e51b0018 	ldr	r0, [fp, #-24]	; 0xffffffe8
20006240:	eb000705 	bl	20007e5c <tcp_parseopt>
20006244:	e51b3018 	ldr	r3, [fp, #-24]	; 0xffffffe8
20006248:	e5d33010 	ldrb	r3, [r3, #16]
2000624c:	e2433002 	sub	r3, r3, #2
20006250:	e3530007 	cmp	r3, #7
20006254:	979ff103 	ldrls	pc, [pc, r3, lsl #2]
20006258:	ea00027c 	b	20006c50 <tcp_process+0xb8c>
2000625c:	2000627c 	.word	0x2000627c
20006260:	200065a4 	.word	0x200065a4
20006264:	200067f4 	.word	0x200067f4
20006268:	20006840 	.word	0x20006840
2000626c:	200069e8 	.word	0x200069e8
20006270:	200067f4 	.word	0x200067f4
20006274:	20006af8 	.word	0x20006af8
20006278:	20006c00 	.word	0x20006c00
2000627c:	e59f3a24 	ldr	r3, [pc, #2596]	; 20006ca8 <tcp_process+0xbe4>
20006280:	e5d33000 	ldrb	r3, [r3]
20006284:	e2033010 	and	r3, r3, #16
20006288:	e3530000 	cmp	r3, #0
2000628c:	0a00009a 	beq	200064fc <tcp_process+0x438>
20006290:	e59f3a10 	ldr	r3, [pc, #2576]	; 20006ca8 <tcp_process+0xbe4>
20006294:	e5d33000 	ldrb	r3, [r3]
20006298:	e2033002 	and	r3, r3, #2
2000629c:	e3530000 	cmp	r3, #0
200062a0:	0a000095 	beq	200064fc <tcp_process+0x438>
200062a4:	e51b3018 	ldr	r3, [fp, #-24]	; 0xffffffe8
200062a8:	e5933078 	ldr	r3, [r3, #120]	; 0x78
200062ac:	e5933010 	ldr	r3, [r3, #16]
200062b0:	e5d32004 	ldrb	r2, [r3, #4]
200062b4:	e5d31005 	ldrb	r1, [r3, #5]
200062b8:	e1a01401 	lsl	r1, r1, #8
200062bc:	e1812002 	orr	r2, r1, r2
200062c0:	e5d31006 	ldrb	r1, [r3, #6]
200062c4:	e1a01801 	lsl	r1, r1, #16
200062c8:	e1812002 	orr	r2, r1, r2
200062cc:	e5d33007 	ldrb	r3, [r3, #7]
200062d0:	e1a03c03 	lsl	r3, r3, #24
200062d4:	e1833002 	orr	r3, r3, r2
200062d8:	e1a00003 	mov	r0, r3
200062dc:	eb001c1c 	bl	2000d354 <ntohl>
200062e0:	e1a03000 	mov	r3, r0
200062e4:	e2832001 	add	r2, r3, #1
200062e8:	e59f39bc 	ldr	r3, [pc, #2492]	; 20006cac <tcp_process+0xbe8>
200062ec:	e5933000 	ldr	r3, [r3]
200062f0:	e1520003 	cmp	r2, r3
200062f4:	1a000080 	bne	200064fc <tcp_process+0x438>
200062f8:	e51b3018 	ldr	r3, [fp, #-24]	; 0xffffffe8
200062fc:	e1d336be 	ldrh	r3, [r3, #110]	; 0x6e
20006300:	e2833001 	add	r3, r3, #1
20006304:	e1a03803 	lsl	r3, r3, #16
20006308:	e1a02823 	lsr	r2, r3, #16
2000630c:	e51b3018 	ldr	r3, [fp, #-24]	; 0xffffffe8
20006310:	e1c326be 	strh	r2, [r3, #110]	; 0x6e
20006314:	e59f3994 	ldr	r3, [pc, #2452]	; 20006cb0 <tcp_process+0xbec>
20006318:	e5933000 	ldr	r3, [r3]
2000631c:	e2832001 	add	r2, r3, #1
20006320:	e51b3018 	ldr	r3, [fp, #-24]	; 0xffffffe8
20006324:	e5832024 	str	r2, [r3, #36]	; 0x24
20006328:	e51b3018 	ldr	r3, [fp, #-24]	; 0xffffffe8
2000632c:	e5932024 	ldr	r2, [r3, #36]	; 0x24
20006330:	e51b3018 	ldr	r3, [fp, #-24]	; 0xffffffe8
20006334:	e583202c 	str	r2, [r3, #44]	; 0x2c
20006338:	e59f396c 	ldr	r3, [pc, #2412]	; 20006cac <tcp_process+0xbe8>
2000633c:	e5932000 	ldr	r2, [r3]
20006340:	e51b3018 	ldr	r3, [fp, #-24]	; 0xffffffe8
20006344:	e583204c 	str	r2, [r3, #76]	; 0x4c
20006348:	e59f396c 	ldr	r3, [pc, #2412]	; 20006cbc <tcp_process+0xbf8>
2000634c:	e5933000 	ldr	r3, [r3]
20006350:	e5d3200e 	ldrb	r2, [r3, #14]
20006354:	e5d3300f 	ldrb	r3, [r3, #15]
20006358:	e1a03403 	lsl	r3, r3, #8
2000635c:	e1833002 	orr	r3, r3, r2
20006360:	e1a03803 	lsl	r3, r3, #16
20006364:	e1a02823 	lsr	r2, r3, #16
20006368:	e51b3018 	ldr	r3, [fp, #-24]	; 0xffffffe8
2000636c:	e1c325bc 	strh	r2, [r3, #92]	; 0x5c
20006370:	e59f3938 	ldr	r3, [pc, #2360]	; 20006cb0 <tcp_process+0xbec>
20006374:	e5933000 	ldr	r3, [r3]
20006378:	e2432001 	sub	r2, r3, #1
2000637c:	e51b3018 	ldr	r3, [fp, #-24]	; 0xffffffe8
20006380:	e5832060 	str	r2, [r3, #96]	; 0x60
20006384:	e51b3018 	ldr	r3, [fp, #-24]	; 0xffffffe8
20006388:	e3a02004 	mov	r2, #4
2000638c:	e5c32010 	strb	r2, [r3, #16]
20006390:	e51b3018 	ldr	r3, [fp, #-24]	; 0xffffffe8
20006394:	e1d323b8 	ldrh	r2, [r3, #56]	; 0x38
20006398:	e51b3018 	ldr	r3, [fp, #-24]	; 0xffffffe8
2000639c:	e2833004 	add	r3, r3, #4
200063a0:	e1a01003 	mov	r1, r3
200063a4:	e1a00002 	mov	r0, r2
200063a8:	ebfff9f9 	bl	20004b94 <tcp_eff_send_mss>
200063ac:	e1a03000 	mov	r3, r0
200063b0:	e1a02003 	mov	r2, r3
200063b4:	e51b3018 	ldr	r3, [fp, #-24]	; 0xffffffe8
200063b8:	e1c323b8 	strh	r2, [r3, #56]	; 0x38
200063bc:	e51b3018 	ldr	r3, [fp, #-24]	; 0xffffffe8
200063c0:	e1d333b8 	ldrh	r3, [r3, #56]	; 0x38
200063c4:	e1a02003 	mov	r2, r3
200063c8:	e1a02102 	lsl	r2, r2, #2
200063cc:	e0823003 	add	r3, r2, r3
200063d0:	e1a03083 	lsl	r3, r3, #1
200063d4:	e1a03803 	lsl	r3, r3, #16
200063d8:	e1a02823 	lsr	r2, r3, #16
200063dc:	e51b3018 	ldr	r3, [fp, #-24]	; 0xffffffe8
200063e0:	e1c325b4 	strh	r2, [r3, #84]	; 0x54
200063e4:	e51b3018 	ldr	r3, [fp, #-24]	; 0xffffffe8
200063e8:	e1d335b2 	ldrh	r3, [r3, #82]	; 0x52
200063ec:	e3530001 	cmp	r3, #1
200063f0:	1a000005 	bne	2000640c <tcp_process+0x348>
200063f4:	e51b3018 	ldr	r3, [fp, #-24]	; 0xffffffe8
200063f8:	e1d333b8 	ldrh	r3, [r3, #56]	; 0x38
200063fc:	e1a03083 	lsl	r3, r3, #1
20006400:	e1a03803 	lsl	r3, r3, #16
20006404:	e1a03823 	lsr	r3, r3, #16
20006408:	ea000001 	b	20006414 <tcp_process+0x350>
2000640c:	e51b3018 	ldr	r3, [fp, #-24]	; 0xffffffe8
20006410:	e1d333b8 	ldrh	r3, [r3, #56]	; 0x38
20006414:	e51b2018 	ldr	r2, [fp, #-24]	; 0xffffffe8
20006418:	e1c235b2 	strh	r3, [r2, #82]	; 0x52
2000641c:	e51b3018 	ldr	r3, [fp, #-24]	; 0xffffffe8
20006420:	e1d337b0 	ldrh	r3, [r3, #112]	; 0x70
20006424:	e2433001 	sub	r3, r3, #1
20006428:	e1a03803 	lsl	r3, r3, #16
2000642c:	e1a02823 	lsr	r2, r3, #16
20006430:	e51b3018 	ldr	r3, [fp, #-24]	; 0xffffffe8
20006434:	e1c327b0 	strh	r2, [r3, #112]	; 0x70
20006438:	e51b3018 	ldr	r3, [fp, #-24]	; 0xffffffe8
2000643c:	e5933078 	ldr	r3, [r3, #120]	; 0x78
20006440:	e50b3014 	str	r3, [fp, #-20]	; 0xffffffec
20006444:	e51b3014 	ldr	r3, [fp, #-20]	; 0xffffffec
20006448:	e5932000 	ldr	r2, [r3]
2000644c:	e51b3018 	ldr	r3, [fp, #-24]	; 0xffffffe8
20006450:	e5832078 	str	r2, [r3, #120]	; 0x78
20006454:	e51b3018 	ldr	r3, [fp, #-24]	; 0xffffffe8
20006458:	e5933078 	ldr	r3, [r3, #120]	; 0x78
2000645c:	e3530000 	cmp	r3, #0
20006460:	1a000003 	bne	20006474 <tcp_process+0x3b0>
20006464:	e51b3018 	ldr	r3, [fp, #-24]	; 0xffffffe8
20006468:	e3e02000 	mvn	r2, #0
2000646c:	e1c323b6 	strh	r2, [r3, #54]	; 0x36
20006470:	ea000005 	b	2000648c <tcp_process+0x3c8>
20006474:	e51b3018 	ldr	r3, [fp, #-24]	; 0xffffffe8
20006478:	e3a02000 	mov	r2, #0
2000647c:	e1c323b6 	strh	r2, [r3, #54]	; 0x36
20006480:	e51b3018 	ldr	r3, [fp, #-24]	; 0xffffffe8
20006484:	e3a02000 	mov	r2, #0
20006488:	e5c3204a 	strb	r2, [r3, #74]	; 0x4a
2000648c:	e51b0014 	ldr	r0, [fp, #-20]	; 0xffffffec
20006490:	ebfff7a7 	bl	20004334 <tcp_seg_free>
20006494:	e51b3018 	ldr	r3, [fp, #-24]	; 0xffffffe8
20006498:	e5933088 	ldr	r3, [r3, #136]	; 0x88
2000649c:	e3530000 	cmp	r3, #0
200064a0:	0a00000a 	beq	200064d0 <tcp_process+0x40c>
200064a4:	e51b3018 	ldr	r3, [fp, #-24]	; 0xffffffe8
200064a8:	e5933088 	ldr	r3, [r3, #136]	; 0x88
200064ac:	e51b2018 	ldr	r2, [fp, #-24]	; 0xffffffe8
200064b0:	e5920014 	ldr	r0, [r2, #20]
200064b4:	e3a02000 	mov	r2, #0
200064b8:	e51b1018 	ldr	r1, [fp, #-24]	; 0xffffffe8
200064bc:	e1a0e00f 	mov	lr, pc
200064c0:	e12fff13 	bx	r3
200064c4:	e1a03000 	mov	r3, r0
200064c8:	e54b300e 	strb	r3, [fp, #-14]
200064cc:	ea000001 	b	200064d8 <tcp_process+0x414>
200064d0:	e3a03000 	mov	r3, #0
200064d4:	e54b300e 	strb	r3, [fp, #-14]
200064d8:	e51b3018 	ldr	r3, [fp, #-24]	; 0xffffffe8
200064dc:	e5d33022 	ldrb	r3, [r3, #34]	; 0x22
200064e0:	e3833002 	orr	r3, r3, #2
200064e4:	e20320ff 	and	r2, r3, #255	; 0xff
200064e8:	e51b3018 	ldr	r3, [fp, #-24]	; 0xffffffe8
200064ec:	e5c32022 	strb	r2, [r3, #34]	; 0x22
200064f0:	e51b0018 	ldr	r0, [fp, #-24]	; 0xffffffe8
200064f4:	eb000b73 	bl	200092c8 <tcp_output>
200064f8:	ea0001d6 	b	20006c58 <tcp_process+0xb94>
200064fc:	e59f37a4 	ldr	r3, [pc, #1956]	; 20006ca8 <tcp_process+0xbe4>
20006500:	e5d33000 	ldrb	r3, [r3]
20006504:	e2033010 	and	r3, r3, #16
20006508:	e3530000 	cmp	r3, #0
2000650c:	0a0001d1 	beq	20006c58 <tcp_process+0xb94>
20006510:	e59f3794 	ldr	r3, [pc, #1940]	; 20006cac <tcp_process+0xbe8>
20006514:	e5930000 	ldr	r0, [r3]
20006518:	e59f37a0 	ldr	r3, [pc, #1952]	; 20006cc0 <tcp_process+0xbfc>
2000651c:	e1d330b0 	ldrh	r3, [r3]
20006520:	e1a02003 	mov	r2, r3
20006524:	e59f3784 	ldr	r3, [pc, #1924]	; 20006cb0 <tcp_process+0xbec>
20006528:	e5933000 	ldr	r3, [r3]
2000652c:	e082c003 	add	ip, r2, r3
20006530:	e59f378c 	ldr	r3, [pc, #1932]	; 20006cc4 <tcp_process+0xc00>
20006534:	e5933000 	ldr	r3, [r3]
20006538:	e283e010 	add	lr, r3, #16
2000653c:	e59f3780 	ldr	r3, [pc, #1920]	; 20006cc4 <tcp_process+0xc00>
20006540:	e5933000 	ldr	r3, [r3]
20006544:	e283400c 	add	r4, r3, #12
20006548:	e59f376c 	ldr	r3, [pc, #1900]	; 20006cbc <tcp_process+0xbf8>
2000654c:	e5933000 	ldr	r3, [r3]
20006550:	e5d32002 	ldrb	r2, [r3, #2]
20006554:	e5d33003 	ldrb	r3, [r3, #3]
20006558:	e1a03403 	lsl	r3, r3, #8
2000655c:	e1833002 	orr	r3, r3, r2
20006560:	e1a03803 	lsl	r3, r3, #16
20006564:	e1a02823 	lsr	r2, r3, #16
20006568:	e59f374c 	ldr	r3, [pc, #1868]	; 20006cbc <tcp_process+0xbf8>
2000656c:	e5933000 	ldr	r3, [r3]
20006570:	e5d31000 	ldrb	r1, [r3]
20006574:	e5d33001 	ldrb	r3, [r3, #1]
20006578:	e1a03403 	lsl	r3, r3, #8
2000657c:	e1833001 	orr	r3, r3, r1
20006580:	e1a03803 	lsl	r3, r3, #16
20006584:	e1a03823 	lsr	r3, r3, #16
20006588:	e58d3004 	str	r3, [sp, #4]
2000658c:	e58d2000 	str	r2, [sp]
20006590:	e1a03004 	mov	r3, r4
20006594:	e1a0200e 	mov	r2, lr
20006598:	e1a0100c 	mov	r1, ip
2000659c:	eb000dcf 	bl	20009ce0 <tcp_rst>
200065a0:	ea0001ac 	b	20006c58 <tcp_process+0xb94>
200065a4:	e59f36fc 	ldr	r3, [pc, #1788]	; 20006ca8 <tcp_process+0xbe4>
200065a8:	e5d33000 	ldrb	r3, [r3]
200065ac:	e2033010 	and	r3, r3, #16
200065b0:	e3530000 	cmp	r3, #0
200065b4:	0a00007d 	beq	200067b0 <tcp_process+0x6ec>
200065b8:	e59f36ec 	ldr	r3, [pc, #1772]	; 20006cac <tcp_process+0xbe8>
200065bc:	e5932000 	ldr	r2, [r3]
200065c0:	e51b3018 	ldr	r3, [fp, #-24]	; 0xffffffe8
200065c4:	e593304c 	ldr	r3, [r3, #76]	; 0x4c
200065c8:	e0633002 	rsb	r3, r3, r2
200065cc:	e2433001 	sub	r3, r3, #1
200065d0:	e3530000 	cmp	r3, #0
200065d4:	ba000050 	blt	2000671c <tcp_process+0x658>
200065d8:	e59f36cc 	ldr	r3, [pc, #1740]	; 20006cac <tcp_process+0xbe8>
200065dc:	e5932000 	ldr	r2, [r3]
200065e0:	e51b3018 	ldr	r3, [fp, #-24]	; 0xffffffe8
200065e4:	e5933058 	ldr	r3, [r3, #88]	; 0x58
200065e8:	e0633002 	rsb	r3, r3, r2
200065ec:	e3530000 	cmp	r3, #0
200065f0:	ca000049 	bgt	2000671c <tcp_process+0x658>
200065f4:	e51b3018 	ldr	r3, [fp, #-24]	; 0xffffffe8
200065f8:	e3a02004 	mov	r2, #4
200065fc:	e5c32010 	strb	r2, [r3, #16]
20006600:	e51b3018 	ldr	r3, [fp, #-24]	; 0xffffffe8
20006604:	e593301c 	ldr	r3, [r3, #28]
20006608:	e3530000 	cmp	r3, #0
2000660c:	0a00000a 	beq	2000663c <tcp_process+0x578>
20006610:	e51b3018 	ldr	r3, [fp, #-24]	; 0xffffffe8
20006614:	e593301c 	ldr	r3, [r3, #28]
20006618:	e51b2018 	ldr	r2, [fp, #-24]	; 0xffffffe8
2000661c:	e5920014 	ldr	r0, [r2, #20]
20006620:	e3a02000 	mov	r2, #0
20006624:	e51b1018 	ldr	r1, [fp, #-24]	; 0xffffffe8
20006628:	e1a0e00f 	mov	lr, pc
2000662c:	e12fff13 	bx	r3
20006630:	e1a03000 	mov	r3, r0
20006634:	e54b300e 	strb	r3, [fp, #-14]
20006638:	ea000001 	b	20006644 <tcp_process+0x580>
2000663c:	e3a03000 	mov	r3, #0
20006640:	e54b300e 	strb	r3, [fp, #-14]
20006644:	e15b30de 	ldrsb	r3, [fp, #-14]
20006648:	e3530000 	cmp	r3, #0
2000664c:	0a000004 	beq	20006664 <tcp_process+0x5a0>
20006650:	e3a01001 	mov	r1, #1
20006654:	e51b0018 	ldr	r0, [fp, #-24]	; 0xffffffe8
20006658:	ebfff1bb 	bl	20002d4c <tcp_abandon>
2000665c:	e3a030fb 	mov	r3, #251	; 0xfb
20006660:	ea00018a 	b	20006c90 <tcp_process+0xbcc>
20006664:	e51b3018 	ldr	r3, [fp, #-24]	; 0xffffffe8
20006668:	e1d335b2 	ldrh	r3, [r3, #82]	; 0x52
2000666c:	e14b31b0 	strh	r3, [fp, #-16]
20006670:	e51b0018 	ldr	r0, [fp, #-24]	; 0xffffffe8
20006674:	eb000196 	bl	20006cd4 <tcp_receive>
20006678:	e51b3018 	ldr	r3, [fp, #-24]	; 0xffffffe8
2000667c:	e1d336bc 	ldrh	r3, [r3, #108]	; 0x6c
20006680:	e3530000 	cmp	r3, #0
20006684:	0a000006 	beq	200066a4 <tcp_process+0x5e0>
20006688:	e51b3018 	ldr	r3, [fp, #-24]	; 0xffffffe8
2000668c:	e1d336bc 	ldrh	r3, [r3, #108]	; 0x6c
20006690:	e2433001 	sub	r3, r3, #1
20006694:	e1a03803 	lsl	r3, r3, #16
20006698:	e1a02823 	lsr	r2, r3, #16
2000669c:	e51b3018 	ldr	r3, [fp, #-24]	; 0xffffffe8
200066a0:	e1c326bc 	strh	r2, [r3, #108]	; 0x6c
200066a4:	e15b31b0 	ldrh	r3, [fp, #-16]
200066a8:	e3530001 	cmp	r3, #1
200066ac:	1a000005 	bne	200066c8 <tcp_process+0x604>
200066b0:	e51b3018 	ldr	r3, [fp, #-24]	; 0xffffffe8
200066b4:	e1d333b8 	ldrh	r3, [r3, #56]	; 0x38
200066b8:	e1a03083 	lsl	r3, r3, #1
200066bc:	e1a03803 	lsl	r3, r3, #16
200066c0:	e1a03823 	lsr	r3, r3, #16
200066c4:	ea000001 	b	200066d0 <tcp_process+0x60c>
200066c8:	e51b3018 	ldr	r3, [fp, #-24]	; 0xffffffe8
200066cc:	e1d333b8 	ldrh	r3, [r3, #56]	; 0x38
200066d0:	e51b2018 	ldr	r2, [fp, #-24]	; 0xffffffe8
200066d4:	e1c235b2 	strh	r3, [r2, #82]	; 0x52
200066d8:	e59f35d4 	ldr	r3, [pc, #1492]	; 20006cb4 <tcp_process+0xbf0>
200066dc:	e5d33000 	ldrb	r3, [r3]
200066e0:	e2033020 	and	r3, r3, #32
200066e4:	e3530000 	cmp	r3, #0
200066e8:	0a00003f 	beq	200067ec <tcp_process+0x728>
200066ec:	e51b3018 	ldr	r3, [fp, #-24]	; 0xffffffe8
200066f0:	e5d33022 	ldrb	r3, [r3, #34]	; 0x22
200066f4:	e3833002 	orr	r3, r3, #2
200066f8:	e20320ff 	and	r2, r3, #255	; 0xff
200066fc:	e51b3018 	ldr	r3, [fp, #-24]	; 0xffffffe8
20006700:	e5c32022 	strb	r2, [r3, #34]	; 0x22
20006704:	e51b0018 	ldr	r0, [fp, #-24]	; 0xffffffe8
20006708:	eb000aee 	bl	200092c8 <tcp_output>
2000670c:	e51b3018 	ldr	r3, [fp, #-24]	; 0xffffffe8
20006710:	e3a02007 	mov	r2, #7
20006714:	e5c32010 	strb	r2, [r3, #16]
20006718:	ea000033 	b	200067ec <tcp_process+0x728>
2000671c:	e59f3588 	ldr	r3, [pc, #1416]	; 20006cac <tcp_process+0xbe8>
20006720:	e5930000 	ldr	r0, [r3]
20006724:	e59f3594 	ldr	r3, [pc, #1428]	; 20006cc0 <tcp_process+0xbfc>
20006728:	e1d330b0 	ldrh	r3, [r3]
2000672c:	e1a02003 	mov	r2, r3
20006730:	e59f3578 	ldr	r3, [pc, #1400]	; 20006cb0 <tcp_process+0xbec>
20006734:	e5933000 	ldr	r3, [r3]
20006738:	e082c003 	add	ip, r2, r3
2000673c:	e59f3580 	ldr	r3, [pc, #1408]	; 20006cc4 <tcp_process+0xc00>
20006740:	e5933000 	ldr	r3, [r3]
20006744:	e283e010 	add	lr, r3, #16
20006748:	e59f3574 	ldr	r3, [pc, #1396]	; 20006cc4 <tcp_process+0xc00>
2000674c:	e5933000 	ldr	r3, [r3]
20006750:	e283400c 	add	r4, r3, #12
20006754:	e59f3560 	ldr	r3, [pc, #1376]	; 20006cbc <tcp_process+0xbf8>
20006758:	e5933000 	ldr	r3, [r3]
2000675c:	e5d32002 	ldrb	r2, [r3, #2]
20006760:	e5d33003 	ldrb	r3, [r3, #3]
20006764:	e1a03403 	lsl	r3, r3, #8
20006768:	e1833002 	orr	r3, r3, r2
2000676c:	e1a03803 	lsl	r3, r3, #16
20006770:	e1a02823 	lsr	r2, r3, #16
20006774:	e59f3540 	ldr	r3, [pc, #1344]	; 20006cbc <tcp_process+0xbf8>
20006778:	e5933000 	ldr	r3, [r3]
2000677c:	e5d31000 	ldrb	r1, [r3]
20006780:	e5d33001 	ldrb	r3, [r3, #1]
20006784:	e1a03403 	lsl	r3, r3, #8
20006788:	e1833001 	orr	r3, r3, r1
2000678c:	e1a03803 	lsl	r3, r3, #16
20006790:	e1a03823 	lsr	r3, r3, #16
20006794:	e58d3004 	str	r3, [sp, #4]
20006798:	e58d2000 	str	r2, [sp]
2000679c:	e1a03004 	mov	r3, r4
200067a0:	e1a0200e 	mov	r2, lr
200067a4:	e1a0100c 	mov	r1, ip
200067a8:	eb000d4c 	bl	20009ce0 <tcp_rst>
200067ac:	ea00012b 	b	20006c60 <tcp_process+0xb9c>
200067b0:	e59f34f0 	ldr	r3, [pc, #1264]	; 20006ca8 <tcp_process+0xbe4>
200067b4:	e5d33000 	ldrb	r3, [r3]
200067b8:	e2033002 	and	r3, r3, #2
200067bc:	e3530000 	cmp	r3, #0
200067c0:	0a000126 	beq	20006c60 <tcp_process+0xb9c>
200067c4:	e51b3018 	ldr	r3, [fp, #-24]	; 0xffffffe8
200067c8:	e5933024 	ldr	r3, [r3, #36]	; 0x24
200067cc:	e2432001 	sub	r2, r3, #1
200067d0:	e59f34d8 	ldr	r3, [pc, #1240]	; 20006cb0 <tcp_process+0xbec>
200067d4:	e5933000 	ldr	r3, [r3]
200067d8:	e1520003 	cmp	r2, r3
200067dc:	1a00011f 	bne	20006c60 <tcp_process+0xb9c>
200067e0:	e51b0018 	ldr	r0, [fp, #-24]	; 0xffffffe8
200067e4:	eb000e4d 	bl	2000a120 <tcp_rexmit>
200067e8:	ea00011c 	b	20006c60 <tcp_process+0xb9c>
200067ec:	e1a00000 	nop			; (mov r0, r0)
200067f0:	ea00011a 	b	20006c60 <tcp_process+0xb9c>
200067f4:	e51b0018 	ldr	r0, [fp, #-24]	; 0xffffffe8
200067f8:	eb000135 	bl	20006cd4 <tcp_receive>
200067fc:	e59f34b0 	ldr	r3, [pc, #1200]	; 20006cb4 <tcp_process+0xbf0>
20006800:	e5d33000 	ldrb	r3, [r3]
20006804:	e2033020 	and	r3, r3, #32
20006808:	e3530000 	cmp	r3, #0
2000680c:	0a000115 	beq	20006c68 <tcp_process+0xba4>
20006810:	e51b3018 	ldr	r3, [fp, #-24]	; 0xffffffe8
20006814:	e5d33022 	ldrb	r3, [r3, #34]	; 0x22
20006818:	e3833002 	orr	r3, r3, #2
2000681c:	e20320ff 	and	r2, r3, #255	; 0xff
20006820:	e51b3018 	ldr	r3, [fp, #-24]	; 0xffffffe8
20006824:	e5c32022 	strb	r2, [r3, #34]	; 0x22
20006828:	e51b0018 	ldr	r0, [fp, #-24]	; 0xffffffe8
2000682c:	eb000aa5 	bl	200092c8 <tcp_output>
20006830:	e51b3018 	ldr	r3, [fp, #-24]	; 0xffffffe8
20006834:	e3a02007 	mov	r2, #7
20006838:	e5c32010 	strb	r2, [r3, #16]
2000683c:	ea000109 	b	20006c68 <tcp_process+0xba4>
20006840:	e51b0018 	ldr	r0, [fp, #-24]	; 0xffffffe8
20006844:	eb000122 	bl	20006cd4 <tcp_receive>
20006848:	e59f3464 	ldr	r3, [pc, #1124]	; 20006cb4 <tcp_process+0xbf0>
2000684c:	e5d33000 	ldrb	r3, [r3]
20006850:	e2033020 	and	r3, r3, #32
20006854:	e3530000 	cmp	r3, #0
20006858:	0a000053 	beq	200069ac <tcp_process+0x8e8>
2000685c:	e59f3444 	ldr	r3, [pc, #1092]	; 20006ca8 <tcp_process+0xbe4>
20006860:	e5d33000 	ldrb	r3, [r3]
20006864:	e2033010 	and	r3, r3, #16
20006868:	e3530000 	cmp	r3, #0
2000686c:	0a000042 	beq	2000697c <tcp_process+0x8b8>
20006870:	e51b3018 	ldr	r3, [fp, #-24]	; 0xffffffe8
20006874:	e5932058 	ldr	r2, [r3, #88]	; 0x58
20006878:	e59f342c 	ldr	r3, [pc, #1068]	; 20006cac <tcp_process+0xbe8>
2000687c:	e5933000 	ldr	r3, [r3]
20006880:	e1520003 	cmp	r2, r3
20006884:	1a00003c 	bne	2000697c <tcp_process+0x8b8>
20006888:	e51b3018 	ldr	r3, [fp, #-24]	; 0xffffffe8
2000688c:	e5d33022 	ldrb	r3, [r3, #34]	; 0x22
20006890:	e3833002 	orr	r3, r3, #2
20006894:	e20320ff 	and	r2, r3, #255	; 0xff
20006898:	e51b3018 	ldr	r3, [fp, #-24]	; 0xffffffe8
2000689c:	e5c32022 	strb	r2, [r3, #34]	; 0x22
200068a0:	e51b0018 	ldr	r0, [fp, #-24]	; 0xffffffe8
200068a4:	eb000a87 	bl	200092c8 <tcp_output>
200068a8:	e51b0018 	ldr	r0, [fp, #-24]	; 0xffffffe8
200068ac:	ebfff82a 	bl	2000495c <tcp_pcb_purge>
200068b0:	e59f3410 	ldr	r3, [pc, #1040]	; 20006cc8 <tcp_process+0xc04>
200068b4:	e5932000 	ldr	r2, [r3]
200068b8:	e51b3018 	ldr	r3, [fp, #-24]	; 0xffffffe8
200068bc:	e1520003 	cmp	r2, r3
200068c0:	1a000005 	bne	200068dc <tcp_process+0x818>
200068c4:	e59f33fc 	ldr	r3, [pc, #1020]	; 20006cc8 <tcp_process+0xc04>
200068c8:	e5933000 	ldr	r3, [r3]
200068cc:	e593300c 	ldr	r3, [r3, #12]
200068d0:	e59f23f0 	ldr	r2, [pc, #1008]	; 20006cc8 <tcp_process+0xc04>
200068d4:	e5823000 	str	r3, [r2]
200068d8:	ea000019 	b	20006944 <tcp_process+0x880>
200068dc:	e59f33e4 	ldr	r3, [pc, #996]	; 20006cc8 <tcp_process+0xc04>
200068e0:	e5933000 	ldr	r3, [r3]
200068e4:	e59f23e0 	ldr	r2, [pc, #992]	; 20006ccc <tcp_process+0xc08>
200068e8:	e5823000 	str	r3, [r2]
200068ec:	ea000010 	b	20006934 <tcp_process+0x870>
200068f0:	e59f33d4 	ldr	r3, [pc, #980]	; 20006ccc <tcp_process+0xc08>
200068f4:	e5933000 	ldr	r3, [r3]
200068f8:	e593200c 	ldr	r2, [r3, #12]
200068fc:	e51b3018 	ldr	r3, [fp, #-24]	; 0xffffffe8
20006900:	e1520003 	cmp	r2, r3
20006904:	1a000005 	bne	20006920 <tcp_process+0x85c>
20006908:	e59f33bc 	ldr	r3, [pc, #956]	; 20006ccc <tcp_process+0xc08>
2000690c:	e5933000 	ldr	r3, [r3]
20006910:	e51b2018 	ldr	r2, [fp, #-24]	; 0xffffffe8
20006914:	e592200c 	ldr	r2, [r2, #12]
20006918:	e583200c 	str	r2, [r3, #12]
2000691c:	ea000008 	b	20006944 <tcp_process+0x880>
20006920:	e59f33a4 	ldr	r3, [pc, #932]	; 20006ccc <tcp_process+0xc08>
20006924:	e5933000 	ldr	r3, [r3]
20006928:	e593300c 	ldr	r3, [r3, #12]
2000692c:	e59f2398 	ldr	r2, [pc, #920]	; 20006ccc <tcp_process+0xc08>
20006930:	e5823000 	str	r3, [r2]
20006934:	e59f3390 	ldr	r3, [pc, #912]	; 20006ccc <tcp_process+0xc08>
20006938:	e5933000 	ldr	r3, [r3]
2000693c:	e3530000 	cmp	r3, #0
20006940:	1affffea 	bne	200068f0 <tcp_process+0x82c>
20006944:	e51b3018 	ldr	r3, [fp, #-24]	; 0xffffffe8
20006948:	e3a02000 	mov	r2, #0
2000694c:	e583200c 	str	r2, [r3, #12]
20006950:	e51b3018 	ldr	r3, [fp, #-24]	; 0xffffffe8
20006954:	e3a0200a 	mov	r2, #10
20006958:	e5c32010 	strb	r2, [r3, #16]
2000695c:	e59f336c 	ldr	r3, [pc, #876]	; 20006cd0 <tcp_process+0xc0c>
20006960:	e5932000 	ldr	r2, [r3]
20006964:	e51b3018 	ldr	r3, [fp, #-24]	; 0xffffffe8
20006968:	e583200c 	str	r2, [r3, #12]
2000696c:	e59f235c 	ldr	r2, [pc, #860]	; 20006cd0 <tcp_process+0xc0c>
20006970:	e51b3018 	ldr	r3, [fp, #-24]	; 0xffffffe8
20006974:	e5823000 	str	r3, [r2]
20006978:	ea0000bc 	b	20006c70 <tcp_process+0xbac>
2000697c:	e51b3018 	ldr	r3, [fp, #-24]	; 0xffffffe8
20006980:	e5d33022 	ldrb	r3, [r3, #34]	; 0x22
20006984:	e3833002 	orr	r3, r3, #2
20006988:	e20320ff 	and	r2, r3, #255	; 0xff
2000698c:	e51b3018 	ldr	r3, [fp, #-24]	; 0xffffffe8
20006990:	e5c32022 	strb	r2, [r3, #34]	; 0x22
20006994:	e51b0018 	ldr	r0, [fp, #-24]	; 0xffffffe8
20006998:	eb000a4a 	bl	200092c8 <tcp_output>
2000699c:	e51b3018 	ldr	r3, [fp, #-24]	; 0xffffffe8
200069a0:	e3a02008 	mov	r2, #8
200069a4:	e5c32010 	strb	r2, [r3, #16]
200069a8:	ea0000b0 	b	20006c70 <tcp_process+0xbac>
200069ac:	e59f32f4 	ldr	r3, [pc, #756]	; 20006ca8 <tcp_process+0xbe4>
200069b0:	e5d33000 	ldrb	r3, [r3]
200069b4:	e2033010 	and	r3, r3, #16
200069b8:	e3530000 	cmp	r3, #0
200069bc:	0a0000ab 	beq	20006c70 <tcp_process+0xbac>
200069c0:	e51b3018 	ldr	r3, [fp, #-24]	; 0xffffffe8
200069c4:	e5932058 	ldr	r2, [r3, #88]	; 0x58
200069c8:	e59f32dc 	ldr	r3, [pc, #732]	; 20006cac <tcp_process+0xbe8>
200069cc:	e5933000 	ldr	r3, [r3]
200069d0:	e1520003 	cmp	r2, r3
200069d4:	1a0000a5 	bne	20006c70 <tcp_process+0xbac>
200069d8:	e51b3018 	ldr	r3, [fp, #-24]	; 0xffffffe8
200069dc:	e3a02006 	mov	r2, #6
200069e0:	e5c32010 	strb	r2, [r3, #16]
200069e4:	ea0000a1 	b	20006c70 <tcp_process+0xbac>
200069e8:	e51b0018 	ldr	r0, [fp, #-24]	; 0xffffffe8
200069ec:	eb0000b8 	bl	20006cd4 <tcp_receive>
200069f0:	e59f32bc 	ldr	r3, [pc, #700]	; 20006cb4 <tcp_process+0xbf0>
200069f4:	e5d33000 	ldrb	r3, [r3]
200069f8:	e2033020 	and	r3, r3, #32
200069fc:	e3530000 	cmp	r3, #0
20006a00:	0a00009c 	beq	20006c78 <tcp_process+0xbb4>
20006a04:	e51b3018 	ldr	r3, [fp, #-24]	; 0xffffffe8
20006a08:	e5d33022 	ldrb	r3, [r3, #34]	; 0x22
20006a0c:	e3833002 	orr	r3, r3, #2
20006a10:	e20320ff 	and	r2, r3, #255	; 0xff
20006a14:	e51b3018 	ldr	r3, [fp, #-24]	; 0xffffffe8
20006a18:	e5c32022 	strb	r2, [r3, #34]	; 0x22
20006a1c:	e51b0018 	ldr	r0, [fp, #-24]	; 0xffffffe8
20006a20:	eb000a28 	bl	200092c8 <tcp_output>
20006a24:	e51b0018 	ldr	r0, [fp, #-24]	; 0xffffffe8
20006a28:	ebfff7cb 	bl	2000495c <tcp_pcb_purge>
20006a2c:	e59f3294 	ldr	r3, [pc, #660]	; 20006cc8 <tcp_process+0xc04>
20006a30:	e5932000 	ldr	r2, [r3]
20006a34:	e51b3018 	ldr	r3, [fp, #-24]	; 0xffffffe8
20006a38:	e1520003 	cmp	r2, r3
20006a3c:	1a000005 	bne	20006a58 <tcp_process+0x994>
20006a40:	e59f3280 	ldr	r3, [pc, #640]	; 20006cc8 <tcp_process+0xc04>
20006a44:	e5933000 	ldr	r3, [r3]
20006a48:	e593300c 	ldr	r3, [r3, #12]
20006a4c:	e59f2274 	ldr	r2, [pc, #628]	; 20006cc8 <tcp_process+0xc04>
20006a50:	e5823000 	str	r3, [r2]
20006a54:	ea000019 	b	20006ac0 <tcp_process+0x9fc>
20006a58:	e59f3268 	ldr	r3, [pc, #616]	; 20006cc8 <tcp_process+0xc04>
20006a5c:	e5933000 	ldr	r3, [r3]
20006a60:	e59f2264 	ldr	r2, [pc, #612]	; 20006ccc <tcp_process+0xc08>
20006a64:	e5823000 	str	r3, [r2]
20006a68:	ea000010 	b	20006ab0 <tcp_process+0x9ec>
20006a6c:	e59f3258 	ldr	r3, [pc, #600]	; 20006ccc <tcp_process+0xc08>
20006a70:	e5933000 	ldr	r3, [r3]
20006a74:	e593200c 	ldr	r2, [r3, #12]
20006a78:	e51b3018 	ldr	r3, [fp, #-24]	; 0xffffffe8
20006a7c:	e1520003 	cmp	r2, r3
20006a80:	1a000005 	bne	20006a9c <tcp_process+0x9d8>
20006a84:	e59f3240 	ldr	r3, [pc, #576]	; 20006ccc <tcp_process+0xc08>
20006a88:	e5933000 	ldr	r3, [r3]
20006a8c:	e51b2018 	ldr	r2, [fp, #-24]	; 0xffffffe8
20006a90:	e592200c 	ldr	r2, [r2, #12]
20006a94:	e583200c 	str	r2, [r3, #12]
20006a98:	ea000008 	b	20006ac0 <tcp_process+0x9fc>
20006a9c:	e59f3228 	ldr	r3, [pc, #552]	; 20006ccc <tcp_process+0xc08>
20006aa0:	e5933000 	ldr	r3, [r3]
20006aa4:	e593300c 	ldr	r3, [r3, #12]
20006aa8:	e59f221c 	ldr	r2, [pc, #540]	; 20006ccc <tcp_process+0xc08>
20006aac:	e5823000 	str	r3, [r2]
20006ab0:	e59f3214 	ldr	r3, [pc, #532]	; 20006ccc <tcp_process+0xc08>
20006ab4:	e5933000 	ldr	r3, [r3]
20006ab8:	e3530000 	cmp	r3, #0
20006abc:	1affffea 	bne	20006a6c <tcp_process+0x9a8>
20006ac0:	e51b3018 	ldr	r3, [fp, #-24]	; 0xffffffe8
20006ac4:	e3a02000 	mov	r2, #0
20006ac8:	e583200c 	str	r2, [r3, #12]
20006acc:	e51b3018 	ldr	r3, [fp, #-24]	; 0xffffffe8
20006ad0:	e3a0200a 	mov	r2, #10
20006ad4:	e5c32010 	strb	r2, [r3, #16]
20006ad8:	e59f31f0 	ldr	r3, [pc, #496]	; 20006cd0 <tcp_process+0xc0c>
20006adc:	e5932000 	ldr	r2, [r3]
20006ae0:	e51b3018 	ldr	r3, [fp, #-24]	; 0xffffffe8
20006ae4:	e583200c 	str	r2, [r3, #12]
20006ae8:	e59f21e0 	ldr	r2, [pc, #480]	; 20006cd0 <tcp_process+0xc0c>
20006aec:	e51b3018 	ldr	r3, [fp, #-24]	; 0xffffffe8
20006af0:	e5823000 	str	r3, [r2]
20006af4:	ea00005f 	b	20006c78 <tcp_process+0xbb4>
20006af8:	e51b0018 	ldr	r0, [fp, #-24]	; 0xffffffe8
20006afc:	eb000074 	bl	20006cd4 <tcp_receive>
20006b00:	e59f31a0 	ldr	r3, [pc, #416]	; 20006ca8 <tcp_process+0xbe4>
20006b04:	e5d33000 	ldrb	r3, [r3]
20006b08:	e2033010 	and	r3, r3, #16
20006b0c:	e3530000 	cmp	r3, #0
20006b10:	0a00005a 	beq	20006c80 <tcp_process+0xbbc>
20006b14:	e51b3018 	ldr	r3, [fp, #-24]	; 0xffffffe8
20006b18:	e5932058 	ldr	r2, [r3, #88]	; 0x58
20006b1c:	e59f3188 	ldr	r3, [pc, #392]	; 20006cac <tcp_process+0xbe8>
20006b20:	e5933000 	ldr	r3, [r3]
20006b24:	e1520003 	cmp	r2, r3
20006b28:	1a000054 	bne	20006c80 <tcp_process+0xbbc>
20006b2c:	e51b0018 	ldr	r0, [fp, #-24]	; 0xffffffe8
20006b30:	ebfff789 	bl	2000495c <tcp_pcb_purge>
20006b34:	e59f318c 	ldr	r3, [pc, #396]	; 20006cc8 <tcp_process+0xc04>
20006b38:	e5932000 	ldr	r2, [r3]
20006b3c:	e51b3018 	ldr	r3, [fp, #-24]	; 0xffffffe8
20006b40:	e1520003 	cmp	r2, r3
20006b44:	1a000005 	bne	20006b60 <tcp_process+0xa9c>
20006b48:	e59f3178 	ldr	r3, [pc, #376]	; 20006cc8 <tcp_process+0xc04>
20006b4c:	e5933000 	ldr	r3, [r3]
20006b50:	e593300c 	ldr	r3, [r3, #12]
20006b54:	e59f216c 	ldr	r2, [pc, #364]	; 20006cc8 <tcp_process+0xc04>
20006b58:	e5823000 	str	r3, [r2]
20006b5c:	ea000019 	b	20006bc8 <tcp_process+0xb04>
20006b60:	e59f3160 	ldr	r3, [pc, #352]	; 20006cc8 <tcp_process+0xc04>
20006b64:	e5933000 	ldr	r3, [r3]
20006b68:	e59f215c 	ldr	r2, [pc, #348]	; 20006ccc <tcp_process+0xc08>
20006b6c:	e5823000 	str	r3, [r2]
20006b70:	ea000010 	b	20006bb8 <tcp_process+0xaf4>
20006b74:	e59f3150 	ldr	r3, [pc, #336]	; 20006ccc <tcp_process+0xc08>
20006b78:	e5933000 	ldr	r3, [r3]
20006b7c:	e593200c 	ldr	r2, [r3, #12]
20006b80:	e51b3018 	ldr	r3, [fp, #-24]	; 0xffffffe8
20006b84:	e1520003 	cmp	r2, r3
20006b88:	1a000005 	bne	20006ba4 <tcp_process+0xae0>
20006b8c:	e59f3138 	ldr	r3, [pc, #312]	; 20006ccc <tcp_process+0xc08>
20006b90:	e5933000 	ldr	r3, [r3]
20006b94:	e51b2018 	ldr	r2, [fp, #-24]	; 0xffffffe8
20006b98:	e592200c 	ldr	r2, [r2, #12]
20006b9c:	e583200c 	str	r2, [r3, #12]
20006ba0:	ea000008 	b	20006bc8 <tcp_process+0xb04>
20006ba4:	e59f3120 	ldr	r3, [pc, #288]	; 20006ccc <tcp_process+0xc08>
20006ba8:	e5933000 	ldr	r3, [r3]
20006bac:	e593300c 	ldr	r3, [r3, #12]
20006bb0:	e59f2114 	ldr	r2, [pc, #276]	; 20006ccc <tcp_process+0xc08>
20006bb4:	e5823000 	str	r3, [r2]
20006bb8:	e59f310c 	ldr	r3, [pc, #268]	; 20006ccc <tcp_process+0xc08>
20006bbc:	e5933000 	ldr	r3, [r3]
20006bc0:	e3530000 	cmp	r3, #0
20006bc4:	1affffea 	bne	20006b74 <tcp_process+0xab0>
20006bc8:	e51b3018 	ldr	r3, [fp, #-24]	; 0xffffffe8
20006bcc:	e3a02000 	mov	r2, #0
20006bd0:	e583200c 	str	r2, [r3, #12]
20006bd4:	e51b3018 	ldr	r3, [fp, #-24]	; 0xffffffe8
20006bd8:	e3a0200a 	mov	r2, #10
20006bdc:	e5c32010 	strb	r2, [r3, #16]
20006be0:	e59f30e8 	ldr	r3, [pc, #232]	; 20006cd0 <tcp_process+0xc0c>
20006be4:	e5932000 	ldr	r2, [r3]
20006be8:	e51b3018 	ldr	r3, [fp, #-24]	; 0xffffffe8
20006bec:	e583200c 	str	r2, [r3, #12]
20006bf0:	e59f20d8 	ldr	r2, [pc, #216]	; 20006cd0 <tcp_process+0xc0c>
20006bf4:	e51b3018 	ldr	r3, [fp, #-24]	; 0xffffffe8
20006bf8:	e5823000 	str	r3, [r2]
20006bfc:	ea00001f 	b	20006c80 <tcp_process+0xbbc>
20006c00:	e51b0018 	ldr	r0, [fp, #-24]	; 0xffffffe8
20006c04:	eb000032 	bl	20006cd4 <tcp_receive>
20006c08:	e59f3098 	ldr	r3, [pc, #152]	; 20006ca8 <tcp_process+0xbe4>
20006c0c:	e5d33000 	ldrb	r3, [r3]
20006c10:	e2033010 	and	r3, r3, #16
20006c14:	e3530000 	cmp	r3, #0
20006c18:	0a00001a 	beq	20006c88 <tcp_process+0xbc4>
20006c1c:	e51b3018 	ldr	r3, [fp, #-24]	; 0xffffffe8
20006c20:	e5932058 	ldr	r2, [r3, #88]	; 0x58
20006c24:	e59f3080 	ldr	r3, [pc, #128]	; 20006cac <tcp_process+0xbe8>
20006c28:	e5933000 	ldr	r3, [r3]
20006c2c:	e1520003 	cmp	r2, r3
20006c30:	1a000014 	bne	20006c88 <tcp_process+0xbc4>
20006c34:	e59f3078 	ldr	r3, [pc, #120]	; 20006cb4 <tcp_process+0xbf0>
20006c38:	e5d33000 	ldrb	r3, [r3]
20006c3c:	e3833010 	orr	r3, r3, #16
20006c40:	e20320ff 	and	r2, r3, #255	; 0xff
20006c44:	e59f3068 	ldr	r3, [pc, #104]	; 20006cb4 <tcp_process+0xbf0>
20006c48:	e5c32000 	strb	r2, [r3]
20006c4c:	ea00000d 	b	20006c88 <tcp_process+0xbc4>
20006c50:	e1a00000 	nop			; (mov r0, r0)
20006c54:	ea00000c 	b	20006c8c <tcp_process+0xbc8>
20006c58:	e1a00000 	nop			; (mov r0, r0)
20006c5c:	ea00000a 	b	20006c8c <tcp_process+0xbc8>
20006c60:	e1a00000 	nop			; (mov r0, r0)
20006c64:	ea000008 	b	20006c8c <tcp_process+0xbc8>
20006c68:	e1a00000 	nop			; (mov r0, r0)
20006c6c:	ea000006 	b	20006c8c <tcp_process+0xbc8>
20006c70:	e1a00000 	nop			; (mov r0, r0)
20006c74:	ea000004 	b	20006c8c <tcp_process+0xbc8>
20006c78:	e1a00000 	nop			; (mov r0, r0)
20006c7c:	ea000002 	b	20006c8c <tcp_process+0xbc8>
20006c80:	e1a00000 	nop			; (mov r0, r0)
20006c84:	ea000000 	b	20006c8c <tcp_process+0xbc8>
20006c88:	e1a00000 	nop			; (mov r0, r0)
20006c8c:	e3a03000 	mov	r3, #0
20006c90:	e1a03c03 	lsl	r3, r3, #24
20006c94:	e1a03c43 	asr	r3, r3, #24
20006c98:	e1a00003 	mov	r0, r3
20006c9c:	e24bd008 	sub	sp, fp, #8
20006ca0:	e8bd4810 	pop	{r4, fp, lr}
20006ca4:	e12fff1e 	bx	lr
20006ca8:	20014bbc 	.word	0x20014bbc
20006cac:	20014bb8 	.word	0x20014bb8
20006cb0:	20014bb4 	.word	0x20014bb4
20006cb4:	20014bc0 	.word	0x20014bc0
20006cb8:	2001574c 	.word	0x2001574c
20006cbc:	20014bac 	.word	0x20014bac
20006cc0:	20014bbe 	.word	0x20014bbe
20006cc4:	20014bb0 	.word	0x20014bb0
20006cc8:	20015748 	.word	0x20015748
20006ccc:	20015754 	.word	0x20015754
20006cd0:	2001575c 	.word	0x2001575c

20006cd4 <tcp_receive>:
20006cd4:	e92d4870 	push	{r4, r5, r6, fp, lr}
20006cd8:	e28db010 	add	fp, sp, #16
20006cdc:	e24dd02c 	sub	sp, sp, #44	; 0x2c
20006ce0:	e50b0038 	str	r0, [fp, #-56]	; 0xffffffc8
20006ce4:	e3a03000 	mov	r3, #0
20006ce8:	e50b3024 	str	r3, [fp, #-36]	; 0xffffffdc
20006cec:	e59f3c88 	ldr	r3, [pc, #3208]	; 2000797c <tcp_receive+0xca8>
20006cf0:	e5d33000 	ldrb	r3, [r3]
20006cf4:	e2033010 	and	r3, r3, #16
20006cf8:	e3530000 	cmp	r3, #0
20006cfc:	0a00028a 	beq	2000772c <tcp_receive+0xa58>
20006d00:	e51b3038 	ldr	r3, [fp, #-56]	; 0xffffffc8
20006d04:	e1d335bc 	ldrh	r3, [r3, #92]	; 0x5c
20006d08:	e1a02003 	mov	r2, r3
20006d0c:	e51b3038 	ldr	r3, [fp, #-56]	; 0xffffffc8
20006d10:	e5933064 	ldr	r3, [r3, #100]	; 0x64
20006d14:	e0823003 	add	r3, r2, r3
20006d18:	e50b3028 	str	r3, [fp, #-40]	; 0xffffffd8
20006d1c:	e51b3038 	ldr	r3, [fp, #-56]	; 0xffffffc8
20006d20:	e5932060 	ldr	r2, [r3, #96]	; 0x60
20006d24:	e59f3c74 	ldr	r3, [pc, #3188]	; 200079a0 <tcp_receive+0xccc>
20006d28:	e5933000 	ldr	r3, [r3]
20006d2c:	e0633002 	rsb	r3, r3, r2
20006d30:	e3530000 	cmp	r3, #0
20006d34:	ba00001e 	blt	20006db4 <tcp_receive+0xe0>
20006d38:	e51b3038 	ldr	r3, [fp, #-56]	; 0xffffffc8
20006d3c:	e5932060 	ldr	r2, [r3, #96]	; 0x60
20006d40:	e59f3c58 	ldr	r3, [pc, #3160]	; 200079a0 <tcp_receive+0xccc>
20006d44:	e5933000 	ldr	r3, [r3]
20006d48:	e1520003 	cmp	r2, r3
20006d4c:	1a000006 	bne	20006d6c <tcp_receive+0x98>
20006d50:	e51b3038 	ldr	r3, [fp, #-56]	; 0xffffffc8
20006d54:	e5932064 	ldr	r2, [r3, #100]	; 0x64
20006d58:	e59f3c20 	ldr	r3, [pc, #3104]	; 20007980 <tcp_receive+0xcac>
20006d5c:	e5933000 	ldr	r3, [r3]
20006d60:	e0633002 	rsb	r3, r3, r2
20006d64:	e3530000 	cmp	r3, #0
20006d68:	ba000011 	blt	20006db4 <tcp_receive+0xe0>
20006d6c:	e51b3038 	ldr	r3, [fp, #-56]	; 0xffffffc8
20006d70:	e5932064 	ldr	r2, [r3, #100]	; 0x64
20006d74:	e59f3c04 	ldr	r3, [pc, #3076]	; 20007980 <tcp_receive+0xcac>
20006d78:	e5933000 	ldr	r3, [r3]
20006d7c:	e1520003 	cmp	r2, r3
20006d80:	1a000028 	bne	20006e28 <tcp_receive+0x154>
20006d84:	e59f3bf8 	ldr	r3, [pc, #3064]	; 20007984 <tcp_receive+0xcb0>
20006d88:	e5933000 	ldr	r3, [r3]
20006d8c:	e5d3200e 	ldrb	r2, [r3, #14]
20006d90:	e5d3300f 	ldrb	r3, [r3, #15]
20006d94:	e1a03403 	lsl	r3, r3, #8
20006d98:	e1833002 	orr	r3, r3, r2
20006d9c:	e1a03803 	lsl	r3, r3, #16
20006da0:	e1a02823 	lsr	r2, r3, #16
20006da4:	e51b3038 	ldr	r3, [fp, #-56]	; 0xffffffc8
20006da8:	e1d335bc 	ldrh	r3, [r3, #92]	; 0x5c
20006dac:	e1520003 	cmp	r2, r3
20006db0:	9a00001c 	bls	20006e28 <tcp_receive+0x154>
20006db4:	e59f3bc8 	ldr	r3, [pc, #3016]	; 20007984 <tcp_receive+0xcb0>
20006db8:	e5933000 	ldr	r3, [r3]
20006dbc:	e5d3200e 	ldrb	r2, [r3, #14]
20006dc0:	e5d3300f 	ldrb	r3, [r3, #15]
20006dc4:	e1a03403 	lsl	r3, r3, #8
20006dc8:	e1833002 	orr	r3, r3, r2
20006dcc:	e1a03803 	lsl	r3, r3, #16
20006dd0:	e1a02823 	lsr	r2, r3, #16
20006dd4:	e51b3038 	ldr	r3, [fp, #-56]	; 0xffffffc8
20006dd8:	e1c325bc 	strh	r2, [r3, #92]	; 0x5c
20006ddc:	e59f3bbc 	ldr	r3, [pc, #3004]	; 200079a0 <tcp_receive+0xccc>
20006de0:	e5932000 	ldr	r2, [r3]
20006de4:	e51b3038 	ldr	r3, [fp, #-56]	; 0xffffffc8
20006de8:	e5832060 	str	r2, [r3, #96]	; 0x60
20006dec:	e59f3b8c 	ldr	r3, [pc, #2956]	; 20007980 <tcp_receive+0xcac>
20006df0:	e5932000 	ldr	r2, [r3]
20006df4:	e51b3038 	ldr	r3, [fp, #-56]	; 0xffffffc8
20006df8:	e5832064 	str	r2, [r3, #100]	; 0x64
20006dfc:	e51b3038 	ldr	r3, [fp, #-56]	; 0xffffffc8
20006e00:	e1d335bc 	ldrh	r3, [r3, #92]	; 0x5c
20006e04:	e3530000 	cmp	r3, #0
20006e08:	0a000006 	beq	20006e28 <tcp_receive+0x154>
20006e0c:	e51b3038 	ldr	r3, [fp, #-56]	; 0xffffffc8
20006e10:	e5d3309c 	ldrb	r3, [r3, #156]	; 0x9c
20006e14:	e3530000 	cmp	r3, #0
20006e18:	0a000002 	beq	20006e28 <tcp_receive+0x154>
20006e1c:	e51b3038 	ldr	r3, [fp, #-56]	; 0xffffffc8
20006e20:	e3a02000 	mov	r2, #0
20006e24:	e5c3209c 	strb	r2, [r3, #156]	; 0x9c
20006e28:	e59f3b50 	ldr	r3, [pc, #2896]	; 20007980 <tcp_receive+0xcac>
20006e2c:	e5932000 	ldr	r2, [r3]
20006e30:	e51b3038 	ldr	r3, [fp, #-56]	; 0xffffffc8
20006e34:	e593304c 	ldr	r3, [r3, #76]	; 0x4c
20006e38:	e0633002 	rsb	r3, r3, r2
20006e3c:	e3530000 	cmp	r3, #0
20006e40:	ca00004f 	bgt	20006f84 <tcp_receive+0x2b0>
20006e44:	e51b3038 	ldr	r3, [fp, #-56]	; 0xffffffc8
20006e48:	e3a02000 	mov	r2, #0
20006e4c:	e1c326bc 	strh	r2, [r3, #108]	; 0x6c
20006e50:	e59f3b38 	ldr	r3, [pc, #2872]	; 20007990 <tcp_receive+0xcbc>
20006e54:	e1d330b0 	ldrh	r3, [r3]
20006e58:	e3530000 	cmp	r3, #0
20006e5c:	1a000041 	bne	20006f68 <tcp_receive+0x294>
20006e60:	e51b3038 	ldr	r3, [fp, #-56]	; 0xffffffc8
20006e64:	e5933064 	ldr	r3, [r3, #100]	; 0x64
20006e68:	e51b2038 	ldr	r2, [fp, #-56]	; 0xffffffc8
20006e6c:	e1d225bc 	ldrh	r2, [r2, #92]	; 0x5c
20006e70:	e0832002 	add	r2, r3, r2
20006e74:	e51b3028 	ldr	r3, [fp, #-40]	; 0xffffffd8
20006e78:	e1520003 	cmp	r2, r3
20006e7c:	1a000039 	bne	20006f68 <tcp_receive+0x294>
20006e80:	e51b3038 	ldr	r3, [fp, #-56]	; 0xffffffc8
20006e84:	e1d333b6 	ldrh	r3, [r3, #54]	; 0x36
20006e88:	e1a03803 	lsl	r3, r3, #16
20006e8c:	e1a03843 	asr	r3, r3, #16
20006e90:	e3530000 	cmp	r3, #0
20006e94:	ba000033 	blt	20006f68 <tcp_receive+0x294>
20006e98:	e51b3038 	ldr	r3, [fp, #-56]	; 0xffffffc8
20006e9c:	e593204c 	ldr	r2, [r3, #76]	; 0x4c
20006ea0:	e59f3ad8 	ldr	r3, [pc, #2776]	; 20007980 <tcp_receive+0xcac>
20006ea4:	e5933000 	ldr	r3, [r3]
20006ea8:	e1520003 	cmp	r2, r3
20006eac:	1a00002d 	bne	20006f68 <tcp_receive+0x294>
20006eb0:	e3a03001 	mov	r3, #1
20006eb4:	e50b3024 	str	r3, [fp, #-36]	; 0xffffffdc
20006eb8:	e51b3038 	ldr	r3, [fp, #-56]	; 0xffffffc8
20006ebc:	e5d33050 	ldrb	r3, [r3, #80]	; 0x50
20006ec0:	e2833001 	add	r3, r3, #1
20006ec4:	e51b2038 	ldr	r2, [fp, #-56]	; 0xffffffc8
20006ec8:	e5d22050 	ldrb	r2, [r2, #80]	; 0x50
20006ecc:	e1530002 	cmp	r3, r2
20006ed0:	da000005 	ble	20006eec <tcp_receive+0x218>
20006ed4:	e51b3038 	ldr	r3, [fp, #-56]	; 0xffffffc8
20006ed8:	e5d33050 	ldrb	r3, [r3, #80]	; 0x50
20006edc:	e2833001 	add	r3, r3, #1
20006ee0:	e20320ff 	and	r2, r3, #255	; 0xff
20006ee4:	e51b3038 	ldr	r3, [fp, #-56]	; 0xffffffc8
20006ee8:	e5c32050 	strb	r2, [r3, #80]	; 0x50
20006eec:	e51b3038 	ldr	r3, [fp, #-56]	; 0xffffffc8
20006ef0:	e5d33050 	ldrb	r3, [r3, #80]	; 0x50
20006ef4:	e3530003 	cmp	r3, #3
20006ef8:	9a000014 	bls	20006f50 <tcp_receive+0x27c>
20006efc:	e51b3038 	ldr	r3, [fp, #-56]	; 0xffffffc8
20006f00:	e1d325b2 	ldrh	r2, [r3, #82]	; 0x52
20006f04:	e51b3038 	ldr	r3, [fp, #-56]	; 0xffffffc8
20006f08:	e1d333b8 	ldrh	r3, [r3, #56]	; 0x38
20006f0c:	e0823003 	add	r3, r2, r3
20006f10:	e1a03803 	lsl	r3, r3, #16
20006f14:	e1a02823 	lsr	r2, r3, #16
20006f18:	e51b3038 	ldr	r3, [fp, #-56]	; 0xffffffc8
20006f1c:	e1d335b2 	ldrh	r3, [r3, #82]	; 0x52
20006f20:	e1520003 	cmp	r2, r3
20006f24:	9a00000f 	bls	20006f68 <tcp_receive+0x294>
20006f28:	e51b3038 	ldr	r3, [fp, #-56]	; 0xffffffc8
20006f2c:	e1d325b2 	ldrh	r2, [r3, #82]	; 0x52
20006f30:	e51b3038 	ldr	r3, [fp, #-56]	; 0xffffffc8
20006f34:	e1d333b8 	ldrh	r3, [r3, #56]	; 0x38
20006f38:	e0823003 	add	r3, r2, r3
20006f3c:	e1a03803 	lsl	r3, r3, #16
20006f40:	e1a02823 	lsr	r2, r3, #16
20006f44:	e51b3038 	ldr	r3, [fp, #-56]	; 0xffffffc8
20006f48:	e1c325b2 	strh	r2, [r3, #82]	; 0x52
20006f4c:	ea000005 	b	20006f68 <tcp_receive+0x294>
20006f50:	e51b3038 	ldr	r3, [fp, #-56]	; 0xffffffc8
20006f54:	e5d33050 	ldrb	r3, [r3, #80]	; 0x50
20006f58:	e3530003 	cmp	r3, #3
20006f5c:	1a000001 	bne	20006f68 <tcp_receive+0x294>
20006f60:	e51b0038 	ldr	r0, [fp, #-56]	; 0xffffffc8
20006f64:	eb000cbe 	bl	2000a264 <tcp_rexmit_fast>
20006f68:	e51b3024 	ldr	r3, [fp, #-36]	; 0xffffffdc
20006f6c:	e3530000 	cmp	r3, #0
20006f70:	1a00014c 	bne	200074a8 <tcp_receive+0x7d4>
20006f74:	e51b3038 	ldr	r3, [fp, #-56]	; 0xffffffc8
20006f78:	e3a02000 	mov	r2, #0
20006f7c:	e5c32050 	strb	r2, [r3, #80]	; 0x50
20006f80:	ea000148 	b	200074a8 <tcp_receive+0x7d4>
20006f84:	e59f39f4 	ldr	r3, [pc, #2548]	; 20007980 <tcp_receive+0xcac>
20006f88:	e5932000 	ldr	r2, [r3]
20006f8c:	e51b3038 	ldr	r3, [fp, #-56]	; 0xffffffc8
20006f90:	e593304c 	ldr	r3, [r3, #76]	; 0x4c
20006f94:	e0633002 	rsb	r3, r3, r2
20006f98:	e2433001 	sub	r3, r3, #1
20006f9c:	e3530000 	cmp	r3, #0
20006fa0:	ba0000ff 	blt	200073a4 <tcp_receive+0x6d0>
20006fa4:	e59f39d4 	ldr	r3, [pc, #2516]	; 20007980 <tcp_receive+0xcac>
20006fa8:	e5932000 	ldr	r2, [r3]
20006fac:	e51b3038 	ldr	r3, [fp, #-56]	; 0xffffffc8
20006fb0:	e5933058 	ldr	r3, [r3, #88]	; 0x58
20006fb4:	e0633002 	rsb	r3, r3, r2
20006fb8:	e3530000 	cmp	r3, #0
20006fbc:	ca0000f8 	bgt	200073a4 <tcp_receive+0x6d0>
20006fc0:	e51b3038 	ldr	r3, [fp, #-56]	; 0xffffffc8
20006fc4:	e5d33022 	ldrb	r3, [r3, #34]	; 0x22
20006fc8:	e2033004 	and	r3, r3, #4
20006fcc:	e3530000 	cmp	r3, #0
20006fd0:	0a000009 	beq	20006ffc <tcp_receive+0x328>
20006fd4:	e51b3038 	ldr	r3, [fp, #-56]	; 0xffffffc8
20006fd8:	e5d33022 	ldrb	r3, [r3, #34]	; 0x22
20006fdc:	e3c33004 	bic	r3, r3, #4
20006fe0:	e20320ff 	and	r2, r3, #255	; 0xff
20006fe4:	e51b3038 	ldr	r3, [fp, #-56]	; 0xffffffc8
20006fe8:	e5c32022 	strb	r2, [r3, #34]	; 0x22
20006fec:	e51b3038 	ldr	r3, [fp, #-56]	; 0xffffffc8
20006ff0:	e1d325b4 	ldrh	r2, [r3, #84]	; 0x54
20006ff4:	e51b3038 	ldr	r3, [fp, #-56]	; 0xffffffc8
20006ff8:	e1c325b2 	strh	r2, [r3, #82]	; 0x52
20006ffc:	e51b3038 	ldr	r3, [fp, #-56]	; 0xffffffc8
20007000:	e3a02000 	mov	r2, #0
20007004:	e5c3204a 	strb	r2, [r3, #74]	; 0x4a
20007008:	e51b3038 	ldr	r3, [fp, #-56]	; 0xffffffc8
2000700c:	e1d334b4 	ldrh	r3, [r3, #68]	; 0x44
20007010:	e1a03803 	lsl	r3, r3, #16
20007014:	e1a03843 	asr	r3, r3, #16
20007018:	e1a031c3 	asr	r3, r3, #3
2000701c:	e1a03803 	lsl	r3, r3, #16
20007020:	e1a03823 	lsr	r3, r3, #16
20007024:	e1a03803 	lsl	r3, r3, #16
20007028:	e1a02823 	lsr	r2, r3, #16
2000702c:	e51b3038 	ldr	r3, [fp, #-56]	; 0xffffffc8
20007030:	e1d334b6 	ldrh	r3, [r3, #70]	; 0x46
20007034:	e1a03803 	lsl	r3, r3, #16
20007038:	e1a03823 	lsr	r3, r3, #16
2000703c:	e0823003 	add	r3, r2, r3
20007040:	e1a03803 	lsl	r3, r3, #16
20007044:	e1a03823 	lsr	r3, r3, #16
20007048:	e1a03803 	lsl	r3, r3, #16
2000704c:	e1a02823 	lsr	r2, r3, #16
20007050:	e51b3038 	ldr	r3, [fp, #-56]	; 0xffffffc8
20007054:	e1c324b8 	strh	r2, [r3, #72]	; 0x48
20007058:	e59f3920 	ldr	r3, [pc, #2336]	; 20007980 <tcp_receive+0xcac>
2000705c:	e5933000 	ldr	r3, [r3]
20007060:	e1a03803 	lsl	r3, r3, #16
20007064:	e1a02823 	lsr	r2, r3, #16
20007068:	e51b3038 	ldr	r3, [fp, #-56]	; 0xffffffc8
2000706c:	e593304c 	ldr	r3, [r3, #76]	; 0x4c
20007070:	e1a03803 	lsl	r3, r3, #16
20007074:	e1a03823 	lsr	r3, r3, #16
20007078:	e0633002 	rsb	r3, r3, r2
2000707c:	e1a03803 	lsl	r3, r3, #16
20007080:	e1a02823 	lsr	r2, r3, #16
20007084:	e51b3038 	ldr	r3, [fp, #-56]	; 0xffffffc8
20007088:	e1c326bc 	strh	r2, [r3, #108]	; 0x6c
2000708c:	e51b3038 	ldr	r3, [fp, #-56]	; 0xffffffc8
20007090:	e1d326be 	ldrh	r2, [r3, #110]	; 0x6e
20007094:	e51b3038 	ldr	r3, [fp, #-56]	; 0xffffffc8
20007098:	e1d336bc 	ldrh	r3, [r3, #108]	; 0x6c
2000709c:	e0823003 	add	r3, r2, r3
200070a0:	e1a03803 	lsl	r3, r3, #16
200070a4:	e1a02823 	lsr	r2, r3, #16
200070a8:	e51b3038 	ldr	r3, [fp, #-56]	; 0xffffffc8
200070ac:	e1c326be 	strh	r2, [r3, #110]	; 0x6e
200070b0:	e51b3038 	ldr	r3, [fp, #-56]	; 0xffffffc8
200070b4:	e3a02000 	mov	r2, #0
200070b8:	e5c32050 	strb	r2, [r3, #80]	; 0x50
200070bc:	e59f38bc 	ldr	r3, [pc, #2236]	; 20007980 <tcp_receive+0xcac>
200070c0:	e5932000 	ldr	r2, [r3]
200070c4:	e51b3038 	ldr	r3, [fp, #-56]	; 0xffffffc8
200070c8:	e583204c 	str	r2, [r3, #76]	; 0x4c
200070cc:	e51b3038 	ldr	r3, [fp, #-56]	; 0xffffffc8
200070d0:	e5d33010 	ldrb	r3, [r3, #16]
200070d4:	e3530003 	cmp	r3, #3
200070d8:	9a000072 	bls	200072a8 <tcp_receive+0x5d4>
200070dc:	e51b3038 	ldr	r3, [fp, #-56]	; 0xffffffc8
200070e0:	e1d325b2 	ldrh	r2, [r3, #82]	; 0x52
200070e4:	e51b3038 	ldr	r3, [fp, #-56]	; 0xffffffc8
200070e8:	e1d335b4 	ldrh	r3, [r3, #84]	; 0x54
200070ec:	e1520003 	cmp	r2, r3
200070f0:	2a000014 	bcs	20007148 <tcp_receive+0x474>
200070f4:	e51b3038 	ldr	r3, [fp, #-56]	; 0xffffffc8
200070f8:	e1d325b2 	ldrh	r2, [r3, #82]	; 0x52
200070fc:	e51b3038 	ldr	r3, [fp, #-56]	; 0xffffffc8
20007100:	e1d333b8 	ldrh	r3, [r3, #56]	; 0x38
20007104:	e0823003 	add	r3, r2, r3
20007108:	e1a03803 	lsl	r3, r3, #16
2000710c:	e1a02823 	lsr	r2, r3, #16
20007110:	e51b3038 	ldr	r3, [fp, #-56]	; 0xffffffc8
20007114:	e1d335b2 	ldrh	r3, [r3, #82]	; 0x52
20007118:	e1520003 	cmp	r2, r3
2000711c:	9a000061 	bls	200072a8 <tcp_receive+0x5d4>
20007120:	e51b3038 	ldr	r3, [fp, #-56]	; 0xffffffc8
20007124:	e1d325b2 	ldrh	r2, [r3, #82]	; 0x52
20007128:	e51b3038 	ldr	r3, [fp, #-56]	; 0xffffffc8
2000712c:	e1d333b8 	ldrh	r3, [r3, #56]	; 0x38
20007130:	e0823003 	add	r3, r2, r3
20007134:	e1a03803 	lsl	r3, r3, #16
20007138:	e1a02823 	lsr	r2, r3, #16
2000713c:	e51b3038 	ldr	r3, [fp, #-56]	; 0xffffffc8
20007140:	e1c325b2 	strh	r2, [r3, #82]	; 0x52
20007144:	ea000057 	b	200072a8 <tcp_receive+0x5d4>
20007148:	e51b3038 	ldr	r3, [fp, #-56]	; 0xffffffc8
2000714c:	e1d345b2 	ldrh	r4, [r3, #82]	; 0x52
20007150:	e51b3038 	ldr	r3, [fp, #-56]	; 0xffffffc8
20007154:	e1d333b8 	ldrh	r3, [r3, #56]	; 0x38
20007158:	e1a02003 	mov	r2, r3
2000715c:	e51b3038 	ldr	r3, [fp, #-56]	; 0xffffffc8
20007160:	e1d333b8 	ldrh	r3, [r3, #56]	; 0x38
20007164:	e0020293 	mul	r2, r3, r2
20007168:	e51b3038 	ldr	r3, [fp, #-56]	; 0xffffffc8
2000716c:	e1d335b2 	ldrh	r3, [r3, #82]	; 0x52
20007170:	e1a01003 	mov	r1, r3
20007174:	e1a00002 	mov	r0, r2
20007178:	eb00309f 	bl	200133fc <__aeabi_idiv>
2000717c:	e1a03000 	mov	r3, r0
20007180:	e1a03803 	lsl	r3, r3, #16
20007184:	e1a03823 	lsr	r3, r3, #16
20007188:	e0843003 	add	r3, r4, r3
2000718c:	e14b32ba 	strh	r3, [fp, #-42]	; 0xffffffd6
20007190:	e51b3038 	ldr	r3, [fp, #-56]	; 0xffffffc8
20007194:	e1d335b2 	ldrh	r3, [r3, #82]	; 0x52
20007198:	e15b22ba 	ldrh	r2, [fp, #-42]	; 0xffffffd6
2000719c:	e1520003 	cmp	r2, r3
200071a0:	9a000040 	bls	200072a8 <tcp_receive+0x5d4>
200071a4:	e51b3038 	ldr	r3, [fp, #-56]	; 0xffffffc8
200071a8:	e15b22ba 	ldrh	r2, [fp, #-42]	; 0xffffffd6
200071ac:	e1c325b2 	strh	r2, [r3, #82]	; 0x52
200071b0:	ea00003c 	b	200072a8 <tcp_receive+0x5d4>
200071b4:	e51b3038 	ldr	r3, [fp, #-56]	; 0xffffffc8
200071b8:	e5933078 	ldr	r3, [r3, #120]	; 0x78
200071bc:	e50b3030 	str	r3, [fp, #-48]	; 0xffffffd0
200071c0:	e51b3038 	ldr	r3, [fp, #-56]	; 0xffffffc8
200071c4:	e5933078 	ldr	r3, [r3, #120]	; 0x78
200071c8:	e5932000 	ldr	r2, [r3]
200071cc:	e51b3038 	ldr	r3, [fp, #-56]	; 0xffffffc8
200071d0:	e5832078 	str	r2, [r3, #120]	; 0x78
200071d4:	e51b3030 	ldr	r3, [fp, #-48]	; 0xffffffd0
200071d8:	e5933004 	ldr	r3, [r3, #4]
200071dc:	e1a00003 	mov	r0, r3
200071e0:	ebffeaf0 	bl	20001da8 <pbuf_clen>
200071e4:	e51b3038 	ldr	r3, [fp, #-56]	; 0xffffffc8
200071e8:	e1d336bc 	ldrh	r3, [r3, #108]	; 0x6c
200071ec:	e3530000 	cmp	r3, #0
200071f0:	0a000014 	beq	20007248 <tcp_receive+0x574>
200071f4:	e51b3030 	ldr	r3, [fp, #-48]	; 0xffffffd0
200071f8:	e5933010 	ldr	r3, [r3, #16]
200071fc:	e5d3200c 	ldrb	r2, [r3, #12]
20007200:	e5d3300d 	ldrb	r3, [r3, #13]
20007204:	e1a03403 	lsl	r3, r3, #8
20007208:	e1833002 	orr	r3, r3, r2
2000720c:	e1a03803 	lsl	r3, r3, #16
20007210:	e1a03823 	lsr	r3, r3, #16
20007214:	e1a00003 	mov	r0, r3
20007218:	eb00182b 	bl	2000d2cc <ntohs>
2000721c:	e1a03000 	mov	r3, r0
20007220:	e2033001 	and	r3, r3, #1
20007224:	e3530000 	cmp	r3, #0
20007228:	0a000006 	beq	20007248 <tcp_receive+0x574>
2000722c:	e51b3038 	ldr	r3, [fp, #-56]	; 0xffffffc8
20007230:	e1d336bc 	ldrh	r3, [r3, #108]	; 0x6c
20007234:	e2433001 	sub	r3, r3, #1
20007238:	e1a03803 	lsl	r3, r3, #16
2000723c:	e1a02823 	lsr	r2, r3, #16
20007240:	e51b3038 	ldr	r3, [fp, #-56]	; 0xffffffc8
20007244:	e1c326bc 	strh	r2, [r3, #108]	; 0x6c
20007248:	e51b3030 	ldr	r3, [fp, #-48]	; 0xffffffd0
2000724c:	e5933004 	ldr	r3, [r3, #4]
20007250:	e1a00003 	mov	r0, r3
20007254:	ebffead3 	bl	20001da8 <pbuf_clen>
20007258:	e1a03000 	mov	r3, r0
2000725c:	e1a01003 	mov	r1, r3
20007260:	e51b3038 	ldr	r3, [fp, #-56]	; 0xffffffc8
20007264:	e1d327b0 	ldrh	r2, [r3, #112]	; 0x70
20007268:	e1a03801 	lsl	r3, r1, #16
2000726c:	e1a03823 	lsr	r3, r3, #16
20007270:	e0633002 	rsb	r3, r3, r2
20007274:	e1a03803 	lsl	r3, r3, #16
20007278:	e1a02823 	lsr	r2, r3, #16
2000727c:	e51b3038 	ldr	r3, [fp, #-56]	; 0xffffffc8
20007280:	e1c327b0 	strh	r2, [r3, #112]	; 0x70
20007284:	e51b0030 	ldr	r0, [fp, #-48]	; 0xffffffd0
20007288:	ebfff429 	bl	20004334 <tcp_seg_free>
2000728c:	e51b3038 	ldr	r3, [fp, #-56]	; 0xffffffc8
20007290:	e1d337b0 	ldrh	r3, [r3, #112]	; 0x70
20007294:	e3530000 	cmp	r3, #0
20007298:	0a000002 	beq	200072a8 <tcp_receive+0x5d4>
2000729c:	e51b3038 	ldr	r3, [fp, #-56]	; 0xffffffc8
200072a0:	e5933078 	ldr	r3, [r3, #120]	; 0x78
200072a4:	e3530000 	cmp	r3, #0
200072a8:	e51b3038 	ldr	r3, [fp, #-56]	; 0xffffffc8
200072ac:	e5933078 	ldr	r3, [r3, #120]	; 0x78
200072b0:	e3530000 	cmp	r3, #0
200072b4:	0a00002b 	beq	20007368 <tcp_receive+0x694>
200072b8:	e51b3038 	ldr	r3, [fp, #-56]	; 0xffffffc8
200072bc:	e5933078 	ldr	r3, [r3, #120]	; 0x78
200072c0:	e5933010 	ldr	r3, [r3, #16]
200072c4:	e5d32004 	ldrb	r2, [r3, #4]
200072c8:	e5d31005 	ldrb	r1, [r3, #5]
200072cc:	e1a01401 	lsl	r1, r1, #8
200072d0:	e1812002 	orr	r2, r1, r2
200072d4:	e5d31006 	ldrb	r1, [r3, #6]
200072d8:	e1a01801 	lsl	r1, r1, #16
200072dc:	e1812002 	orr	r2, r1, r2
200072e0:	e5d33007 	ldrb	r3, [r3, #7]
200072e4:	e1a03c03 	lsl	r3, r3, #24
200072e8:	e1833002 	orr	r3, r3, r2
200072ec:	e1a00003 	mov	r0, r3
200072f0:	eb001817 	bl	2000d354 <ntohl>
200072f4:	e1a04000 	mov	r4, r0
200072f8:	e51b3038 	ldr	r3, [fp, #-56]	; 0xffffffc8
200072fc:	e5933078 	ldr	r3, [r3, #120]	; 0x78
20007300:	e1d330bc 	ldrh	r3, [r3, #12]
20007304:	e1a05003 	mov	r5, r3
20007308:	e51b3038 	ldr	r3, [fp, #-56]	; 0xffffffc8
2000730c:	e5933078 	ldr	r3, [r3, #120]	; 0x78
20007310:	e5933010 	ldr	r3, [r3, #16]
20007314:	e5d3200c 	ldrb	r2, [r3, #12]
20007318:	e5d3300d 	ldrb	r3, [r3, #13]
2000731c:	e1a03403 	lsl	r3, r3, #8
20007320:	e1833002 	orr	r3, r3, r2
20007324:	e1a03803 	lsl	r3, r3, #16
20007328:	e1a03823 	lsr	r3, r3, #16
2000732c:	e1a00003 	mov	r0, r3
20007330:	eb0017e5 	bl	2000d2cc <ntohs>
20007334:	e1a03000 	mov	r3, r0
20007338:	e2033003 	and	r3, r3, #3
2000733c:	e3530000 	cmp	r3, #0
20007340:	13a03001 	movne	r3, #1
20007344:	03a03000 	moveq	r3, #0
20007348:	e20330ff 	and	r3, r3, #255	; 0xff
2000734c:	e0853003 	add	r3, r5, r3
20007350:	e0842003 	add	r2, r4, r3
20007354:	e59f3624 	ldr	r3, [pc, #1572]	; 20007980 <tcp_receive+0xcac>
20007358:	e5933000 	ldr	r3, [r3]
2000735c:	e0633002 	rsb	r3, r3, r2
20007360:	e3530000 	cmp	r3, #0
20007364:	daffff92 	ble	200071b4 <tcp_receive+0x4e0>
20007368:	e51b3038 	ldr	r3, [fp, #-56]	; 0xffffffc8
2000736c:	e5933078 	ldr	r3, [r3, #120]	; 0x78
20007370:	e3530000 	cmp	r3, #0
20007374:	1a000003 	bne	20007388 <tcp_receive+0x6b4>
20007378:	e51b3038 	ldr	r3, [fp, #-56]	; 0xffffffc8
2000737c:	e3e02000 	mvn	r2, #0
20007380:	e1c323b6 	strh	r2, [r3, #54]	; 0x36
20007384:	ea000002 	b	20007394 <tcp_receive+0x6c0>
20007388:	e51b3038 	ldr	r3, [fp, #-56]	; 0xffffffc8
2000738c:	e3a02000 	mov	r2, #0
20007390:	e1c323b6 	strh	r2, [r3, #54]	; 0x36
20007394:	e51b3038 	ldr	r3, [fp, #-56]	; 0xffffffc8
20007398:	e3a02000 	mov	r2, #0
2000739c:	e5c32034 	strb	r2, [r3, #52]	; 0x34
200073a0:	ea000002 	b	200073b0 <tcp_receive+0x6dc>
200073a4:	e51b3038 	ldr	r3, [fp, #-56]	; 0xffffffc8
200073a8:	e3a02000 	mov	r2, #0
200073ac:	e1c326bc 	strh	r2, [r3, #108]	; 0x6c
200073b0:	ea00003c 	b	200074a8 <tcp_receive+0x7d4>
200073b4:	e51b3038 	ldr	r3, [fp, #-56]	; 0xffffffc8
200073b8:	e5933074 	ldr	r3, [r3, #116]	; 0x74
200073bc:	e50b3030 	str	r3, [fp, #-48]	; 0xffffffd0
200073c0:	e51b3038 	ldr	r3, [fp, #-56]	; 0xffffffc8
200073c4:	e5933074 	ldr	r3, [r3, #116]	; 0x74
200073c8:	e5932000 	ldr	r2, [r3]
200073cc:	e51b3038 	ldr	r3, [fp, #-56]	; 0xffffffc8
200073d0:	e5832074 	str	r2, [r3, #116]	; 0x74
200073d4:	e51b3030 	ldr	r3, [fp, #-48]	; 0xffffffd0
200073d8:	e5933004 	ldr	r3, [r3, #4]
200073dc:	e1a00003 	mov	r0, r3
200073e0:	ebffea70 	bl	20001da8 <pbuf_clen>
200073e4:	e51b3038 	ldr	r3, [fp, #-56]	; 0xffffffc8
200073e8:	e1d336bc 	ldrh	r3, [r3, #108]	; 0x6c
200073ec:	e3530000 	cmp	r3, #0
200073f0:	0a000014 	beq	20007448 <tcp_receive+0x774>
200073f4:	e51b3030 	ldr	r3, [fp, #-48]	; 0xffffffd0
200073f8:	e5933010 	ldr	r3, [r3, #16]
200073fc:	e5d3200c 	ldrb	r2, [r3, #12]
20007400:	e5d3300d 	ldrb	r3, [r3, #13]
20007404:	e1a03403 	lsl	r3, r3, #8
20007408:	e1833002 	orr	r3, r3, r2
2000740c:	e1a03803 	lsl	r3, r3, #16
20007410:	e1a03823 	lsr	r3, r3, #16
20007414:	e1a00003 	mov	r0, r3
20007418:	eb0017ab 	bl	2000d2cc <ntohs>
2000741c:	e1a03000 	mov	r3, r0
20007420:	e2033001 	and	r3, r3, #1
20007424:	e3530000 	cmp	r3, #0
20007428:	0a000006 	beq	20007448 <tcp_receive+0x774>
2000742c:	e51b3038 	ldr	r3, [fp, #-56]	; 0xffffffc8
20007430:	e1d336bc 	ldrh	r3, [r3, #108]	; 0x6c
20007434:	e2433001 	sub	r3, r3, #1
20007438:	e1a03803 	lsl	r3, r3, #16
2000743c:	e1a02823 	lsr	r2, r3, #16
20007440:	e51b3038 	ldr	r3, [fp, #-56]	; 0xffffffc8
20007444:	e1c326bc 	strh	r2, [r3, #108]	; 0x6c
20007448:	e51b3030 	ldr	r3, [fp, #-48]	; 0xffffffd0
2000744c:	e5933004 	ldr	r3, [r3, #4]
20007450:	e1a00003 	mov	r0, r3
20007454:	ebffea53 	bl	20001da8 <pbuf_clen>
20007458:	e1a03000 	mov	r3, r0
2000745c:	e1a01003 	mov	r1, r3
20007460:	e51b3038 	ldr	r3, [fp, #-56]	; 0xffffffc8
20007464:	e1d327b0 	ldrh	r2, [r3, #112]	; 0x70
20007468:	e1a03801 	lsl	r3, r1, #16
2000746c:	e1a03823 	lsr	r3, r3, #16
20007470:	e0633002 	rsb	r3, r3, r2
20007474:	e1a03803 	lsl	r3, r3, #16
20007478:	e1a02823 	lsr	r2, r3, #16
2000747c:	e51b3038 	ldr	r3, [fp, #-56]	; 0xffffffc8
20007480:	e1c327b0 	strh	r2, [r3, #112]	; 0x70
20007484:	e51b0030 	ldr	r0, [fp, #-48]	; 0xffffffd0
20007488:	ebfff3a9 	bl	20004334 <tcp_seg_free>
2000748c:	e51b3038 	ldr	r3, [fp, #-56]	; 0xffffffc8
20007490:	e1d337b0 	ldrh	r3, [r3, #112]	; 0x70
20007494:	e3530000 	cmp	r3, #0
20007498:	0a000002 	beq	200074a8 <tcp_receive+0x7d4>
2000749c:	e51b3038 	ldr	r3, [fp, #-56]	; 0xffffffc8
200074a0:	e5933078 	ldr	r3, [r3, #120]	; 0x78
200074a4:	e3530000 	cmp	r3, #0
200074a8:	e51b3038 	ldr	r3, [fp, #-56]	; 0xffffffc8
200074ac:	e5933074 	ldr	r3, [r3, #116]	; 0x74
200074b0:	e3530000 	cmp	r3, #0
200074b4:	0a000032 	beq	20007584 <tcp_receive+0x8b0>
200074b8:	e59f34c0 	ldr	r3, [pc, #1216]	; 20007980 <tcp_receive+0xcac>
200074bc:	e5934000 	ldr	r4, [r3]
200074c0:	e51b3038 	ldr	r3, [fp, #-56]	; 0xffffffc8
200074c4:	e5933074 	ldr	r3, [r3, #116]	; 0x74
200074c8:	e5933010 	ldr	r3, [r3, #16]
200074cc:	e5d32004 	ldrb	r2, [r3, #4]
200074d0:	e5d31005 	ldrb	r1, [r3, #5]
200074d4:	e1a01401 	lsl	r1, r1, #8
200074d8:	e1812002 	orr	r2, r1, r2
200074dc:	e5d31006 	ldrb	r1, [r3, #6]
200074e0:	e1a01801 	lsl	r1, r1, #16
200074e4:	e1812002 	orr	r2, r1, r2
200074e8:	e5d33007 	ldrb	r3, [r3, #7]
200074ec:	e1a03c03 	lsl	r3, r3, #24
200074f0:	e1833002 	orr	r3, r3, r2
200074f4:	e1a00003 	mov	r0, r3
200074f8:	eb001795 	bl	2000d354 <ntohl>
200074fc:	e1a05000 	mov	r5, r0
20007500:	e51b3038 	ldr	r3, [fp, #-56]	; 0xffffffc8
20007504:	e5933074 	ldr	r3, [r3, #116]	; 0x74
20007508:	e1d330bc 	ldrh	r3, [r3, #12]
2000750c:	e1a06003 	mov	r6, r3
20007510:	e51b3038 	ldr	r3, [fp, #-56]	; 0xffffffc8
20007514:	e5933074 	ldr	r3, [r3, #116]	; 0x74
20007518:	e5933010 	ldr	r3, [r3, #16]
2000751c:	e5d3200c 	ldrb	r2, [r3, #12]
20007520:	e5d3300d 	ldrb	r3, [r3, #13]
20007524:	e1a03403 	lsl	r3, r3, #8
20007528:	e1833002 	orr	r3, r3, r2
2000752c:	e1a03803 	lsl	r3, r3, #16
20007530:	e1a03823 	lsr	r3, r3, #16
20007534:	e1a00003 	mov	r0, r3
20007538:	eb001763 	bl	2000d2cc <ntohs>
2000753c:	e1a03000 	mov	r3, r0
20007540:	e2033003 	and	r3, r3, #3
20007544:	e3530000 	cmp	r3, #0
20007548:	13a03001 	movne	r3, #1
2000754c:	03a03000 	moveq	r3, #0
20007550:	e20330ff 	and	r3, r3, #255	; 0xff
20007554:	e0863003 	add	r3, r6, r3
20007558:	e0853003 	add	r3, r5, r3
2000755c:	e0633004 	rsb	r3, r3, r4
20007560:	e3530000 	cmp	r3, #0
20007564:	ba000006 	blt	20007584 <tcp_receive+0x8b0>
20007568:	e59f3410 	ldr	r3, [pc, #1040]	; 20007980 <tcp_receive+0xcac>
2000756c:	e5932000 	ldr	r2, [r3]
20007570:	e51b3038 	ldr	r3, [fp, #-56]	; 0xffffffc8
20007574:	e5933058 	ldr	r3, [r3, #88]	; 0x58
20007578:	e0633002 	rsb	r3, r3, r2
2000757c:	e3530000 	cmp	r3, #0
20007580:	daffff8b 	ble	200073b4 <tcp_receive+0x6e0>
20007584:	e51b3038 	ldr	r3, [fp, #-56]	; 0xffffffc8
20007588:	e593303c 	ldr	r3, [r3, #60]	; 0x3c
2000758c:	e3530000 	cmp	r3, #0
20007590:	0a000065 	beq	2000772c <tcp_receive+0xa58>
20007594:	e51b3038 	ldr	r3, [fp, #-56]	; 0xffffffc8
20007598:	e5932040 	ldr	r2, [r3, #64]	; 0x40
2000759c:	e59f33dc 	ldr	r3, [pc, #988]	; 20007980 <tcp_receive+0xcac>
200075a0:	e5933000 	ldr	r3, [r3]
200075a4:	e0633002 	rsb	r3, r3, r2
200075a8:	e3530000 	cmp	r3, #0
200075ac:	aa00005e 	bge	2000772c <tcp_receive+0xa58>
200075b0:	e59f33d0 	ldr	r3, [pc, #976]	; 20007988 <tcp_receive+0xcb4>
200075b4:	e5933000 	ldr	r3, [r3]
200075b8:	e1a03803 	lsl	r3, r3, #16
200075bc:	e1a02823 	lsr	r2, r3, #16
200075c0:	e51b3038 	ldr	r3, [fp, #-56]	; 0xffffffc8
200075c4:	e593303c 	ldr	r3, [r3, #60]	; 0x3c
200075c8:	e1a03803 	lsl	r3, r3, #16
200075cc:	e1a03823 	lsr	r3, r3, #16
200075d0:	e0633002 	rsb	r3, r3, r2
200075d4:	e1a03803 	lsl	r3, r3, #16
200075d8:	e1a03823 	lsr	r3, r3, #16
200075dc:	e14b31be 	strh	r3, [fp, #-30]	; 0xffffffe2
200075e0:	e15b21be 	ldrh	r2, [fp, #-30]	; 0xffffffe2
200075e4:	e51b3038 	ldr	r3, [fp, #-56]	; 0xffffffc8
200075e8:	e1d334b4 	ldrh	r3, [r3, #68]	; 0x44
200075ec:	e1a03803 	lsl	r3, r3, #16
200075f0:	e1a03843 	asr	r3, r3, #16
200075f4:	e1a031c3 	asr	r3, r3, #3
200075f8:	e1a03803 	lsl	r3, r3, #16
200075fc:	e1a03823 	lsr	r3, r3, #16
20007600:	e1a03803 	lsl	r3, r3, #16
20007604:	e1a03823 	lsr	r3, r3, #16
20007608:	e0633002 	rsb	r3, r3, r2
2000760c:	e1a03803 	lsl	r3, r3, #16
20007610:	e1a03823 	lsr	r3, r3, #16
20007614:	e14b31be 	strh	r3, [fp, #-30]	; 0xffffffe2
20007618:	e51b3038 	ldr	r3, [fp, #-56]	; 0xffffffc8
2000761c:	e1d334b4 	ldrh	r3, [r3, #68]	; 0x44
20007620:	e1a03803 	lsl	r3, r3, #16
20007624:	e1a02823 	lsr	r2, r3, #16
20007628:	e15b31be 	ldrh	r3, [fp, #-30]	; 0xffffffe2
2000762c:	e0823003 	add	r3, r2, r3
20007630:	e1a03803 	lsl	r3, r3, #16
20007634:	e1a03823 	lsr	r3, r3, #16
20007638:	e1a03803 	lsl	r3, r3, #16
2000763c:	e1a02823 	lsr	r2, r3, #16
20007640:	e51b3038 	ldr	r3, [fp, #-56]	; 0xffffffc8
20007644:	e1c324b4 	strh	r2, [r3, #68]	; 0x44
20007648:	e15b31fe 	ldrsh	r3, [fp, #-30]	; 0xffffffe2
2000764c:	e3530000 	cmp	r3, #0
20007650:	aa000004 	bge	20007668 <tcp_receive+0x994>
20007654:	e15b31be 	ldrh	r3, [fp, #-30]	; 0xffffffe2
20007658:	e2633000 	rsb	r3, r3, #0
2000765c:	e1a03803 	lsl	r3, r3, #16
20007660:	e1a03823 	lsr	r3, r3, #16
20007664:	e14b31be 	strh	r3, [fp, #-30]	; 0xffffffe2
20007668:	e15b21be 	ldrh	r2, [fp, #-30]	; 0xffffffe2
2000766c:	e51b3038 	ldr	r3, [fp, #-56]	; 0xffffffc8
20007670:	e1d334b6 	ldrh	r3, [r3, #70]	; 0x46
20007674:	e1a03803 	lsl	r3, r3, #16
20007678:	e1a03843 	asr	r3, r3, #16
2000767c:	e1a03143 	asr	r3, r3, #2
20007680:	e1a03803 	lsl	r3, r3, #16
20007684:	e1a03823 	lsr	r3, r3, #16
20007688:	e1a03803 	lsl	r3, r3, #16
2000768c:	e1a03823 	lsr	r3, r3, #16
20007690:	e0633002 	rsb	r3, r3, r2
20007694:	e1a03803 	lsl	r3, r3, #16
20007698:	e1a03823 	lsr	r3, r3, #16
2000769c:	e14b31be 	strh	r3, [fp, #-30]	; 0xffffffe2
200076a0:	e51b3038 	ldr	r3, [fp, #-56]	; 0xffffffc8
200076a4:	e1d334b6 	ldrh	r3, [r3, #70]	; 0x46
200076a8:	e1a03803 	lsl	r3, r3, #16
200076ac:	e1a02823 	lsr	r2, r3, #16
200076b0:	e15b31be 	ldrh	r3, [fp, #-30]	; 0xffffffe2
200076b4:	e0823003 	add	r3, r2, r3
200076b8:	e1a03803 	lsl	r3, r3, #16
200076bc:	e1a03823 	lsr	r3, r3, #16
200076c0:	e1a03803 	lsl	r3, r3, #16
200076c4:	e1a02823 	lsr	r2, r3, #16
200076c8:	e51b3038 	ldr	r3, [fp, #-56]	; 0xffffffc8
200076cc:	e1c324b6 	strh	r2, [r3, #70]	; 0x46
200076d0:	e51b3038 	ldr	r3, [fp, #-56]	; 0xffffffc8
200076d4:	e1d334b4 	ldrh	r3, [r3, #68]	; 0x44
200076d8:	e1a03803 	lsl	r3, r3, #16
200076dc:	e1a03843 	asr	r3, r3, #16
200076e0:	e1a031c3 	asr	r3, r3, #3
200076e4:	e1a03803 	lsl	r3, r3, #16
200076e8:	e1a03823 	lsr	r3, r3, #16
200076ec:	e1a03803 	lsl	r3, r3, #16
200076f0:	e1a02823 	lsr	r2, r3, #16
200076f4:	e51b3038 	ldr	r3, [fp, #-56]	; 0xffffffc8
200076f8:	e1d334b6 	ldrh	r3, [r3, #70]	; 0x46
200076fc:	e1a03803 	lsl	r3, r3, #16
20007700:	e1a03823 	lsr	r3, r3, #16
20007704:	e0823003 	add	r3, r2, r3
20007708:	e1a03803 	lsl	r3, r3, #16
2000770c:	e1a03823 	lsr	r3, r3, #16
20007710:	e1a03803 	lsl	r3, r3, #16
20007714:	e1a02823 	lsr	r2, r3, #16
20007718:	e51b3038 	ldr	r3, [fp, #-56]	; 0xffffffc8
2000771c:	e1c324b8 	strh	r2, [r3, #72]	; 0x48
20007720:	e51b3038 	ldr	r3, [fp, #-56]	; 0xffffffc8
20007724:	e3a02000 	mov	r2, #0
20007728:	e583203c 	str	r2, [r3, #60]	; 0x3c
2000772c:	e59f325c 	ldr	r3, [pc, #604]	; 20007990 <tcp_receive+0xcbc>
20007730:	e1d330b0 	ldrh	r3, [r3]
20007734:	e3530000 	cmp	r3, #0
20007738:	0a0001a8 	beq	20007de0 <tcp_receive+0x110c>
2000773c:	e51b3038 	ldr	r3, [fp, #-56]	; 0xffffffc8
20007740:	e5932024 	ldr	r2, [r3, #36]	; 0x24
20007744:	e59f3254 	ldr	r3, [pc, #596]	; 200079a0 <tcp_receive+0xccc>
20007748:	e5933000 	ldr	r3, [r3]
2000774c:	e0633002 	rsb	r3, r3, r2
20007750:	e2433001 	sub	r3, r3, #1
20007754:	e3530000 	cmp	r3, #0
20007758:	ba000091 	blt	200079a4 <tcp_receive+0xcd0>
2000775c:	e51b3038 	ldr	r3, [fp, #-56]	; 0xffffffc8
20007760:	e5932024 	ldr	r2, [r3, #36]	; 0x24
20007764:	e59f3224 	ldr	r3, [pc, #548]	; 20007990 <tcp_receive+0xcbc>
20007768:	e1d330b0 	ldrh	r3, [r3]
2000776c:	e1a01003 	mov	r1, r3
20007770:	e59f3228 	ldr	r3, [pc, #552]	; 200079a0 <tcp_receive+0xccc>
20007774:	e5933000 	ldr	r3, [r3]
20007778:	e0813003 	add	r3, r1, r3
2000777c:	e0633002 	rsb	r3, r3, r2
20007780:	e2833001 	add	r3, r3, #1
20007784:	e3530000 	cmp	r3, #0
20007788:	ca000085 	bgt	200079a4 <tcp_receive+0xcd0>
2000778c:	e51b3038 	ldr	r3, [fp, #-56]	; 0xffffffc8
20007790:	e5932024 	ldr	r2, [r3, #36]	; 0x24
20007794:	e59f3204 	ldr	r3, [pc, #516]	; 200079a0 <tcp_receive+0xccc>
20007798:	e5933000 	ldr	r3, [r3]
2000779c:	e0633002 	rsb	r3, r3, r2
200077a0:	e50b301c 	str	r3, [fp, #-28]	; 0xffffffe4
200077a4:	e59f31ec 	ldr	r3, [pc, #492]	; 20007998 <tcp_receive+0xcc4>
200077a8:	e5933004 	ldr	r3, [r3, #4]
200077ac:	e50b3018 	str	r3, [fp, #-24]	; 0xffffffe8
200077b0:	e59f31e0 	ldr	r3, [pc, #480]	; 20007998 <tcp_receive+0xcc4>
200077b4:	e5933004 	ldr	r3, [r3, #4]
200077b8:	e1d330ba 	ldrh	r3, [r3, #10]
200077bc:	e1a02003 	mov	r2, r3
200077c0:	e51b301c 	ldr	r3, [fp, #-28]	; 0xffffffe4
200077c4:	e1520003 	cmp	r2, r3
200077c8:	aa00002b 	bge	2000787c <tcp_receive+0xba8>
200077cc:	e59f31c4 	ldr	r3, [pc, #452]	; 20007998 <tcp_receive+0xcc4>
200077d0:	e5933004 	ldr	r3, [r3, #4]
200077d4:	e1d320b8 	ldrh	r2, [r3, #8]
200077d8:	e51b301c 	ldr	r3, [fp, #-28]	; 0xffffffe4
200077dc:	e1a03803 	lsl	r3, r3, #16
200077e0:	e1a03823 	lsr	r3, r3, #16
200077e4:	e0633002 	rsb	r3, r3, r2
200077e8:	e14b33b2 	strh	r3, [fp, #-50]	; 0xffffffce
200077ec:	ea00000e 	b	2000782c <tcp_receive+0xb58>
200077f0:	e51b3018 	ldr	r3, [fp, #-24]	; 0xffffffe8
200077f4:	e1d330ba 	ldrh	r3, [r3, #10]
200077f8:	e1a02003 	mov	r2, r3
200077fc:	e51b301c 	ldr	r3, [fp, #-28]	; 0xffffffe4
20007800:	e0623003 	rsb	r3, r2, r3
20007804:	e50b301c 	str	r3, [fp, #-28]	; 0xffffffe4
20007808:	e51b3018 	ldr	r3, [fp, #-24]	; 0xffffffe8
2000780c:	e15b23b2 	ldrh	r2, [fp, #-50]	; 0xffffffce
20007810:	e1c320b8 	strh	r2, [r3, #8]
20007814:	e51b3018 	ldr	r3, [fp, #-24]	; 0xffffffe8
20007818:	e3a02000 	mov	r2, #0
2000781c:	e1c320ba 	strh	r2, [r3, #10]
20007820:	e51b3018 	ldr	r3, [fp, #-24]	; 0xffffffe8
20007824:	e5933000 	ldr	r3, [r3]
20007828:	e50b3018 	str	r3, [fp, #-24]	; 0xffffffe8
2000782c:	e51b3018 	ldr	r3, [fp, #-24]	; 0xffffffe8
20007830:	e1d330ba 	ldrh	r3, [r3, #10]
20007834:	e1a02003 	mov	r2, r3
20007838:	e51b301c 	ldr	r3, [fp, #-28]	; 0xffffffe4
2000783c:	e1520003 	cmp	r2, r3
20007840:	baffffea 	blt	200077f0 <tcp_receive+0xb1c>
20007844:	e51b301c 	ldr	r3, [fp, #-28]	; 0xffffffe4
20007848:	e1a03803 	lsl	r3, r3, #16
2000784c:	e1a03823 	lsr	r3, r3, #16
20007850:	e2633000 	rsb	r3, r3, #0
20007854:	e1a03803 	lsl	r3, r3, #16
20007858:	e1a03823 	lsr	r3, r3, #16
2000785c:	e1a03803 	lsl	r3, r3, #16
20007860:	e1a03823 	lsr	r3, r3, #16
20007864:	e1a03803 	lsl	r3, r3, #16
20007868:	e1a03843 	asr	r3, r3, #16
2000786c:	e1a01003 	mov	r1, r3
20007870:	e51b0018 	ldr	r0, [fp, #-24]	; 0xffffffe8
20007874:	ebffe894 	bl	20001acc <pbuf_header>
20007878:	ea00000e 	b	200078b8 <tcp_receive+0xbe4>
2000787c:	e59f3114 	ldr	r3, [pc, #276]	; 20007998 <tcp_receive+0xcc4>
20007880:	e5932004 	ldr	r2, [r3, #4]
20007884:	e51b301c 	ldr	r3, [fp, #-28]	; 0xffffffe4
20007888:	e1a03803 	lsl	r3, r3, #16
2000788c:	e1a03823 	lsr	r3, r3, #16
20007890:	e2633000 	rsb	r3, r3, #0
20007894:	e1a03803 	lsl	r3, r3, #16
20007898:	e1a03823 	lsr	r3, r3, #16
2000789c:	e1a03803 	lsl	r3, r3, #16
200078a0:	e1a03823 	lsr	r3, r3, #16
200078a4:	e1a03803 	lsl	r3, r3, #16
200078a8:	e1a03843 	asr	r3, r3, #16
200078ac:	e1a01003 	mov	r1, r3
200078b0:	e1a00002 	mov	r0, r2
200078b4:	ebffe884 	bl	20001acc <pbuf_header>
200078b8:	e51b3018 	ldr	r3, [fp, #-24]	; 0xffffffe8
200078bc:	e5933004 	ldr	r3, [r3, #4]
200078c0:	e59f20d0 	ldr	r2, [pc, #208]	; 20007998 <tcp_receive+0xcc4>
200078c4:	e5823008 	str	r3, [r2, #8]
200078c8:	e59f30c8 	ldr	r3, [pc, #200]	; 20007998 <tcp_receive+0xcc4>
200078cc:	e1d320bc 	ldrh	r2, [r3, #12]
200078d0:	e59f30c8 	ldr	r3, [pc, #200]	; 200079a0 <tcp_receive+0xccc>
200078d4:	e5933000 	ldr	r3, [r3]
200078d8:	e1a03803 	lsl	r3, r3, #16
200078dc:	e1a01823 	lsr	r1, r3, #16
200078e0:	e51b3038 	ldr	r3, [fp, #-56]	; 0xffffffc8
200078e4:	e5933024 	ldr	r3, [r3, #36]	; 0x24
200078e8:	e1a03803 	lsl	r3, r3, #16
200078ec:	e1a03823 	lsr	r3, r3, #16
200078f0:	e0633001 	rsb	r3, r3, r1
200078f4:	e1a03803 	lsl	r3, r3, #16
200078f8:	e1a03823 	lsr	r3, r3, #16
200078fc:	e0823003 	add	r3, r2, r3
20007900:	e1a03803 	lsl	r3, r3, #16
20007904:	e1a03823 	lsr	r3, r3, #16
20007908:	e59f2088 	ldr	r2, [pc, #136]	; 20007998 <tcp_receive+0xcc4>
2000790c:	e1c230bc 	strh	r3, [r2, #12]
20007910:	e59f3080 	ldr	r3, [pc, #128]	; 20007998 <tcp_receive+0xcc4>
20007914:	e5933010 	ldr	r3, [r3, #16]
20007918:	e51b2038 	ldr	r2, [fp, #-56]	; 0xffffffc8
2000791c:	e5922024 	ldr	r2, [r2, #36]	; 0x24
20007920:	e59f1078 	ldr	r1, [pc, #120]	; 200079a0 <tcp_receive+0xccc>
20007924:	e5812000 	str	r2, [r1]
20007928:	e59f2070 	ldr	r2, [pc, #112]	; 200079a0 <tcp_receive+0xccc>
2000792c:	e5922000 	ldr	r2, [r2]
20007930:	e20210ff 	and	r1, r2, #255	; 0xff
20007934:	e3a00000 	mov	r0, #0
20007938:	e1801001 	orr	r1, r0, r1
2000793c:	e5c31004 	strb	r1, [r3, #4]
20007940:	e1a01422 	lsr	r1, r2, #8
20007944:	e20110ff 	and	r1, r1, #255	; 0xff
20007948:	e3a00000 	mov	r0, #0
2000794c:	e1801001 	orr	r1, r0, r1
20007950:	e5c31005 	strb	r1, [r3, #5]
20007954:	e1a01822 	lsr	r1, r2, #16
20007958:	e20110ff 	and	r1, r1, #255	; 0xff
2000795c:	e3a00000 	mov	r0, #0
20007960:	e1801001 	orr	r1, r0, r1
20007964:	e5c31006 	strb	r1, [r3, #6]
20007968:	e1a02c22 	lsr	r2, r2, #24
2000796c:	e3a01000 	mov	r1, #0
20007970:	e1812002 	orr	r2, r1, r2
20007974:	e5c32007 	strb	r2, [r3, #7]
20007978:	ea000018 	b	200079e0 <tcp_receive+0xd0c>
2000797c:	20014bbc 	.word	0x20014bbc
20007980:	20014bb8 	.word	0x20014bb8
20007984:	20014bac 	.word	0x20014bac
20007988:	2001574c 	.word	0x2001574c
2000798c:	0000ffc0 	.word	0x0000ffc0
20007990:	20014bbe 	.word	0x20014bbe
20007994:	20014bc4 	.word	0x20014bc4
20007998:	20014b98 	.word	0x20014b98
2000799c:	20014bc0 	.word	0x20014bc0
200079a0:	20014bb4 	.word	0x20014bb4
200079a4:	e51f300c 	ldr	r3, [pc, #-12]	; 200079a0 <tcp_receive+0xccc>
200079a8:	e5932000 	ldr	r2, [r3]
200079ac:	e51b3038 	ldr	r3, [fp, #-56]	; 0xffffffc8
200079b0:	e5933024 	ldr	r3, [r3, #36]	; 0x24
200079b4:	e0633002 	rsb	r3, r3, r2
200079b8:	e3530000 	cmp	r3, #0
200079bc:	aa000007 	bge	200079e0 <tcp_receive+0xd0c>
200079c0:	e51b3038 	ldr	r3, [fp, #-56]	; 0xffffffc8
200079c4:	e5d33022 	ldrb	r3, [r3, #34]	; 0x22
200079c8:	e3833002 	orr	r3, r3, #2
200079cc:	e20320ff 	and	r2, r3, #255	; 0xff
200079d0:	e51b3038 	ldr	r3, [fp, #-56]	; 0xffffffc8
200079d4:	e5c32022 	strb	r2, [r3, #34]	; 0x22
200079d8:	e51b0038 	ldr	r0, [fp, #-56]	; 0xffffffc8
200079dc:	eb000639 	bl	200092c8 <tcp_output>
200079e0:	e51f3048 	ldr	r3, [pc, #-72]	; 200079a0 <tcp_receive+0xccc>
200079e4:	e5932000 	ldr	r2, [r3]
200079e8:	e51b3038 	ldr	r3, [fp, #-56]	; 0xffffffc8
200079ec:	e5933024 	ldr	r3, [r3, #36]	; 0x24
200079f0:	e0633002 	rsb	r3, r3, r2
200079f4:	e3530000 	cmp	r3, #0
200079f8:	ba0000f5 	blt	20007dd4 <tcp_receive+0x1100>
200079fc:	e51f3064 	ldr	r3, [pc, #-100]	; 200079a0 <tcp_receive+0xccc>
20007a00:	e5932000 	ldr	r2, [r3]
20007a04:	e51b3038 	ldr	r3, [fp, #-56]	; 0xffffffc8
20007a08:	e5933024 	ldr	r3, [r3, #36]	; 0x24
20007a0c:	e51b1038 	ldr	r1, [fp, #-56]	; 0xffffffc8
20007a10:	e1d112b8 	ldrh	r1, [r1, #40]	; 0x28
20007a14:	e0833001 	add	r3, r3, r1
20007a18:	e0633002 	rsb	r3, r3, r2
20007a1c:	e2833001 	add	r3, r3, #1
20007a20:	e3530000 	cmp	r3, #0
20007a24:	ca0000ea 	bgt	20007dd4 <tcp_receive+0x1100>
20007a28:	e51b3038 	ldr	r3, [fp, #-56]	; 0xffffffc8
20007a2c:	e5932024 	ldr	r2, [r3, #36]	; 0x24
20007a30:	e51f3098 	ldr	r3, [pc, #-152]	; 200079a0 <tcp_receive+0xccc>
20007a34:	e5933000 	ldr	r3, [r3]
20007a38:	e1520003 	cmp	r2, r3
20007a3c:	1a0000e1 	bne	20007dc8 <tcp_receive+0x10f4>
20007a40:	e51f30b0 	ldr	r3, [pc, #-176]	; 20007998 <tcp_receive+0xcc4>
20007a44:	e1d340bc 	ldrh	r4, [r3, #12]
20007a48:	e51f30b8 	ldr	r3, [pc, #-184]	; 20007998 <tcp_receive+0xcc4>
20007a4c:	e5933010 	ldr	r3, [r3, #16]
20007a50:	e5d3200c 	ldrb	r2, [r3, #12]
20007a54:	e5d3300d 	ldrb	r3, [r3, #13]
20007a58:	e1a03403 	lsl	r3, r3, #8
20007a5c:	e1833002 	orr	r3, r3, r2
20007a60:	e1a03803 	lsl	r3, r3, #16
20007a64:	e1a03823 	lsr	r3, r3, #16
20007a68:	e1a00003 	mov	r0, r3
20007a6c:	eb001616 	bl	2000d2cc <ntohs>
20007a70:	e1a03000 	mov	r3, r0
20007a74:	e2033003 	and	r3, r3, #3
20007a78:	e3530000 	cmp	r3, #0
20007a7c:	13a03001 	movne	r3, #1
20007a80:	03a03000 	moveq	r3, #0
20007a84:	e20330ff 	and	r3, r3, #255	; 0xff
20007a88:	e1a03803 	lsl	r3, r3, #16
20007a8c:	e1a03823 	lsr	r3, r3, #16
20007a90:	e0843003 	add	r3, r4, r3
20007a94:	e1a03803 	lsl	r3, r3, #16
20007a98:	e1a03823 	lsr	r3, r3, #16
20007a9c:	e51f2114 	ldr	r2, [pc, #-276]	; 20007990 <tcp_receive+0xcbc>
20007aa0:	e1c230b0 	strh	r3, [r2]
20007aa4:	e51b3038 	ldr	r3, [fp, #-56]	; 0xffffffc8
20007aa8:	e1d322b8 	ldrh	r2, [r3, #40]	; 0x28
20007aac:	e51f3124 	ldr	r3, [pc, #-292]	; 20007990 <tcp_receive+0xcbc>
20007ab0:	e1d330b0 	ldrh	r3, [r3]
20007ab4:	e1520003 	cmp	r2, r3
20007ab8:	2a000074 	bcs	20007c90 <tcp_receive+0xfbc>
20007abc:	e51f312c 	ldr	r3, [pc, #-300]	; 20007998 <tcp_receive+0xcc4>
20007ac0:	e5933010 	ldr	r3, [r3, #16]
20007ac4:	e5d3200c 	ldrb	r2, [r3, #12]
20007ac8:	e5d3300d 	ldrb	r3, [r3, #13]
20007acc:	e1a03403 	lsl	r3, r3, #8
20007ad0:	e1833002 	orr	r3, r3, r2
20007ad4:	e1a03803 	lsl	r3, r3, #16
20007ad8:	e1a03823 	lsr	r3, r3, #16
20007adc:	e1a00003 	mov	r0, r3
20007ae0:	eb0015f9 	bl	2000d2cc <ntohs>
20007ae4:	e1a03000 	mov	r3, r0
20007ae8:	e2033001 	and	r3, r3, #1
20007aec:	e3530000 	cmp	r3, #0
20007af0:	0a00002d 	beq	20007bac <tcp_receive+0xed8>
20007af4:	e51f3164 	ldr	r3, [pc, #-356]	; 20007998 <tcp_receive+0xcc4>
20007af8:	e5934010 	ldr	r4, [r3, #16]
20007afc:	e51f316c 	ldr	r3, [pc, #-364]	; 20007998 <tcp_receive+0xcc4>
20007b00:	e5933010 	ldr	r3, [r3, #16]
20007b04:	e5d3200c 	ldrb	r2, [r3, #12]
20007b08:	e5d3300d 	ldrb	r3, [r3, #13]
20007b0c:	e1a03403 	lsl	r3, r3, #8
20007b10:	e1833002 	orr	r3, r3, r2
20007b14:	e1a03803 	lsl	r3, r3, #16
20007b18:	e1a05823 	lsr	r5, r3, #16
20007b1c:	e51f0198 	ldr	r0, [pc, #-408]	; 2000798c <tcp_receive+0xcb8>
20007b20:	eb0015d1 	bl	2000d26c <htons>
20007b24:	e1a03000 	mov	r3, r0
20007b28:	e0033005 	and	r3, r3, r5
20007b2c:	e1a03803 	lsl	r3, r3, #16
20007b30:	e1a05823 	lsr	r5, r3, #16
20007b34:	e51f31a4 	ldr	r3, [pc, #-420]	; 20007998 <tcp_receive+0xcc4>
20007b38:	e5933010 	ldr	r3, [r3, #16]
20007b3c:	e5d3200c 	ldrb	r2, [r3, #12]
20007b40:	e5d3300d 	ldrb	r3, [r3, #13]
20007b44:	e1a03403 	lsl	r3, r3, #8
20007b48:	e1833002 	orr	r3, r3, r2
20007b4c:	e1a03803 	lsl	r3, r3, #16
20007b50:	e1a03823 	lsr	r3, r3, #16
20007b54:	e1a00003 	mov	r0, r3
20007b58:	eb0015db 	bl	2000d2cc <ntohs>
20007b5c:	e1a03000 	mov	r3, r0
20007b60:	e203303e 	and	r3, r3, #62	; 0x3e
20007b64:	e1a03803 	lsl	r3, r3, #16
20007b68:	e1a03823 	lsr	r3, r3, #16
20007b6c:	e1a00003 	mov	r0, r3
20007b70:	eb0015bd 	bl	2000d26c <htons>
20007b74:	e1a03000 	mov	r3, r0
20007b78:	e1853003 	orr	r3, r5, r3
20007b7c:	e1a03803 	lsl	r3, r3, #16
20007b80:	e1a03823 	lsr	r3, r3, #16
20007b84:	e20320ff 	and	r2, r3, #255	; 0xff
20007b88:	e3a01000 	mov	r1, #0
20007b8c:	e1812002 	orr	r2, r1, r2
20007b90:	e5c4200c 	strb	r2, [r4, #12]
20007b94:	e1a03423 	lsr	r3, r3, #8
20007b98:	e1a03803 	lsl	r3, r3, #16
20007b9c:	e1a03823 	lsr	r3, r3, #16
20007ba0:	e3a02000 	mov	r2, #0
20007ba4:	e1823003 	orr	r3, r2, r3
20007ba8:	e5c4300d 	strb	r3, [r4, #13]
20007bac:	e51b3038 	ldr	r3, [fp, #-56]	; 0xffffffc8
20007bb0:	e1d332b8 	ldrh	r3, [r3, #40]	; 0x28
20007bb4:	e51f2224 	ldr	r2, [pc, #-548]	; 20007998 <tcp_receive+0xcc4>
20007bb8:	e1c230bc 	strh	r3, [r2, #12]
20007bbc:	e51f322c 	ldr	r3, [pc, #-556]	; 20007998 <tcp_receive+0xcc4>
20007bc0:	e5933010 	ldr	r3, [r3, #16]
20007bc4:	e5d3200c 	ldrb	r2, [r3, #12]
20007bc8:	e5d3300d 	ldrb	r3, [r3, #13]
20007bcc:	e1a03403 	lsl	r3, r3, #8
20007bd0:	e1833002 	orr	r3, r3, r2
20007bd4:	e1a03803 	lsl	r3, r3, #16
20007bd8:	e1a03823 	lsr	r3, r3, #16
20007bdc:	e1a00003 	mov	r0, r3
20007be0:	eb0015b9 	bl	2000d2cc <ntohs>
20007be4:	e1a03000 	mov	r3, r0
20007be8:	e2033002 	and	r3, r3, #2
20007bec:	e3530000 	cmp	r3, #0
20007bf0:	0a000006 	beq	20007c10 <tcp_receive+0xf3c>
20007bf4:	e51f3264 	ldr	r3, [pc, #-612]	; 20007998 <tcp_receive+0xcc4>
20007bf8:	e1d330bc 	ldrh	r3, [r3, #12]
20007bfc:	e2433001 	sub	r3, r3, #1
20007c00:	e1a03803 	lsl	r3, r3, #16
20007c04:	e1a03823 	lsr	r3, r3, #16
20007c08:	e51f2278 	ldr	r2, [pc, #-632]	; 20007998 <tcp_receive+0xcc4>
20007c0c:	e1c230bc 	strh	r3, [r2, #12]
20007c10:	e51f3280 	ldr	r3, [pc, #-640]	; 20007998 <tcp_receive+0xcc4>
20007c14:	e5932004 	ldr	r2, [r3, #4]
20007c18:	e51f3288 	ldr	r3, [pc, #-648]	; 20007998 <tcp_receive+0xcc4>
20007c1c:	e1d330bc 	ldrh	r3, [r3, #12]
20007c20:	e1a01003 	mov	r1, r3
20007c24:	e1a00002 	mov	r0, r2
20007c28:	ebffe741 	bl	20001934 <pbuf_realloc>
20007c2c:	e51f329c 	ldr	r3, [pc, #-668]	; 20007998 <tcp_receive+0xcc4>
20007c30:	e1d340bc 	ldrh	r4, [r3, #12]
20007c34:	e51f32a4 	ldr	r3, [pc, #-676]	; 20007998 <tcp_receive+0xcc4>
20007c38:	e5933010 	ldr	r3, [r3, #16]
20007c3c:	e5d3200c 	ldrb	r2, [r3, #12]
20007c40:	e5d3300d 	ldrb	r3, [r3, #13]
20007c44:	e1a03403 	lsl	r3, r3, #8
20007c48:	e1833002 	orr	r3, r3, r2
20007c4c:	e1a03803 	lsl	r3, r3, #16
20007c50:	e1a03823 	lsr	r3, r3, #16
20007c54:	e1a00003 	mov	r0, r3
20007c58:	eb00159b 	bl	2000d2cc <ntohs>
20007c5c:	e1a03000 	mov	r3, r0
20007c60:	e2033003 	and	r3, r3, #3
20007c64:	e3530000 	cmp	r3, #0
20007c68:	13a03001 	movne	r3, #1
20007c6c:	03a03000 	moveq	r3, #0
20007c70:	e20330ff 	and	r3, r3, #255	; 0xff
20007c74:	e1a03803 	lsl	r3, r3, #16
20007c78:	e1a03823 	lsr	r3, r3, #16
20007c7c:	e0843003 	add	r3, r4, r3
20007c80:	e1a03803 	lsl	r3, r3, #16
20007c84:	e1a03823 	lsr	r3, r3, #16
20007c88:	e51f2300 	ldr	r2, [pc, #-768]	; 20007990 <tcp_receive+0xcbc>
20007c8c:	e1c230b0 	strh	r3, [r2]
20007c90:	e51f3308 	ldr	r3, [pc, #-776]	; 20007990 <tcp_receive+0xcbc>
20007c94:	e1d330b0 	ldrh	r3, [r3]
20007c98:	e1a02003 	mov	r2, r3
20007c9c:	e51f3304 	ldr	r3, [pc, #-772]	; 200079a0 <tcp_receive+0xccc>
20007ca0:	e5933000 	ldr	r3, [r3]
20007ca4:	e0822003 	add	r2, r2, r3
20007ca8:	e51b3038 	ldr	r3, [fp, #-56]	; 0xffffffc8
20007cac:	e5832024 	str	r2, [r3, #36]	; 0x24
20007cb0:	e51b3038 	ldr	r3, [fp, #-56]	; 0xffffffc8
20007cb4:	e1d322b8 	ldrh	r2, [r3, #40]	; 0x28
20007cb8:	e51f3330 	ldr	r3, [pc, #-816]	; 20007990 <tcp_receive+0xcbc>
20007cbc:	e1d330b0 	ldrh	r3, [r3]
20007cc0:	e0633002 	rsb	r3, r3, r2
20007cc4:	e1a03803 	lsl	r3, r3, #16
20007cc8:	e1a02823 	lsr	r2, r3, #16
20007ccc:	e51b3038 	ldr	r3, [fp, #-56]	; 0xffffffc8
20007cd0:	e1c322b8 	strh	r2, [r3, #40]	; 0x28
20007cd4:	e51b0038 	ldr	r0, [fp, #-56]	; 0xffffffc8
20007cd8:	ebffee10 	bl	20003520 <tcp_update_rcv_ann_wnd>
20007cdc:	e51f334c 	ldr	r3, [pc, #-844]	; 20007998 <tcp_receive+0xcc4>
20007ce0:	e5933004 	ldr	r3, [r3, #4]
20007ce4:	e1d330b8 	ldrh	r3, [r3, #8]
20007ce8:	e3530000 	cmp	r3, #0
20007cec:	0a000006 	beq	20007d0c <tcp_receive+0x1038>
20007cf0:	e51f3360 	ldr	r3, [pc, #-864]	; 20007998 <tcp_receive+0xcc4>
20007cf4:	e5933004 	ldr	r3, [r3, #4]
20007cf8:	e51f236c 	ldr	r2, [pc, #-876]	; 20007994 <tcp_receive+0xcc0>
20007cfc:	e5823000 	str	r3, [r2]
20007d00:	e51f3370 	ldr	r3, [pc, #-880]	; 20007998 <tcp_receive+0xcc4>
20007d04:	e3a02000 	mov	r2, #0
20007d08:	e5832004 	str	r2, [r3, #4]
20007d0c:	e51f337c 	ldr	r3, [pc, #-892]	; 20007998 <tcp_receive+0xcc4>
20007d10:	e5933010 	ldr	r3, [r3, #16]
20007d14:	e5d3200c 	ldrb	r2, [r3, #12]
20007d18:	e5d3300d 	ldrb	r3, [r3, #13]
20007d1c:	e1a03403 	lsl	r3, r3, #8
20007d20:	e1833002 	orr	r3, r3, r2
20007d24:	e1a03803 	lsl	r3, r3, #16
20007d28:	e1a03823 	lsr	r3, r3, #16
20007d2c:	e1a00003 	mov	r0, r3
20007d30:	eb001565 	bl	2000d2cc <ntohs>
20007d34:	e1a03000 	mov	r3, r0
20007d38:	e2033001 	and	r3, r3, #1
20007d3c:	e3530000 	cmp	r3, #0
20007d40:	0a000005 	beq	20007d5c <tcp_receive+0x1088>
20007d44:	e51f33b0 	ldr	r3, [pc, #-944]	; 2000799c <tcp_receive+0xcc8>
20007d48:	e5d33000 	ldrb	r3, [r3]
20007d4c:	e3833020 	orr	r3, r3, #32
20007d50:	e20320ff 	and	r2, r3, #255	; 0xff
20007d54:	e51f33c0 	ldr	r3, [pc, #-960]	; 2000799c <tcp_receive+0xcc8>
20007d58:	e5c32000 	strb	r2, [r3]
20007d5c:	e51b3038 	ldr	r3, [fp, #-56]	; 0xffffffc8
20007d60:	e5d33022 	ldrb	r3, [r3, #34]	; 0x22
20007d64:	e2033001 	and	r3, r3, #1
20007d68:	e3530000 	cmp	r3, #0
20007d6c:	0a00000e 	beq	20007dac <tcp_receive+0x10d8>
20007d70:	e51b3038 	ldr	r3, [fp, #-56]	; 0xffffffc8
20007d74:	e5d33022 	ldrb	r3, [r3, #34]	; 0x22
20007d78:	e3c33001 	bic	r3, r3, #1
20007d7c:	e20320ff 	and	r2, r3, #255	; 0xff
20007d80:	e51b3038 	ldr	r3, [fp, #-56]	; 0xffffffc8
20007d84:	e5c32022 	strb	r2, [r3, #34]	; 0x22
20007d88:	e51b3038 	ldr	r3, [fp, #-56]	; 0xffffffc8
20007d8c:	e5d33022 	ldrb	r3, [r3, #34]	; 0x22
20007d90:	e3833002 	orr	r3, r3, #2
20007d94:	e20320ff 	and	r2, r3, #255	; 0xff
20007d98:	e51b3038 	ldr	r3, [fp, #-56]	; 0xffffffc8
20007d9c:	e5c32022 	strb	r2, [r3, #34]	; 0x22
20007da0:	e51b0038 	ldr	r0, [fp, #-56]	; 0xffffffc8
20007da4:	eb000547 	bl	200092c8 <tcp_output>
20007da8:	ea000027 	b	20007e4c <tcp_receive+0x1178>
20007dac:	e51b3038 	ldr	r3, [fp, #-56]	; 0xffffffc8
20007db0:	e5d33022 	ldrb	r3, [r3, #34]	; 0x22
20007db4:	e3833001 	orr	r3, r3, #1
20007db8:	e20320ff 	and	r2, r3, #255	; 0xff
20007dbc:	e51b3038 	ldr	r3, [fp, #-56]	; 0xffffffc8
20007dc0:	e5c32022 	strb	r2, [r3, #34]	; 0x22
20007dc4:	ea000020 	b	20007e4c <tcp_receive+0x1178>
20007dc8:	e51b0038 	ldr	r0, [fp, #-56]	; 0xffffffc8
20007dcc:	eb0004e9 	bl	20009178 <tcp_send_empty_ack>
20007dd0:	ea00001d 	b	20007e4c <tcp_receive+0x1178>
20007dd4:	e51b0038 	ldr	r0, [fp, #-56]	; 0xffffffc8
20007dd8:	eb0004e6 	bl	20009178 <tcp_send_empty_ack>
20007ddc:	ea00001a 	b	20007e4c <tcp_receive+0x1178>
20007de0:	e51f3448 	ldr	r3, [pc, #-1096]	; 200079a0 <tcp_receive+0xccc>
20007de4:	e5932000 	ldr	r2, [r3]
20007de8:	e51b3038 	ldr	r3, [fp, #-56]	; 0xffffffc8
20007dec:	e5933024 	ldr	r3, [r3, #36]	; 0x24
20007df0:	e0633002 	rsb	r3, r3, r2
20007df4:	e3530000 	cmp	r3, #0
20007df8:	ba00000a 	blt	20007e28 <tcp_receive+0x1154>
20007dfc:	e51f3464 	ldr	r3, [pc, #-1124]	; 200079a0 <tcp_receive+0xccc>
20007e00:	e5932000 	ldr	r2, [r3]
20007e04:	e51b3038 	ldr	r3, [fp, #-56]	; 0xffffffc8
20007e08:	e5933024 	ldr	r3, [r3, #36]	; 0x24
20007e0c:	e51b1038 	ldr	r1, [fp, #-56]	; 0xffffffc8
20007e10:	e1d112b8 	ldrh	r1, [r1, #40]	; 0x28
20007e14:	e0833001 	add	r3, r3, r1
20007e18:	e0633002 	rsb	r3, r3, r2
20007e1c:	e2833001 	add	r3, r3, #1
20007e20:	e3530000 	cmp	r3, #0
20007e24:	da000008 	ble	20007e4c <tcp_receive+0x1178>
20007e28:	e51b3038 	ldr	r3, [fp, #-56]	; 0xffffffc8
20007e2c:	e5d33022 	ldrb	r3, [r3, #34]	; 0x22
20007e30:	e3833002 	orr	r3, r3, #2
20007e34:	e20320ff 	and	r2, r3, #255	; 0xff
20007e38:	e51b3038 	ldr	r3, [fp, #-56]	; 0xffffffc8
20007e3c:	e5c32022 	strb	r2, [r3, #34]	; 0x22
20007e40:	e51b0038 	ldr	r0, [fp, #-56]	; 0xffffffc8
20007e44:	eb00051f 	bl	200092c8 <tcp_output>
20007e48:	eaffffff 	b	20007e4c <tcp_receive+0x1178>
20007e4c:	e1a00000 	nop			; (mov r0, r0)
20007e50:	e24bd010 	sub	sp, fp, #16
20007e54:	e8bd4870 	pop	{r4, r5, r6, fp, lr}
20007e58:	e12fff1e 	bx	lr

20007e5c <tcp_parseopt>:
20007e5c:	e92d4800 	push	{fp, lr}
20007e60:	e28db004 	add	fp, sp, #4
20007e64:	e24dd018 	sub	sp, sp, #24
20007e68:	e50b0018 	str	r0, [fp, #-24]	; 0xffffffe8
20007e6c:	e59f3218 	ldr	r3, [pc, #536]	; 2000808c <tcp_parseopt+0x230>
20007e70:	e5933000 	ldr	r3, [r3]
20007e74:	e2833014 	add	r3, r3, #20
20007e78:	e50b300c 	str	r3, [fp, #-12]
20007e7c:	e59f3208 	ldr	r3, [pc, #520]	; 2000808c <tcp_parseopt+0x230>
20007e80:	e5933000 	ldr	r3, [r3]
20007e84:	e5d3200c 	ldrb	r2, [r3, #12]
20007e88:	e5d3300d 	ldrb	r3, [r3, #13]
20007e8c:	e1a03403 	lsl	r3, r3, #8
20007e90:	e1833002 	orr	r3, r3, r2
20007e94:	e1a03803 	lsl	r3, r3, #16
20007e98:	e1a03823 	lsr	r3, r3, #16
20007e9c:	e1a00003 	mov	r0, r3
20007ea0:	eb001509 	bl	2000d2cc <ntohs>
20007ea4:	e1a03000 	mov	r3, r0
20007ea8:	e1a03623 	lsr	r3, r3, #12
20007eac:	e1a03803 	lsl	r3, r3, #16
20007eb0:	e1a03823 	lsr	r3, r3, #16
20007eb4:	e3530005 	cmp	r3, #5
20007eb8:	9a000070 	bls	20008080 <tcp_parseopt+0x224>
20007ebc:	e59f31c8 	ldr	r3, [pc, #456]	; 2000808c <tcp_parseopt+0x230>
20007ec0:	e5933000 	ldr	r3, [r3]
20007ec4:	e5d3200c 	ldrb	r2, [r3, #12]
20007ec8:	e5d3300d 	ldrb	r3, [r3, #13]
20007ecc:	e1a03403 	lsl	r3, r3, #8
20007ed0:	e1833002 	orr	r3, r3, r2
20007ed4:	e1a03803 	lsl	r3, r3, #16
20007ed8:	e1a03823 	lsr	r3, r3, #16
20007edc:	e1a00003 	mov	r0, r3
20007ee0:	eb0014f9 	bl	2000d2cc <ntohs>
20007ee4:	e1a03000 	mov	r3, r0
20007ee8:	e1a03623 	lsr	r3, r3, #12
20007eec:	e1a03803 	lsl	r3, r3, #16
20007ef0:	e1a03823 	lsr	r3, r3, #16
20007ef4:	e2433005 	sub	r3, r3, #5
20007ef8:	e1a03803 	lsl	r3, r3, #16
20007efc:	e1a03823 	lsr	r3, r3, #16
20007f00:	e1a03103 	lsl	r3, r3, #2
20007f04:	e14b30be 	strh	r3, [fp, #-14]
20007f08:	e3a03000 	mov	r3, #0
20007f0c:	e14b30b6 	strh	r3, [fp, #-6]
20007f10:	ea000050 	b	20008058 <tcp_parseopt+0x1fc>
20007f14:	e15b30b6 	ldrh	r3, [fp, #-6]
20007f18:	e51b200c 	ldr	r2, [fp, #-12]
20007f1c:	e0823003 	add	r3, r2, r3
20007f20:	e5d33000 	ldrb	r3, [r3]
20007f24:	e54b300f 	strb	r3, [fp, #-15]
20007f28:	e55b300f 	ldrb	r3, [fp, #-15]
20007f2c:	e3530001 	cmp	r3, #1
20007f30:	0a000004 	beq	20007f48 <tcp_parseopt+0xec>
20007f34:	e3530002 	cmp	r3, #2
20007f38:	0a000006 	beq	20007f58 <tcp_parseopt+0xfc>
20007f3c:	e3530000 	cmp	r3, #0
20007f40:	0a000049 	beq	2000806c <tcp_parseopt+0x210>
20007f44:	ea000032 	b	20008014 <tcp_parseopt+0x1b8>
20007f48:	e15b30b6 	ldrh	r3, [fp, #-6]
20007f4c:	e2833001 	add	r3, r3, #1
20007f50:	e14b30b6 	strh	r3, [fp, #-6]
20007f54:	ea00003f 	b	20008058 <tcp_parseopt+0x1fc>
20007f58:	e15b30b6 	ldrh	r3, [fp, #-6]
20007f5c:	e2833001 	add	r3, r3, #1
20007f60:	e51b200c 	ldr	r2, [fp, #-12]
20007f64:	e0823003 	add	r3, r2, r3
20007f68:	e5d33000 	ldrb	r3, [r3]
20007f6c:	e3530004 	cmp	r3, #4
20007f70:	1a00003f 	bne	20008074 <tcp_parseopt+0x218>
20007f74:	e15b30b6 	ldrh	r3, [fp, #-6]
20007f78:	e2832004 	add	r2, r3, #4
20007f7c:	e15b30be 	ldrh	r3, [fp, #-14]
20007f80:	e1520003 	cmp	r2, r3
20007f84:	ca00003a 	bgt	20008074 <tcp_parseopt+0x218>
20007f88:	e15b30b6 	ldrh	r3, [fp, #-6]
20007f8c:	e2833002 	add	r3, r3, #2
20007f90:	e51b200c 	ldr	r2, [fp, #-12]
20007f94:	e0823003 	add	r3, r2, r3
20007f98:	e5d33000 	ldrb	r3, [r3]
20007f9c:	e1a03403 	lsl	r3, r3, #8
20007fa0:	e1a03803 	lsl	r3, r3, #16
20007fa4:	e1a01823 	lsr	r1, r3, #16
20007fa8:	e15b30b6 	ldrh	r3, [fp, #-6]
20007fac:	e2833003 	add	r3, r3, #3
20007fb0:	e51b200c 	ldr	r2, [fp, #-12]
20007fb4:	e0823003 	add	r3, r2, r3
20007fb8:	e5d33000 	ldrb	r3, [r3]
20007fbc:	e1a03803 	lsl	r3, r3, #16
20007fc0:	e1a03823 	lsr	r3, r3, #16
20007fc4:	e1a02001 	mov	r2, r1
20007fc8:	e1823003 	orr	r3, r2, r3
20007fcc:	e1a03803 	lsl	r3, r3, #16
20007fd0:	e1a03823 	lsr	r3, r3, #16
20007fd4:	e14b31b2 	strh	r3, [fp, #-18]	; 0xffffffee
20007fd8:	e15b31b2 	ldrh	r3, [fp, #-18]	; 0xffffffee
20007fdc:	e3530080 	cmp	r3, #128	; 0x80
20007fe0:	8a000004 	bhi	20007ff8 <tcp_parseopt+0x19c>
20007fe4:	e15b31b2 	ldrh	r3, [fp, #-18]	; 0xffffffee
20007fe8:	e3530000 	cmp	r3, #0
20007fec:	0a000001 	beq	20007ff8 <tcp_parseopt+0x19c>
20007ff0:	e15b31b2 	ldrh	r3, [fp, #-18]	; 0xffffffee
20007ff4:	ea000000 	b	20007ffc <tcp_parseopt+0x1a0>
20007ff8:	e3a03080 	mov	r3, #128	; 0x80
20007ffc:	e51b2018 	ldr	r2, [fp, #-24]	; 0xffffffe8
20008000:	e1c233b8 	strh	r3, [r2, #56]	; 0x38
20008004:	e15b30b6 	ldrh	r3, [fp, #-6]
20008008:	e2833004 	add	r3, r3, #4
2000800c:	e14b30b6 	strh	r3, [fp, #-6]
20008010:	ea000010 	b	20008058 <tcp_parseopt+0x1fc>
20008014:	e15b30b6 	ldrh	r3, [fp, #-6]
20008018:	e2833001 	add	r3, r3, #1
2000801c:	e51b200c 	ldr	r2, [fp, #-12]
20008020:	e0823003 	add	r3, r2, r3
20008024:	e5d33000 	ldrb	r3, [r3]
20008028:	e3530000 	cmp	r3, #0
2000802c:	0a000012 	beq	2000807c <tcp_parseopt+0x220>
20008030:	e15b30b6 	ldrh	r3, [fp, #-6]
20008034:	e2833001 	add	r3, r3, #1
20008038:	e51b200c 	ldr	r2, [fp, #-12]
2000803c:	e0823003 	add	r3, r2, r3
20008040:	e5d33000 	ldrb	r3, [r3]
20008044:	e1a03803 	lsl	r3, r3, #16
20008048:	e1a02823 	lsr	r2, r3, #16
2000804c:	e15b30b6 	ldrh	r3, [fp, #-6]
20008050:	e0823003 	add	r3, r2, r3
20008054:	e14b30b6 	strh	r3, [fp, #-6]
20008058:	e15b20b6 	ldrh	r2, [fp, #-6]
2000805c:	e15b30be 	ldrh	r3, [fp, #-14]
20008060:	e1520003 	cmp	r2, r3
20008064:	3affffaa 	bcc	20007f14 <tcp_parseopt+0xb8>
20008068:	ea000004 	b	20008080 <tcp_parseopt+0x224>
2000806c:	e1a00000 	nop			; (mov r0, r0)
20008070:	ea000002 	b	20008080 <tcp_parseopt+0x224>
20008074:	e1a00000 	nop			; (mov r0, r0)
20008078:	ea000000 	b	20008080 <tcp_parseopt+0x224>
2000807c:	e1a00000 	nop			; (mov r0, r0)
20008080:	e24bd004 	sub	sp, fp, #4
20008084:	e8bd4800 	pop	{fp, lr}
20008088:	e12fff1e 	bx	lr
2000808c:	20014bac 	.word	0x20014bac

20008090 <tcp_output_set_header>:
20008090:	e92d4810 	push	{r4, fp, lr}
20008094:	e28db008 	add	fp, sp, #8
20008098:	e24dd01c 	sub	sp, sp, #28
2000809c:	e50b0018 	str	r0, [fp, #-24]	; 0xffffffe8
200080a0:	e50b101c 	str	r1, [fp, #-28]	; 0xffffffe4
200080a4:	e50b2020 	str	r2, [fp, #-32]	; 0xffffffe0
200080a8:	e50b3024 	str	r3, [fp, #-36]	; 0xffffffdc
200080ac:	e51b301c 	ldr	r3, [fp, #-28]	; 0xffffffe4
200080b0:	e5933004 	ldr	r3, [r3, #4]
200080b4:	e50b3010 	str	r3, [fp, #-16]
200080b8:	e51b3018 	ldr	r3, [fp, #-24]	; 0xffffffe8
200080bc:	e1d331b8 	ldrh	r3, [r3, #24]
200080c0:	e1a00003 	mov	r0, r3
200080c4:	eb001468 	bl	2000d26c <htons>
200080c8:	e1a03000 	mov	r3, r0
200080cc:	e1a02003 	mov	r2, r3
200080d0:	e51b3010 	ldr	r3, [fp, #-16]
200080d4:	e20210ff 	and	r1, r2, #255	; 0xff
200080d8:	e3a00000 	mov	r0, #0
200080dc:	e1801001 	orr	r1, r0, r1
200080e0:	e5c31000 	strb	r1, [r3]
200080e4:	e1a02422 	lsr	r2, r2, #8
200080e8:	e1a02802 	lsl	r2, r2, #16
200080ec:	e1a02822 	lsr	r2, r2, #16
200080f0:	e3a01000 	mov	r1, #0
200080f4:	e1812002 	orr	r2, r1, r2
200080f8:	e5c32001 	strb	r2, [r3, #1]
200080fc:	e51b3018 	ldr	r3, [fp, #-24]	; 0xffffffe8
20008100:	e1d332b0 	ldrh	r3, [r3, #32]
20008104:	e1a00003 	mov	r0, r3
20008108:	eb001457 	bl	2000d26c <htons>
2000810c:	e1a03000 	mov	r3, r0
20008110:	e1a02003 	mov	r2, r3
20008114:	e51b3010 	ldr	r3, [fp, #-16]
20008118:	e20210ff 	and	r1, r2, #255	; 0xff
2000811c:	e3a00000 	mov	r0, #0
20008120:	e1801001 	orr	r1, r0, r1
20008124:	e5c31002 	strb	r1, [r3, #2]
20008128:	e1a02422 	lsr	r2, r2, #8
2000812c:	e1a02802 	lsl	r2, r2, #16
20008130:	e1a02822 	lsr	r2, r2, #16
20008134:	e3a01000 	mov	r1, #0
20008138:	e1812002 	orr	r2, r1, r2
2000813c:	e5c32003 	strb	r2, [r3, #3]
20008140:	e51b3010 	ldr	r3, [fp, #-16]
20008144:	e55b2024 	ldrb	r2, [fp, #-36]	; 0xffffffdc
20008148:	e3a01000 	mov	r1, #0
2000814c:	e1812002 	orr	r2, r1, r2
20008150:	e5c32004 	strb	r2, [r3, #4]
20008154:	e55b2023 	ldrb	r2, [fp, #-35]	; 0xffffffdd
20008158:	e3a01000 	mov	r1, #0
2000815c:	e1812002 	orr	r2, r1, r2
20008160:	e5c32005 	strb	r2, [r3, #5]
20008164:	e55b2022 	ldrb	r2, [fp, #-34]	; 0xffffffde
20008168:	e3a01000 	mov	r1, #0
2000816c:	e1812002 	orr	r2, r1, r2
20008170:	e5c32006 	strb	r2, [r3, #6]
20008174:	e55b2021 	ldrb	r2, [fp, #-33]	; 0xffffffdf
20008178:	e3a01000 	mov	r1, #0
2000817c:	e1812002 	orr	r2, r1, r2
20008180:	e5c32007 	strb	r2, [r3, #7]
20008184:	e51b3018 	ldr	r3, [fp, #-24]	; 0xffffffe8
20008188:	e5933024 	ldr	r3, [r3, #36]	; 0x24
2000818c:	e1a00003 	mov	r0, r3
20008190:	eb00145a 	bl	2000d300 <htonl>
20008194:	e1a02000 	mov	r2, r0
20008198:	e51b3010 	ldr	r3, [fp, #-16]
2000819c:	e20210ff 	and	r1, r2, #255	; 0xff
200081a0:	e3a00000 	mov	r0, #0
200081a4:	e1801001 	orr	r1, r0, r1
200081a8:	e5c31008 	strb	r1, [r3, #8]
200081ac:	e1a01422 	lsr	r1, r2, #8
200081b0:	e20110ff 	and	r1, r1, #255	; 0xff
200081b4:	e3a00000 	mov	r0, #0
200081b8:	e1801001 	orr	r1, r0, r1
200081bc:	e5c31009 	strb	r1, [r3, #9]
200081c0:	e1a01822 	lsr	r1, r2, #16
200081c4:	e20110ff 	and	r1, r1, #255	; 0xff
200081c8:	e3a00000 	mov	r0, #0
200081cc:	e1801001 	orr	r1, r0, r1
200081d0:	e5c3100a 	strb	r1, [r3, #10]
200081d4:	e1a02c22 	lsr	r2, r2, #24
200081d8:	e3a01000 	mov	r1, #0
200081dc:	e1812002 	orr	r2, r1, r2
200081e0:	e5c3200b 	strb	r2, [r3, #11]
200081e4:	e51b3010 	ldr	r3, [fp, #-16]
200081e8:	e5d3200c 	ldrb	r2, [r3, #12]
200081ec:	e5d3300d 	ldrb	r3, [r3, #13]
200081f0:	e1a03403 	lsl	r3, r3, #8
200081f4:	e1833002 	orr	r3, r3, r2
200081f8:	e1a03803 	lsl	r3, r3, #16
200081fc:	e1a04823 	lsr	r4, r3, #16
20008200:	e59f01a4 	ldr	r0, [pc, #420]	; 200083ac <tcp_output_set_header+0x31c>
20008204:	eb001418 	bl	2000d26c <htons>
20008208:	e1a03000 	mov	r3, r0
2000820c:	e0033004 	and	r3, r3, r4
20008210:	e1a03803 	lsl	r3, r3, #16
20008214:	e1a04823 	lsr	r4, r3, #16
20008218:	e3a00010 	mov	r0, #16
2000821c:	eb001412 	bl	2000d26c <htons>
20008220:	e1a03000 	mov	r3, r0
20008224:	e1843003 	orr	r3, r4, r3
20008228:	e1a03803 	lsl	r3, r3, #16
2000822c:	e1a02823 	lsr	r2, r3, #16
20008230:	e51b3010 	ldr	r3, [fp, #-16]
20008234:	e20210ff 	and	r1, r2, #255	; 0xff
20008238:	e3a00000 	mov	r0, #0
2000823c:	e1801001 	orr	r1, r0, r1
20008240:	e5c3100c 	strb	r1, [r3, #12]
20008244:	e1a02422 	lsr	r2, r2, #8
20008248:	e1a02802 	lsl	r2, r2, #16
2000824c:	e1a02822 	lsr	r2, r2, #16
20008250:	e3a01000 	mov	r1, #0
20008254:	e1812002 	orr	r2, r1, r2
20008258:	e5c3200d 	strb	r2, [r3, #13]
2000825c:	e51b3018 	ldr	r3, [fp, #-24]	; 0xffffffe8
20008260:	e1d332ba 	ldrh	r3, [r3, #42]	; 0x2a
20008264:	e1a00003 	mov	r0, r3
20008268:	eb0013ff 	bl	2000d26c <htons>
2000826c:	e1a03000 	mov	r3, r0
20008270:	e1a02003 	mov	r2, r3
20008274:	e51b3010 	ldr	r3, [fp, #-16]
20008278:	e20210ff 	and	r1, r2, #255	; 0xff
2000827c:	e3a00000 	mov	r0, #0
20008280:	e1801001 	orr	r1, r0, r1
20008284:	e5c3100e 	strb	r1, [r3, #14]
20008288:	e1a02422 	lsr	r2, r2, #8
2000828c:	e1a02802 	lsl	r2, r2, #16
20008290:	e1a02822 	lsr	r2, r2, #16
20008294:	e3a01000 	mov	r1, #0
20008298:	e1812002 	orr	r2, r1, r2
2000829c:	e5c3200f 	strb	r2, [r3, #15]
200082a0:	e51b3010 	ldr	r3, [fp, #-16]
200082a4:	e3a02000 	mov	r2, #0
200082a8:	e5c32012 	strb	r2, [r3, #18]
200082ac:	e3a02000 	mov	r2, #0
200082b0:	e5c32013 	strb	r2, [r3, #19]
200082b4:	e51b3020 	ldr	r3, [fp, #-32]	; 0xffffffe0
200082b8:	e2832003 	add	r2, r3, #3
200082bc:	e3530000 	cmp	r3, #0
200082c0:	b1a03002 	movlt	r3, r2
200082c4:	a1a03003 	movge	r3, r3
200082c8:	e1a03143 	asr	r3, r3, #2
200082cc:	e1a03803 	lsl	r3, r3, #16
200082d0:	e1a03823 	lsr	r3, r3, #16
200082d4:	e2833005 	add	r3, r3, #5
200082d8:	e1a03803 	lsl	r3, r3, #16
200082dc:	e1a03823 	lsr	r3, r3, #16
200082e0:	e1a03603 	lsl	r3, r3, #12
200082e4:	e1a03803 	lsl	r3, r3, #16
200082e8:	e1a04823 	lsr	r4, r3, #16
200082ec:	e51b3010 	ldr	r3, [fp, #-16]
200082f0:	e5d3200c 	ldrb	r2, [r3, #12]
200082f4:	e5d3300d 	ldrb	r3, [r3, #13]
200082f8:	e1a03403 	lsl	r3, r3, #8
200082fc:	e1833002 	orr	r3, r3, r2
20008300:	e1a03803 	lsl	r3, r3, #16
20008304:	e1a03823 	lsr	r3, r3, #16
20008308:	e1a00003 	mov	r0, r3
2000830c:	eb0013ee 	bl	2000d2cc <ntohs>
20008310:	e1a03000 	mov	r3, r0
20008314:	e203303f 	and	r3, r3, #63	; 0x3f
20008318:	e1a03803 	lsl	r3, r3, #16
2000831c:	e1a03823 	lsr	r3, r3, #16
20008320:	e1843003 	orr	r3, r4, r3
20008324:	e1a03803 	lsl	r3, r3, #16
20008328:	e1a03823 	lsr	r3, r3, #16
2000832c:	e1a00003 	mov	r0, r3
20008330:	eb0013cd 	bl	2000d26c <htons>
20008334:	e1a03000 	mov	r3, r0
20008338:	e1a02003 	mov	r2, r3
2000833c:	e51b3010 	ldr	r3, [fp, #-16]
20008340:	e20210ff 	and	r1, r2, #255	; 0xff
20008344:	e3a00000 	mov	r0, #0
20008348:	e1801001 	orr	r1, r0, r1
2000834c:	e5c3100c 	strb	r1, [r3, #12]
20008350:	e1a02422 	lsr	r2, r2, #8
20008354:	e1a02802 	lsl	r2, r2, #16
20008358:	e1a02822 	lsr	r2, r2, #16
2000835c:	e3a01000 	mov	r1, #0
20008360:	e1812002 	orr	r2, r1, r2
20008364:	e5c3200d 	strb	r2, [r3, #13]
20008368:	e51b3010 	ldr	r3, [fp, #-16]
2000836c:	e3a02000 	mov	r2, #0
20008370:	e5c32010 	strb	r2, [r3, #16]
20008374:	e3a02000 	mov	r2, #0
20008378:	e5c32011 	strb	r2, [r3, #17]
2000837c:	e51b3018 	ldr	r3, [fp, #-24]	; 0xffffffe8
20008380:	e5933024 	ldr	r3, [r3, #36]	; 0x24
20008384:	e51b2018 	ldr	r2, [fp, #-24]	; 0xffffffe8
20008388:	e1d222ba 	ldrh	r2, [r2, #42]	; 0x2a
2000838c:	e0832002 	add	r2, r3, r2
20008390:	e51b3018 	ldr	r3, [fp, #-24]	; 0xffffffe8
20008394:	e583202c 	str	r2, [r3, #44]	; 0x2c
20008398:	e51b3010 	ldr	r3, [fp, #-16]
2000839c:	e1a00003 	mov	r0, r3
200083a0:	e24bd008 	sub	sp, fp, #8
200083a4:	e8bd4810 	pop	{r4, fp, lr}
200083a8:	e12fff1e 	bx	lr
200083ac:	0000ffc0 	.word	0x0000ffc0

200083b0 <tcp_send_ctrl>:
200083b0:	e92d4800 	push	{fp, lr}
200083b4:	e28db004 	add	fp, sp, #4
200083b8:	e24dd010 	sub	sp, sp, #16
200083bc:	e50b0008 	str	r0, [fp, #-8]
200083c0:	e1a03001 	mov	r3, r1
200083c4:	e54b3009 	strb	r3, [fp, #-9]
200083c8:	e55b2009 	ldrb	r2, [fp, #-9]
200083cc:	e3a03000 	mov	r3, #0
200083d0:	e58d3004 	str	r3, [sp, #4]
200083d4:	e3a03001 	mov	r3, #1
200083d8:	e58d3000 	str	r3, [sp]
200083dc:	e1a03002 	mov	r3, r2
200083e0:	e3a02000 	mov	r2, #0
200083e4:	e3a01000 	mov	r1, #0
200083e8:	e51b0008 	ldr	r0, [fp, #-8]
200083ec:	eb000032 	bl	200084bc <tcp_enqueue>
200083f0:	e1a03000 	mov	r3, r0
200083f4:	e1a00003 	mov	r0, r3
200083f8:	e24bd004 	sub	sp, fp, #4
200083fc:	e8bd4800 	pop	{fp, lr}
20008400:	e12fff1e 	bx	lr

20008404 <tcp_write>:
20008404:	e92d4800 	push	{fp, lr}
20008408:	e28db004 	add	fp, sp, #4
2000840c:	e24dd018 	sub	sp, sp, #24
20008410:	e50b0008 	str	r0, [fp, #-8]
20008414:	e50b100c 	str	r1, [fp, #-12]
20008418:	e14b20be 	strh	r2, [fp, #-14]
2000841c:	e54b300f 	strb	r3, [fp, #-15]
20008420:	e51b3008 	ldr	r3, [fp, #-8]
20008424:	e5d33010 	ldrb	r3, [r3, #16]
20008428:	e3530004 	cmp	r3, #4
2000842c:	0a00000b 	beq	20008460 <tcp_write+0x5c>
20008430:	e51b3008 	ldr	r3, [fp, #-8]
20008434:	e5d33010 	ldrb	r3, [r3, #16]
20008438:	e3530007 	cmp	r3, #7
2000843c:	0a000007 	beq	20008460 <tcp_write+0x5c>
20008440:	e51b3008 	ldr	r3, [fp, #-8]
20008444:	e5d33010 	ldrb	r3, [r3, #16]
20008448:	e3530002 	cmp	r3, #2
2000844c:	0a000003 	beq	20008460 <tcp_write+0x5c>
20008450:	e51b3008 	ldr	r3, [fp, #-8]
20008454:	e5d33010 	ldrb	r3, [r3, #16]
20008458:	e3530003 	cmp	r3, #3
2000845c:	1a00000f 	bne	200084a0 <tcp_write+0x9c>
20008460:	e15b30be 	ldrh	r3, [fp, #-14]
20008464:	e3530000 	cmp	r3, #0
20008468:	0a00000a 	beq	20008498 <tcp_write+0x94>
2000846c:	e15b20be 	ldrh	r2, [fp, #-14]
20008470:	e3a03000 	mov	r3, #0
20008474:	e58d3004 	str	r3, [sp, #4]
20008478:	e55b300f 	ldrb	r3, [fp, #-15]
2000847c:	e58d3000 	str	r3, [sp]
20008480:	e3a03000 	mov	r3, #0
20008484:	e51b100c 	ldr	r1, [fp, #-12]
20008488:	e51b0008 	ldr	r0, [fp, #-8]
2000848c:	eb00000a 	bl	200084bc <tcp_enqueue>
20008490:	e1a03000 	mov	r3, r0
20008494:	ea000002 	b	200084a4 <tcp_write+0xa0>
20008498:	e3a03000 	mov	r3, #0
2000849c:	ea000000 	b	200084a4 <tcp_write+0xa0>
200084a0:	e3a030f8 	mov	r3, #248	; 0xf8
200084a4:	e1a03c03 	lsl	r3, r3, #24
200084a8:	e1a03c43 	asr	r3, r3, #24
200084ac:	e1a00003 	mov	r0, r3
200084b0:	e24bd004 	sub	sp, fp, #4
200084b4:	e8bd4800 	pop	{fp, lr}
200084b8:	e12fff1e 	bx	lr

200084bc <tcp_enqueue>:
200084bc:	e92d4830 	push	{r4, r5, fp, lr}
200084c0:	e28db00c 	add	fp, sp, #12
200084c4:	e24dd038 	sub	sp, sp, #56	; 0x38
200084c8:	e50b0038 	str	r0, [fp, #-56]	; 0xffffffc8
200084cc:	e50b103c 	str	r1, [fp, #-60]	; 0xffffffc4
200084d0:	e14b23be 	strh	r2, [fp, #-62]	; 0xffffffc2
200084d4:	e54b303f 	strb	r3, [fp, #-63]	; 0xffffffc1
200084d8:	e15b33be 	ldrh	r3, [fp, #-62]	; 0xffffffc2
200084dc:	e3530000 	cmp	r3, #0
200084e0:	1a000008 	bne	20008508 <tcp_enqueue+0x4c>
200084e4:	e5db3008 	ldrb	r3, [fp, #8]
200084e8:	e3530000 	cmp	r3, #0
200084ec:	1a000005 	bne	20008508 <tcp_enqueue+0x4c>
200084f0:	e55b303f 	ldrb	r3, [fp, #-63]	; 0xffffffc1
200084f4:	e2033003 	and	r3, r3, #3
200084f8:	e3530000 	cmp	r3, #0
200084fc:	1a000001 	bne	20008508 <tcp_enqueue+0x4c>
20008500:	e3a030f6 	mov	r3, #246	; 0xf6
20008504:	ea000312 	b	20009154 <tcp_enqueue+0xc98>
20008508:	e15b33be 	ldrh	r3, [fp, #-62]	; 0xffffffc2
2000850c:	e3530000 	cmp	r3, #0
20008510:	1a000004 	bne	20008528 <tcp_enqueue+0x6c>
20008514:	e51b303c 	ldr	r3, [fp, #-60]	; 0xffffffc4
20008518:	e3530000 	cmp	r3, #0
2000851c:	0a000001 	beq	20008528 <tcp_enqueue+0x6c>
20008520:	e3a030f6 	mov	r3, #246	; 0xf6
20008524:	ea00030a 	b	20009154 <tcp_enqueue+0xc98>
20008528:	e51b3038 	ldr	r3, [fp, #-56]	; 0xffffffc8
2000852c:	e1d336be 	ldrh	r3, [r3, #110]	; 0x6e
20008530:	e15b23be 	ldrh	r2, [fp, #-62]	; 0xffffffc2
20008534:	e1520003 	cmp	r2, r3
20008538:	9a000008 	bls	20008560 <tcp_enqueue+0xa4>
2000853c:	e51b3038 	ldr	r3, [fp, #-56]	; 0xffffffc8
20008540:	e5d33022 	ldrb	r3, [r3, #34]	; 0x22
20008544:	e1e03c83 	mvn	r3, r3, lsl #25
20008548:	e1e03ca3 	mvn	r3, r3, lsr #25
2000854c:	e20320ff 	and	r2, r3, #255	; 0xff
20008550:	e51b3038 	ldr	r3, [fp, #-56]	; 0xffffffc8
20008554:	e5c32022 	strb	r2, [r3, #34]	; 0x22
20008558:	e3a030ff 	mov	r3, #255	; 0xff
2000855c:	ea0002fc 	b	20009154 <tcp_enqueue+0xc98>
20008560:	e15b33be 	ldrh	r3, [fp, #-62]	; 0xffffffc2
20008564:	e14b31be 	strh	r3, [fp, #-30]	; 0xffffffe2
20008568:	e51b303c 	ldr	r3, [fp, #-60]	; 0xffffffc4
2000856c:	e50b3024 	str	r3, [fp, #-36]	; 0xffffffdc
20008570:	e5db3008 	ldrb	r3, [fp, #8]
20008574:	e2033001 	and	r3, r3, #1
20008578:	e3530000 	cmp	r3, #0
2000857c:	0a000001 	beq	20008588 <tcp_enqueue+0xcc>
20008580:	e3a02004 	mov	r2, #4
20008584:	ea000000 	b	2000858c <tcp_enqueue+0xd0>
20008588:	e3a02000 	mov	r2, #0
2000858c:	e5db3008 	ldrb	r3, [fp, #8]
20008590:	e2033002 	and	r3, r3, #2
20008594:	e3530000 	cmp	r3, #0
20008598:	0a000001 	beq	200085a4 <tcp_enqueue+0xe8>
2000859c:	e3a0300c 	mov	r3, #12
200085a0:	ea000000 	b	200085a8 <tcp_enqueue+0xec>
200085a4:	e3a03000 	mov	r3, #0
200085a8:	e0823003 	add	r3, r2, r3
200085ac:	e54b3027 	strb	r3, [fp, #-39]	; 0xffffffd9
200085b0:	e51b3038 	ldr	r3, [fp, #-56]	; 0xffffffc8
200085b4:	e5933068 	ldr	r3, [r3, #104]	; 0x68
200085b8:	e50b301c 	str	r3, [fp, #-28]	; 0xffffffe4
200085bc:	e51b3038 	ldr	r3, [fp, #-56]	; 0xffffffc8
200085c0:	e1d337b0 	ldrh	r3, [r3, #112]	; 0x70
200085c4:	e14b32b6 	strh	r3, [fp, #-38]	; 0xffffffda
200085c8:	e15b32b6 	ldrh	r3, [fp, #-38]	; 0xffffffda
200085cc:	e3530007 	cmp	r3, #7
200085d0:	8a000003 	bhi	200085e4 <tcp_enqueue+0x128>
200085d4:	e15b32b6 	ldrh	r3, [fp, #-38]	; 0xffffffda
200085d8:	e59f2b8c 	ldr	r2, [pc, #2956]	; 2000916c <tcp_enqueue+0xcb0>
200085dc:	e1530002 	cmp	r3, r2
200085e0:	9a00000f 	bls	20008624 <tcp_enqueue+0x168>
200085e4:	e59f3b84 	ldr	r3, [pc, #2948]	; 20009170 <tcp_enqueue+0xcb4>
200085e8:	e1d339bc 	ldrh	r3, [r3, #156]	; 0x9c
200085ec:	e2833001 	add	r3, r3, #1
200085f0:	e1a03803 	lsl	r3, r3, #16
200085f4:	e1a03823 	lsr	r3, r3, #16
200085f8:	e59f2b70 	ldr	r2, [pc, #2928]	; 20009170 <tcp_enqueue+0xcb4>
200085fc:	e1c239bc 	strh	r3, [r2, #156]	; 0x9c
20008600:	e51b3038 	ldr	r3, [fp, #-56]	; 0xffffffc8
20008604:	e5d33022 	ldrb	r3, [r3, #34]	; 0x22
20008608:	e1e03c83 	mvn	r3, r3, lsl #25
2000860c:	e1e03ca3 	mvn	r3, r3, lsr #25
20008610:	e20320ff 	and	r2, r3, #255	; 0xff
20008614:	e51b3038 	ldr	r3, [fp, #-56]	; 0xffffffc8
20008618:	e5c32022 	strb	r2, [r3, #34]	; 0x22
2000861c:	e3a030ff 	mov	r3, #255	; 0xff
20008620:	ea0002cb 	b	20009154 <tcp_enqueue+0xc98>
20008624:	e15b32b6 	ldrh	r3, [fp, #-38]	; 0xffffffda
20008628:	e3530000 	cmp	r3, #0
2000862c:	0a000003 	beq	20008640 <tcp_enqueue+0x184>
20008630:	e51b3038 	ldr	r3, [fp, #-56]	; 0xffffffc8
20008634:	e5933078 	ldr	r3, [r3, #120]	; 0x78
20008638:	e3530000 	cmp	r3, #0
2000863c:	ea000002 	b	2000864c <tcp_enqueue+0x190>
20008640:	e51b3038 	ldr	r3, [fp, #-56]	; 0xffffffc8
20008644:	e5933078 	ldr	r3, [r3, #120]	; 0x78
20008648:	e3530000 	cmp	r3, #0
2000864c:	e3a03000 	mov	r3, #0
20008650:	e50b3010 	str	r3, [fp, #-16]
20008654:	e51b3010 	ldr	r3, [fp, #-16]
20008658:	e50b3018 	str	r3, [fp, #-24]	; 0xffffffe8
2000865c:	e51b3018 	ldr	r3, [fp, #-24]	; 0xffffffe8
20008660:	e50b3014 	str	r3, [fp, #-20]	; 0xffffffec
20008664:	e3a03000 	mov	r3, #0
20008668:	e14b32b0 	strh	r3, [fp, #-32]	; 0xffffffe0
2000866c:	ea000149 	b	20008b98 <tcp_enqueue+0x6dc>
20008670:	e15b21be 	ldrh	r2, [fp, #-30]	; 0xffffffe2
20008674:	e51b3038 	ldr	r3, [fp, #-56]	; 0xffffffc8
20008678:	e1d333b8 	ldrh	r3, [r3, #56]	; 0x38
2000867c:	e1a01003 	mov	r1, r3
20008680:	e55b3027 	ldrb	r3, [fp, #-39]	; 0xffffffd9
20008684:	e0633001 	rsb	r3, r3, r1
20008688:	e1520003 	cmp	r2, r3
2000868c:	b1a03002 	movlt	r3, r2
20008690:	a1a03003 	movge	r3, r3
20008694:	e14b32b0 	strh	r3, [fp, #-32]	; 0xffffffe0
20008698:	e3a00004 	mov	r0, #4
2000869c:	ebffe172 	bl	20000c6c <memp_malloc>
200086a0:	e50b0010 	str	r0, [fp, #-16]
200086a4:	e51b3010 	ldr	r3, [fp, #-16]
200086a8:	e3530000 	cmp	r3, #0
200086ac:	0a000288 	beq	200090d4 <tcp_enqueue+0xc18>
200086b0:	e51b3010 	ldr	r3, [fp, #-16]
200086b4:	e3a02000 	mov	r2, #0
200086b8:	e5832000 	str	r2, [r3]
200086bc:	e51b3010 	ldr	r3, [fp, #-16]
200086c0:	e3a02000 	mov	r2, #0
200086c4:	e5832004 	str	r2, [r3, #4]
200086c8:	e51b3018 	ldr	r3, [fp, #-24]	; 0xffffffe8
200086cc:	e3530000 	cmp	r3, #0
200086d0:	1a000002 	bne	200086e0 <tcp_enqueue+0x224>
200086d4:	e51b3010 	ldr	r3, [fp, #-16]
200086d8:	e50b3018 	str	r3, [fp, #-24]	; 0xffffffe8
200086dc:	ea000002 	b	200086ec <tcp_enqueue+0x230>
200086e0:	e51b3014 	ldr	r3, [fp, #-20]	; 0xffffffec
200086e4:	e51b2010 	ldr	r2, [fp, #-16]
200086e8:	e5832000 	str	r2, [r3]
200086ec:	e51b3010 	ldr	r3, [fp, #-16]
200086f0:	e50b3014 	str	r3, [fp, #-20]	; 0xffffffec
200086f4:	e5db3004 	ldrb	r3, [fp, #4]
200086f8:	e2033001 	and	r3, r3, #1
200086fc:	e3530000 	cmp	r3, #0
20008700:	0a00002d 	beq	200087bc <tcp_enqueue+0x300>
20008704:	e55b3027 	ldrb	r3, [fp, #-39]	; 0xffffffd9
20008708:	e1a03803 	lsl	r3, r3, #16
2000870c:	e1a02823 	lsr	r2, r3, #16
20008710:	e15b32b0 	ldrh	r3, [fp, #-32]	; 0xffffffe0
20008714:	e0823003 	add	r3, r2, r3
20008718:	e1a03803 	lsl	r3, r3, #16
2000871c:	e1a03823 	lsr	r3, r3, #16
20008720:	e3a02000 	mov	r2, #0
20008724:	e1a01003 	mov	r1, r3
20008728:	e3a00000 	mov	r0, #0
2000872c:	ebffe398 	bl	20001594 <pbuf_alloc>
20008730:	e1a02000 	mov	r2, r0
20008734:	e51b3010 	ldr	r3, [fp, #-16]
20008738:	e5832004 	str	r2, [r3, #4]
2000873c:	e51b3010 	ldr	r3, [fp, #-16]
20008740:	e5933004 	ldr	r3, [r3, #4]
20008744:	e3530000 	cmp	r3, #0
20008748:	0a000263 	beq	200090dc <tcp_enqueue+0xc20>
2000874c:	e51b3010 	ldr	r3, [fp, #-16]
20008750:	e5933004 	ldr	r3, [r3, #4]
20008754:	e1a00003 	mov	r0, r3
20008758:	ebffe592 	bl	20001da8 <pbuf_clen>
2000875c:	e1a03000 	mov	r3, r0
20008760:	e1a03803 	lsl	r3, r3, #16
20008764:	e1a02823 	lsr	r2, r3, #16
20008768:	e15b32b6 	ldrh	r3, [fp, #-38]	; 0xffffffda
2000876c:	e0823003 	add	r3, r2, r3
20008770:	e14b32b6 	strh	r3, [fp, #-38]	; 0xffffffda
20008774:	e51b303c 	ldr	r3, [fp, #-60]	; 0xffffffc4
20008778:	e3530000 	cmp	r3, #0
2000877c:	0a000008 	beq	200087a4 <tcp_enqueue+0x2e8>
20008780:	e51b3010 	ldr	r3, [fp, #-16]
20008784:	e5933004 	ldr	r3, [r3, #4]
20008788:	e5932004 	ldr	r2, [r3, #4]
2000878c:	e55b3027 	ldrb	r3, [fp, #-39]	; 0xffffffd9
20008790:	e0823003 	add	r3, r2, r3
20008794:	e15b22b0 	ldrh	r2, [fp, #-32]	; 0xffffffe0
20008798:	e51b1024 	ldr	r1, [fp, #-36]	; 0xffffffdc
2000879c:	e1a00003 	mov	r0, r3
200087a0:	eb002d09 	bl	20013bcc <__rom_data_end>
200087a4:	e51b3010 	ldr	r3, [fp, #-16]
200087a8:	e5933004 	ldr	r3, [r3, #4]
200087ac:	e5932004 	ldr	r2, [r3, #4]
200087b0:	e51b3010 	ldr	r3, [fp, #-16]
200087b4:	e5832008 	str	r2, [r3, #8]
200087b8:	ea00003b 	b	200088ac <tcp_enqueue+0x3f0>
200087bc:	e55b3027 	ldrb	r3, [fp, #-39]	; 0xffffffd9
200087c0:	e1a03803 	lsl	r3, r3, #16
200087c4:	e1a03823 	lsr	r3, r3, #16
200087c8:	e3a02000 	mov	r2, #0
200087cc:	e1a01003 	mov	r1, r3
200087d0:	e3a00000 	mov	r0, #0
200087d4:	ebffe36e 	bl	20001594 <pbuf_alloc>
200087d8:	e1a02000 	mov	r2, r0
200087dc:	e51b3010 	ldr	r3, [fp, #-16]
200087e0:	e5832004 	str	r2, [r3, #4]
200087e4:	e51b3010 	ldr	r3, [fp, #-16]
200087e8:	e5933004 	ldr	r3, [r3, #4]
200087ec:	e3530000 	cmp	r3, #0
200087f0:	0a00023b 	beq	200090e4 <tcp_enqueue+0xc28>
200087f4:	e51b3010 	ldr	r3, [fp, #-16]
200087f8:	e5933004 	ldr	r3, [r3, #4]
200087fc:	e1a00003 	mov	r0, r3
20008800:	ebffe568 	bl	20001da8 <pbuf_clen>
20008804:	e1a03000 	mov	r3, r0
20008808:	e1a03803 	lsl	r3, r3, #16
2000880c:	e1a02823 	lsr	r2, r3, #16
20008810:	e15b32b6 	ldrh	r3, [fp, #-38]	; 0xffffffda
20008814:	e0823003 	add	r3, r2, r3
20008818:	e14b32b6 	strh	r3, [fp, #-38]	; 0xffffffda
2000881c:	e15b31be 	ldrh	r3, [fp, #-30]	; 0xffffffe2
20008820:	e3530000 	cmp	r3, #0
20008824:	0a000020 	beq	200088ac <tcp_enqueue+0x3f0>
20008828:	e15b32b0 	ldrh	r3, [fp, #-32]	; 0xffffffe0
2000882c:	e3a02001 	mov	r2, #1
20008830:	e1a01003 	mov	r1, r3
20008834:	e3a00003 	mov	r0, #3
20008838:	ebffe355 	bl	20001594 <pbuf_alloc>
2000883c:	e50b002c 	str	r0, [fp, #-44]	; 0xffffffd4
20008840:	e51b302c 	ldr	r3, [fp, #-44]	; 0xffffffd4
20008844:	e3530000 	cmp	r3, #0
20008848:	1a000007 	bne	2000886c <tcp_enqueue+0x3b0>
2000884c:	e51b3010 	ldr	r3, [fp, #-16]
20008850:	e5933004 	ldr	r3, [r3, #4]
20008854:	e1a00003 	mov	r0, r3
20008858:	ebffe505 	bl	20001c74 <pbuf_free>
2000885c:	e51b3010 	ldr	r3, [fp, #-16]
20008860:	e3a02000 	mov	r2, #0
20008864:	e5832004 	str	r2, [r3, #4]
20008868:	ea00021e 	b	200090e8 <tcp_enqueue+0xc2c>
2000886c:	e15b32b6 	ldrh	r3, [fp, #-38]	; 0xffffffda
20008870:	e2833001 	add	r3, r3, #1
20008874:	e14b32b6 	strh	r3, [fp, #-38]	; 0xffffffda
20008878:	e51b302c 	ldr	r3, [fp, #-44]	; 0xffffffd4
2000887c:	e51b2024 	ldr	r2, [fp, #-36]	; 0xffffffdc
20008880:	e5832004 	str	r2, [r3, #4]
20008884:	e51b3010 	ldr	r3, [fp, #-16]
20008888:	e51b2024 	ldr	r2, [fp, #-36]	; 0xffffffdc
2000888c:	e5832008 	str	r2, [r3, #8]
20008890:	e51b3010 	ldr	r3, [fp, #-16]
20008894:	e5933004 	ldr	r3, [r3, #4]
20008898:	e51b102c 	ldr	r1, [fp, #-44]	; 0xffffffd4
2000889c:	e1a00003 	mov	r0, r3
200088a0:	ebffe567 	bl	20001e44 <pbuf_cat>
200088a4:	e3a03000 	mov	r3, #0
200088a8:	e50b302c 	str	r3, [fp, #-44]	; 0xffffffd4
200088ac:	e15b32b6 	ldrh	r3, [fp, #-38]	; 0xffffffda
200088b0:	e3530008 	cmp	r3, #8
200088b4:	8a00020b 	bhi	200090e8 <tcp_enqueue+0xc2c>
200088b8:	e15b32b6 	ldrh	r3, [fp, #-38]	; 0xffffffda
200088bc:	e59f28a8 	ldr	r2, [pc, #2216]	; 2000916c <tcp_enqueue+0xcb0>
200088c0:	e1530002 	cmp	r3, r2
200088c4:	8a000207 	bhi	200090e8 <tcp_enqueue+0xc2c>
200088c8:	e51b3010 	ldr	r3, [fp, #-16]
200088cc:	e15b22b0 	ldrh	r2, [fp, #-32]	; 0xffffffe0
200088d0:	e1c320bc 	strh	r2, [r3, #12]
200088d4:	e51b3010 	ldr	r3, [fp, #-16]
200088d8:	e5933004 	ldr	r3, [r3, #4]
200088dc:	e3a01014 	mov	r1, #20
200088e0:	e1a00003 	mov	r0, r3
200088e4:	ebffe478 	bl	20001acc <pbuf_header>
200088e8:	e1a03000 	mov	r3, r0
200088ec:	e3530000 	cmp	r3, #0
200088f0:	0a000007 	beq	20008914 <tcp_enqueue+0x458>
200088f4:	e59f3874 	ldr	r3, [pc, #2164]	; 20009170 <tcp_enqueue+0xcb4>
200088f8:	e1d33ab4 	ldrh	r3, [r3, #164]	; 0xa4
200088fc:	e2833001 	add	r3, r3, #1
20008900:	e1a03803 	lsl	r3, r3, #16
20008904:	e1a03823 	lsr	r3, r3, #16
20008908:	e59f2860 	ldr	r2, [pc, #2144]	; 20009170 <tcp_enqueue+0xcb4>
2000890c:	e1c23ab4 	strh	r3, [r2, #164]	; 0xa4
20008910:	ea0001f4 	b	200090e8 <tcp_enqueue+0xc2c>
20008914:	e51b3010 	ldr	r3, [fp, #-16]
20008918:	e5933004 	ldr	r3, [r3, #4]
2000891c:	e5932004 	ldr	r2, [r3, #4]
20008920:	e51b3010 	ldr	r3, [fp, #-16]
20008924:	e5832010 	str	r2, [r3, #16]
20008928:	e51b3010 	ldr	r3, [fp, #-16]
2000892c:	e5934010 	ldr	r4, [r3, #16]
20008930:	e51b3038 	ldr	r3, [fp, #-56]	; 0xffffffc8
20008934:	e1d331b8 	ldrh	r3, [r3, #24]
20008938:	e1a00003 	mov	r0, r3
2000893c:	eb00124a 	bl	2000d26c <htons>
20008940:	e1a03000 	mov	r3, r0
20008944:	e20320ff 	and	r2, r3, #255	; 0xff
20008948:	e3a01000 	mov	r1, #0
2000894c:	e1812002 	orr	r2, r1, r2
20008950:	e5c42000 	strb	r2, [r4]
20008954:	e1a03423 	lsr	r3, r3, #8
20008958:	e1a03803 	lsl	r3, r3, #16
2000895c:	e1a03823 	lsr	r3, r3, #16
20008960:	e3a02000 	mov	r2, #0
20008964:	e1823003 	orr	r3, r2, r3
20008968:	e5c43001 	strb	r3, [r4, #1]
2000896c:	e51b3010 	ldr	r3, [fp, #-16]
20008970:	e5934010 	ldr	r4, [r3, #16]
20008974:	e51b3038 	ldr	r3, [fp, #-56]	; 0xffffffc8
20008978:	e1d332b0 	ldrh	r3, [r3, #32]
2000897c:	e1a00003 	mov	r0, r3
20008980:	eb001239 	bl	2000d26c <htons>
20008984:	e1a03000 	mov	r3, r0
20008988:	e20320ff 	and	r2, r3, #255	; 0xff
2000898c:	e3a01000 	mov	r1, #0
20008990:	e1812002 	orr	r2, r1, r2
20008994:	e5c42002 	strb	r2, [r4, #2]
20008998:	e1a03423 	lsr	r3, r3, #8
2000899c:	e1a03803 	lsl	r3, r3, #16
200089a0:	e1a03823 	lsr	r3, r3, #16
200089a4:	e3a02000 	mov	r2, #0
200089a8:	e1823003 	orr	r3, r2, r3
200089ac:	e5c43003 	strb	r3, [r4, #3]
200089b0:	e51b3010 	ldr	r3, [fp, #-16]
200089b4:	e5934010 	ldr	r4, [r3, #16]
200089b8:	e51b001c 	ldr	r0, [fp, #-28]	; 0xffffffe4
200089bc:	eb00124f 	bl	2000d300 <htonl>
200089c0:	e1a03000 	mov	r3, r0
200089c4:	e20320ff 	and	r2, r3, #255	; 0xff
200089c8:	e3a01000 	mov	r1, #0
200089cc:	e1812002 	orr	r2, r1, r2
200089d0:	e5c42004 	strb	r2, [r4, #4]
200089d4:	e1a02423 	lsr	r2, r3, #8
200089d8:	e20220ff 	and	r2, r2, #255	; 0xff
200089dc:	e3a01000 	mov	r1, #0
200089e0:	e1812002 	orr	r2, r1, r2
200089e4:	e5c42005 	strb	r2, [r4, #5]
200089e8:	e1a02823 	lsr	r2, r3, #16
200089ec:	e20220ff 	and	r2, r2, #255	; 0xff
200089f0:	e3a01000 	mov	r1, #0
200089f4:	e1812002 	orr	r2, r1, r2
200089f8:	e5c42006 	strb	r2, [r4, #6]
200089fc:	e1a03c23 	lsr	r3, r3, #24
20008a00:	e3a02000 	mov	r2, #0
20008a04:	e1823003 	orr	r3, r2, r3
20008a08:	e5c43007 	strb	r3, [r4, #7]
20008a0c:	e51b3010 	ldr	r3, [fp, #-16]
20008a10:	e5933010 	ldr	r3, [r3, #16]
20008a14:	e3a02000 	mov	r2, #0
20008a18:	e5c32012 	strb	r2, [r3, #18]
20008a1c:	e3a02000 	mov	r2, #0
20008a20:	e5c32013 	strb	r2, [r3, #19]
20008a24:	e51b3010 	ldr	r3, [fp, #-16]
20008a28:	e5934010 	ldr	r4, [r3, #16]
20008a2c:	e51b3010 	ldr	r3, [fp, #-16]
20008a30:	e5933010 	ldr	r3, [r3, #16]
20008a34:	e5d3200c 	ldrb	r2, [r3, #12]
20008a38:	e5d3300d 	ldrb	r3, [r3, #13]
20008a3c:	e1a03403 	lsl	r3, r3, #8
20008a40:	e1833002 	orr	r3, r3, r2
20008a44:	e1a03803 	lsl	r3, r3, #16
20008a48:	e1a05823 	lsr	r5, r3, #16
20008a4c:	e59f0720 	ldr	r0, [pc, #1824]	; 20009174 <tcp_enqueue+0xcb8>
20008a50:	eb001205 	bl	2000d26c <htons>
20008a54:	e1a03000 	mov	r3, r0
20008a58:	e0033005 	and	r3, r3, r5
20008a5c:	e1a03803 	lsl	r3, r3, #16
20008a60:	e1a05823 	lsr	r5, r3, #16
20008a64:	e55b303f 	ldrb	r3, [fp, #-63]	; 0xffffffc1
20008a68:	e1a03803 	lsl	r3, r3, #16
20008a6c:	e1a03823 	lsr	r3, r3, #16
20008a70:	e1a00003 	mov	r0, r3
20008a74:	eb0011fc 	bl	2000d26c <htons>
20008a78:	e1a03000 	mov	r3, r0
20008a7c:	e1853003 	orr	r3, r5, r3
20008a80:	e1a03803 	lsl	r3, r3, #16
20008a84:	e1a03823 	lsr	r3, r3, #16
20008a88:	e20320ff 	and	r2, r3, #255	; 0xff
20008a8c:	e3a01000 	mov	r1, #0
20008a90:	e1812002 	orr	r2, r1, r2
20008a94:	e5c4200c 	strb	r2, [r4, #12]
20008a98:	e1a03423 	lsr	r3, r3, #8
20008a9c:	e1a03803 	lsl	r3, r3, #16
20008aa0:	e1a03823 	lsr	r3, r3, #16
20008aa4:	e3a02000 	mov	r2, #0
20008aa8:	e1823003 	orr	r3, r2, r3
20008aac:	e5c4300d 	strb	r3, [r4, #13]
20008ab0:	e51b3010 	ldr	r3, [fp, #-16]
20008ab4:	e5db2008 	ldrb	r2, [fp, #8]
20008ab8:	e5c3200e 	strb	r2, [r3, #14]
20008abc:	e51b3010 	ldr	r3, [fp, #-16]
20008ac0:	e5934010 	ldr	r4, [r3, #16]
20008ac4:	e55b3027 	ldrb	r3, [fp, #-39]	; 0xffffffd9
20008ac8:	e1a03123 	lsr	r3, r3, #2
20008acc:	e20330ff 	and	r3, r3, #255	; 0xff
20008ad0:	e1a03803 	lsl	r3, r3, #16
20008ad4:	e1a03823 	lsr	r3, r3, #16
20008ad8:	e2833005 	add	r3, r3, #5
20008adc:	e1a03803 	lsl	r3, r3, #16
20008ae0:	e1a03823 	lsr	r3, r3, #16
20008ae4:	e1a03603 	lsl	r3, r3, #12
20008ae8:	e1a03803 	lsl	r3, r3, #16
20008aec:	e1a05823 	lsr	r5, r3, #16
20008af0:	e51b3010 	ldr	r3, [fp, #-16]
20008af4:	e5933010 	ldr	r3, [r3, #16]
20008af8:	e5d3200c 	ldrb	r2, [r3, #12]
20008afc:	e5d3300d 	ldrb	r3, [r3, #13]
20008b00:	e1a03403 	lsl	r3, r3, #8
20008b04:	e1833002 	orr	r3, r3, r2
20008b08:	e1a03803 	lsl	r3, r3, #16
20008b0c:	e1a03823 	lsr	r3, r3, #16
20008b10:	e1a00003 	mov	r0, r3
20008b14:	eb0011ec 	bl	2000d2cc <ntohs>
20008b18:	e1a03000 	mov	r3, r0
20008b1c:	e203303f 	and	r3, r3, #63	; 0x3f
20008b20:	e1a03803 	lsl	r3, r3, #16
20008b24:	e1a03823 	lsr	r3, r3, #16
20008b28:	e1853003 	orr	r3, r5, r3
20008b2c:	e1a03803 	lsl	r3, r3, #16
20008b30:	e1a03823 	lsr	r3, r3, #16
20008b34:	e1a00003 	mov	r0, r3
20008b38:	eb0011cb 	bl	2000d26c <htons>
20008b3c:	e1a03000 	mov	r3, r0
20008b40:	e20320ff 	and	r2, r3, #255	; 0xff
20008b44:	e3a01000 	mov	r1, #0
20008b48:	e1812002 	orr	r2, r1, r2
20008b4c:	e5c4200c 	strb	r2, [r4, #12]
20008b50:	e1a03423 	lsr	r3, r3, #8
20008b54:	e1a03803 	lsl	r3, r3, #16
20008b58:	e1a03823 	lsr	r3, r3, #16
20008b5c:	e3a02000 	mov	r2, #0
20008b60:	e1823003 	orr	r3, r2, r3
20008b64:	e5c4300d 	strb	r3, [r4, #13]
20008b68:	e15b21be 	ldrh	r2, [fp, #-30]	; 0xffffffe2
20008b6c:	e15b32b0 	ldrh	r3, [fp, #-32]	; 0xffffffe0
20008b70:	e0633002 	rsb	r3, r3, r2
20008b74:	e14b31be 	strh	r3, [fp, #-30]	; 0xffffffe2
20008b78:	e15b32b0 	ldrh	r3, [fp, #-32]	; 0xffffffe0
20008b7c:	e51b201c 	ldr	r2, [fp, #-28]	; 0xffffffe4
20008b80:	e0823003 	add	r3, r2, r3
20008b84:	e50b301c 	str	r3, [fp, #-28]	; 0xffffffe4
20008b88:	e15b32b0 	ldrh	r3, [fp, #-32]	; 0xffffffe0
20008b8c:	e51b2024 	ldr	r2, [fp, #-36]	; 0xffffffdc
20008b90:	e0823003 	add	r3, r2, r3
20008b94:	e50b3024 	str	r3, [fp, #-36]	; 0xffffffdc
20008b98:	e51b3018 	ldr	r3, [fp, #-24]	; 0xffffffe8
20008b9c:	e3530000 	cmp	r3, #0
20008ba0:	0afffeb2 	beq	20008670 <tcp_enqueue+0x1b4>
20008ba4:	e15b31be 	ldrh	r3, [fp, #-30]	; 0xffffffe2
20008ba8:	e3530000 	cmp	r3, #0
20008bac:	1afffeaf 	bne	20008670 <tcp_enqueue+0x1b4>
20008bb0:	e51b3038 	ldr	r3, [fp, #-56]	; 0xffffffc8
20008bb4:	e5933074 	ldr	r3, [r3, #116]	; 0x74
20008bb8:	e3530000 	cmp	r3, #0
20008bbc:	1a000002 	bne	20008bcc <tcp_enqueue+0x710>
20008bc0:	e3a03000 	mov	r3, #0
20008bc4:	e50b3014 	str	r3, [fp, #-20]	; 0xffffffec
20008bc8:	ea00000a 	b	20008bf8 <tcp_enqueue+0x73c>
20008bcc:	e51b3038 	ldr	r3, [fp, #-56]	; 0xffffffc8
20008bd0:	e5933074 	ldr	r3, [r3, #116]	; 0x74
20008bd4:	e50b3014 	str	r3, [fp, #-20]	; 0xffffffec
20008bd8:	ea000002 	b	20008be8 <tcp_enqueue+0x72c>
20008bdc:	e51b3014 	ldr	r3, [fp, #-20]	; 0xffffffec
20008be0:	e5933000 	ldr	r3, [r3]
20008be4:	e50b3014 	str	r3, [fp, #-20]	; 0xffffffec
20008be8:	e51b3014 	ldr	r3, [fp, #-20]	; 0xffffffec
20008bec:	e5933000 	ldr	r3, [r3]
20008bf0:	e3530000 	cmp	r3, #0
20008bf4:	1afffff8 	bne	20008bdc <tcp_enqueue+0x720>
20008bf8:	e51b3014 	ldr	r3, [fp, #-20]	; 0xffffffec
20008bfc:	e3530000 	cmp	r3, #0
20008c00:	0a0000d2 	beq	20008f50 <tcp_enqueue+0xa94>
20008c04:	e51b3014 	ldr	r3, [fp, #-20]	; 0xffffffec
20008c08:	e1d330bc 	ldrh	r3, [r3, #12]
20008c0c:	e1a04003 	mov	r4, r3
20008c10:	e51b3014 	ldr	r3, [fp, #-20]	; 0xffffffec
20008c14:	e5933010 	ldr	r3, [r3, #16]
20008c18:	e5d3200c 	ldrb	r2, [r3, #12]
20008c1c:	e5d3300d 	ldrb	r3, [r3, #13]
20008c20:	e1a03403 	lsl	r3, r3, #8
20008c24:	e1833002 	orr	r3, r3, r2
20008c28:	e1a03803 	lsl	r3, r3, #16
20008c2c:	e1a03823 	lsr	r3, r3, #16
20008c30:	e1a00003 	mov	r0, r3
20008c34:	eb0011a4 	bl	2000d2cc <ntohs>
20008c38:	e1a03000 	mov	r3, r0
20008c3c:	e2033003 	and	r3, r3, #3
20008c40:	e3530000 	cmp	r3, #0
20008c44:	13a03001 	movne	r3, #1
20008c48:	03a03000 	moveq	r3, #0
20008c4c:	e20330ff 	and	r3, r3, #255	; 0xff
20008c50:	e0843003 	add	r3, r4, r3
20008c54:	e3530000 	cmp	r3, #0
20008c58:	0a0000bc 	beq	20008f50 <tcp_enqueue+0xa94>
20008c5c:	e51b3014 	ldr	r3, [fp, #-20]	; 0xffffffec
20008c60:	e5933010 	ldr	r3, [r3, #16]
20008c64:	e5d3200c 	ldrb	r2, [r3, #12]
20008c68:	e5d3300d 	ldrb	r3, [r3, #13]
20008c6c:	e1a03403 	lsl	r3, r3, #8
20008c70:	e1833002 	orr	r3, r3, r2
20008c74:	e1a03803 	lsl	r3, r3, #16
20008c78:	e1a03823 	lsr	r3, r3, #16
20008c7c:	e1a00003 	mov	r0, r3
20008c80:	eb001191 	bl	2000d2cc <ntohs>
20008c84:	e1a03000 	mov	r3, r0
20008c88:	e2033003 	and	r3, r3, #3
20008c8c:	e3530000 	cmp	r3, #0
20008c90:	1a0000ae 	bne	20008f50 <tcp_enqueue+0xa94>
20008c94:	e55b303f 	ldrb	r3, [fp, #-63]	; 0xffffffc1
20008c98:	e2033003 	and	r3, r3, #3
20008c9c:	e3530000 	cmp	r3, #0
20008ca0:	0a000002 	beq	20008cb0 <tcp_enqueue+0x7f4>
20008ca4:	e55b303f 	ldrb	r3, [fp, #-63]	; 0xffffffc1
20008ca8:	e3530001 	cmp	r3, #1
20008cac:	1a0000a7 	bne	20008f50 <tcp_enqueue+0xa94>
20008cb0:	e51b3014 	ldr	r3, [fp, #-20]	; 0xffffffec
20008cb4:	e1d330bc 	ldrh	r3, [r3, #12]
20008cb8:	e1a02003 	mov	r2, r3
20008cbc:	e51b3018 	ldr	r3, [fp, #-24]	; 0xffffffe8
20008cc0:	e1d330bc 	ldrh	r3, [r3, #12]
20008cc4:	e0823003 	add	r3, r2, r3
20008cc8:	e51b2038 	ldr	r2, [fp, #-56]	; 0xffffffc8
20008ccc:	e1d223b8 	ldrh	r2, [r2, #56]	; 0x38
20008cd0:	e1530002 	cmp	r3, r2
20008cd4:	ca00009d 	bgt	20008f50 <tcp_enqueue+0xa94>
20008cd8:	e51b3014 	ldr	r3, [fp, #-20]	; 0xffffffec
20008cdc:	e5d3200e 	ldrb	r2, [r3, #14]
20008ce0:	e51b3018 	ldr	r3, [fp, #-24]	; 0xffffffe8
20008ce4:	e5d3300e 	ldrb	r3, [r3, #14]
20008ce8:	e1520003 	cmp	r2, r3
20008cec:	1a000097 	bne	20008f50 <tcp_enqueue+0xa94>
20008cf0:	e51b3014 	ldr	r3, [fp, #-20]	; 0xffffffec
20008cf4:	e5933010 	ldr	r3, [r3, #16]
20008cf8:	e5d32004 	ldrb	r2, [r3, #4]
20008cfc:	e5d31005 	ldrb	r1, [r3, #5]
20008d00:	e1a01401 	lsl	r1, r1, #8
20008d04:	e1812002 	orr	r2, r1, r2
20008d08:	e5d31006 	ldrb	r1, [r3, #6]
20008d0c:	e1a01801 	lsl	r1, r1, #16
20008d10:	e1812002 	orr	r2, r1, r2
20008d14:	e5d33007 	ldrb	r3, [r3, #7]
20008d18:	e1a03c03 	lsl	r3, r3, #24
20008d1c:	e1833002 	orr	r3, r3, r2
20008d20:	e1a00003 	mov	r0, r3
20008d24:	eb00118a 	bl	2000d354 <ntohl>
20008d28:	e1a02000 	mov	r2, r0
20008d2c:	e51b3014 	ldr	r3, [fp, #-20]	; 0xffffffec
20008d30:	e1d330bc 	ldrh	r3, [r3, #12]
20008d34:	e0824003 	add	r4, r2, r3
20008d38:	e51b3018 	ldr	r3, [fp, #-24]	; 0xffffffe8
20008d3c:	e5933010 	ldr	r3, [r3, #16]
20008d40:	e5d32004 	ldrb	r2, [r3, #4]
20008d44:	e5d31005 	ldrb	r1, [r3, #5]
20008d48:	e1a01401 	lsl	r1, r1, #8
20008d4c:	e1812002 	orr	r2, r1, r2
20008d50:	e5d31006 	ldrb	r1, [r3, #6]
20008d54:	e1a01801 	lsl	r1, r1, #16
20008d58:	e1812002 	orr	r2, r1, r2
20008d5c:	e5d33007 	ldrb	r3, [r3, #7]
20008d60:	e1a03c03 	lsl	r3, r3, #24
20008d64:	e1833002 	orr	r3, r3, r2
20008d68:	e1a00003 	mov	r0, r3
20008d6c:	eb001178 	bl	2000d354 <ntohl>
20008d70:	e1a03000 	mov	r3, r0
20008d74:	e1540003 	cmp	r4, r3
20008d78:	1a000074 	bne	20008f50 <tcp_enqueue+0xa94>
20008d7c:	e51b3018 	ldr	r3, [fp, #-24]	; 0xffffffe8
20008d80:	e5930004 	ldr	r0, [r3, #4]
20008d84:	e55b3027 	ldrb	r3, [fp, #-39]	; 0xffffffd9
20008d88:	e1a03803 	lsl	r3, r3, #16
20008d8c:	e1a02823 	lsr	r2, r3, #16
20008d90:	e3e03013 	mvn	r3, #19
20008d94:	e0623003 	rsb	r3, r2, r3
20008d98:	e1a03803 	lsl	r3, r3, #16
20008d9c:	e1a03823 	lsr	r3, r3, #16
20008da0:	e1a03803 	lsl	r3, r3, #16
20008da4:	e1a03823 	lsr	r3, r3, #16
20008da8:	e1a03803 	lsl	r3, r3, #16
20008dac:	e1a03843 	asr	r3, r3, #16
20008db0:	e1a01003 	mov	r1, r3
20008db4:	ebffe344 	bl	20001acc <pbuf_header>
20008db8:	e1a03000 	mov	r3, r0
20008dbc:	e3530000 	cmp	r3, #0
20008dc0:	0a000007 	beq	20008de4 <tcp_enqueue+0x928>
20008dc4:	e59f33a4 	ldr	r3, [pc, #932]	; 20009170 <tcp_enqueue+0xcb4>
20008dc8:	e1d33ab4 	ldrh	r3, [r3, #164]	; 0xa4
20008dcc:	e2833001 	add	r3, r3, #1
20008dd0:	e1a03803 	lsl	r3, r3, #16
20008dd4:	e1a03823 	lsr	r3, r3, #16
20008dd8:	e59f2390 	ldr	r2, [pc, #912]	; 20009170 <tcp_enqueue+0xcb4>
20008ddc:	e1c23ab4 	strh	r3, [r2, #164]	; 0xa4
20008de0:	ea0000c0 	b	200090e8 <tcp_enqueue+0xc2c>
20008de4:	e51b3018 	ldr	r3, [fp, #-24]	; 0xffffffe8
20008de8:	e5933004 	ldr	r3, [r3, #4]
20008dec:	e1d330ba 	ldrh	r3, [r3, #10]
20008df0:	e3530000 	cmp	r3, #0
20008df4:	1a00000f 	bne	20008e38 <tcp_enqueue+0x97c>
20008df8:	e51b3018 	ldr	r3, [fp, #-24]	; 0xffffffe8
20008dfc:	e5933004 	ldr	r3, [r3, #4]
20008e00:	e50b3030 	str	r3, [fp, #-48]	; 0xffffffd0
20008e04:	e51b3018 	ldr	r3, [fp, #-24]	; 0xffffffe8
20008e08:	e5933004 	ldr	r3, [r3, #4]
20008e0c:	e5932000 	ldr	r2, [r3]
20008e10:	e51b3018 	ldr	r3, [fp, #-24]	; 0xffffffe8
20008e14:	e5832004 	str	r2, [r3, #4]
20008e18:	e51b3030 	ldr	r3, [fp, #-48]	; 0xffffffd0
20008e1c:	e3a02000 	mov	r2, #0
20008e20:	e5832000 	str	r2, [r3]
20008e24:	e15b32b6 	ldrh	r3, [fp, #-38]	; 0xffffffda
20008e28:	e2433001 	sub	r3, r3, #1
20008e2c:	e14b32b6 	strh	r3, [fp, #-38]	; 0xffffffda
20008e30:	e51b0030 	ldr	r0, [fp, #-48]	; 0xffffffd0
20008e34:	ebffe38e 	bl	20001c74 <pbuf_free>
20008e38:	e55b303f 	ldrb	r3, [fp, #-63]	; 0xffffffc1
20008e3c:	e2033001 	and	r3, r3, #1
20008e40:	e3530000 	cmp	r3, #0
20008e44:	0a00001d 	beq	20008ec0 <tcp_enqueue+0xa04>
20008e48:	e51b3018 	ldr	r3, [fp, #-24]	; 0xffffffe8
20008e4c:	e5933004 	ldr	r3, [r3, #4]
20008e50:	e3530000 	cmp	r3, #0
20008e54:	e51b3014 	ldr	r3, [fp, #-20]	; 0xffffffec
20008e58:	e5934010 	ldr	r4, [r3, #16]
20008e5c:	e51b3014 	ldr	r3, [fp, #-20]	; 0xffffffec
20008e60:	e5933010 	ldr	r3, [r3, #16]
20008e64:	e5d3200c 	ldrb	r2, [r3, #12]
20008e68:	e5d3300d 	ldrb	r3, [r3, #13]
20008e6c:	e1a03403 	lsl	r3, r3, #8
20008e70:	e1833002 	orr	r3, r3, r2
20008e74:	e1a03803 	lsl	r3, r3, #16
20008e78:	e1a05823 	lsr	r5, r3, #16
20008e7c:	e3a00001 	mov	r0, #1
20008e80:	eb0010f9 	bl	2000d26c <htons>
20008e84:	e1a03000 	mov	r3, r0
20008e88:	e1853003 	orr	r3, r5, r3
20008e8c:	e1a03803 	lsl	r3, r3, #16
20008e90:	e1a03823 	lsr	r3, r3, #16
20008e94:	e20320ff 	and	r2, r3, #255	; 0xff
20008e98:	e3a01000 	mov	r1, #0
20008e9c:	e1812002 	orr	r2, r1, r2
20008ea0:	e5c4200c 	strb	r2, [r4, #12]
20008ea4:	e1a03423 	lsr	r3, r3, #8
20008ea8:	e1a03803 	lsl	r3, r3, #16
20008eac:	e1a03823 	lsr	r3, r3, #16
20008eb0:	e3a02000 	mov	r2, #0
20008eb4:	e1823003 	orr	r3, r2, r3
20008eb8:	e5c4300d 	strb	r3, [r4, #13]
20008ebc:	ea000016 	b	20008f1c <tcp_enqueue+0xa60>
20008ec0:	e51b3018 	ldr	r3, [fp, #-24]	; 0xffffffe8
20008ec4:	e5933004 	ldr	r3, [r3, #4]
20008ec8:	e3530000 	cmp	r3, #0
20008ecc:	e51b3014 	ldr	r3, [fp, #-20]	; 0xffffffec
20008ed0:	e5932004 	ldr	r2, [r3, #4]
20008ed4:	e51b3018 	ldr	r3, [fp, #-24]	; 0xffffffe8
20008ed8:	e5933004 	ldr	r3, [r3, #4]
20008edc:	e1a01003 	mov	r1, r3
20008ee0:	e1a00002 	mov	r0, r2
20008ee4:	ebffe3d6 	bl	20001e44 <pbuf_cat>
20008ee8:	e51b3014 	ldr	r3, [fp, #-20]	; 0xffffffec
20008eec:	e1d320bc 	ldrh	r2, [r3, #12]
20008ef0:	e51b3018 	ldr	r3, [fp, #-24]	; 0xffffffe8
20008ef4:	e1d330bc 	ldrh	r3, [r3, #12]
20008ef8:	e0823003 	add	r3, r2, r3
20008efc:	e1a03803 	lsl	r3, r3, #16
20008f00:	e1a02823 	lsr	r2, r3, #16
20008f04:	e51b3014 	ldr	r3, [fp, #-20]	; 0xffffffec
20008f08:	e1c320bc 	strh	r2, [r3, #12]
20008f0c:	e51b3018 	ldr	r3, [fp, #-24]	; 0xffffffe8
20008f10:	e5932000 	ldr	r2, [r3]
20008f14:	e51b3014 	ldr	r3, [fp, #-20]	; 0xffffffec
20008f18:	e5832000 	str	r2, [r3]
20008f1c:	e51b2010 	ldr	r2, [fp, #-16]
20008f20:	e51b3018 	ldr	r3, [fp, #-24]	; 0xffffffe8
20008f24:	e1520003 	cmp	r2, r3
20008f28:	1a000004 	bne	20008f40 <tcp_enqueue+0xa84>
20008f2c:	e51b3014 	ldr	r3, [fp, #-20]	; 0xffffffec
20008f30:	e50b3010 	str	r3, [fp, #-16]
20008f34:	e51b3014 	ldr	r3, [fp, #-20]	; 0xffffffec
20008f38:	e1d330bc 	ldrh	r3, [r3, #12]
20008f3c:	e14b32b0 	strh	r3, [fp, #-32]	; 0xffffffe0
20008f40:	e51b1018 	ldr	r1, [fp, #-24]	; 0xffffffe8
20008f44:	e3a00004 	mov	r0, #4
20008f48:	ebffdfb3 	bl	20000e1c <memp_free>
20008f4c:	ea000009 	b	20008f78 <tcp_enqueue+0xabc>
20008f50:	e51b3014 	ldr	r3, [fp, #-20]	; 0xffffffec
20008f54:	e3530000 	cmp	r3, #0
20008f58:	1a000003 	bne	20008f6c <tcp_enqueue+0xab0>
20008f5c:	e51b3038 	ldr	r3, [fp, #-56]	; 0xffffffc8
20008f60:	e51b2018 	ldr	r2, [fp, #-24]	; 0xffffffe8
20008f64:	e5832074 	str	r2, [r3, #116]	; 0x74
20008f68:	ea000002 	b	20008f78 <tcp_enqueue+0xabc>
20008f6c:	e51b3014 	ldr	r3, [fp, #-20]	; 0xffffffec
20008f70:	e51b2018 	ldr	r2, [fp, #-24]	; 0xffffffe8
20008f74:	e5832000 	str	r2, [r3]
20008f78:	e55b303f 	ldrb	r3, [fp, #-63]	; 0xffffffc1
20008f7c:	e2033002 	and	r3, r3, #2
20008f80:	e3530000 	cmp	r3, #0
20008f84:	1a000003 	bne	20008f98 <tcp_enqueue+0xadc>
20008f88:	e55b303f 	ldrb	r3, [fp, #-63]	; 0xffffffc1
20008f8c:	e2033001 	and	r3, r3, #1
20008f90:	e3530000 	cmp	r3, #0
20008f94:	0a000002 	beq	20008fa4 <tcp_enqueue+0xae8>
20008f98:	e15b33be 	ldrh	r3, [fp, #-62]	; 0xffffffc2
20008f9c:	e2833001 	add	r3, r3, #1
20008fa0:	e14b33be 	strh	r3, [fp, #-62]	; 0xffffffc2
20008fa4:	e55b303f 	ldrb	r3, [fp, #-63]	; 0xffffffc1
20008fa8:	e2033001 	and	r3, r3, #1
20008fac:	e3530000 	cmp	r3, #0
20008fb0:	0a000005 	beq	20008fcc <tcp_enqueue+0xb10>
20008fb4:	e51b3038 	ldr	r3, [fp, #-56]	; 0xffffffc8
20008fb8:	e5d33022 	ldrb	r3, [r3, #34]	; 0x22
20008fbc:	e3833020 	orr	r3, r3, #32
20008fc0:	e20320ff 	and	r2, r3, #255	; 0xff
20008fc4:	e51b3038 	ldr	r3, [fp, #-56]	; 0xffffffc8
20008fc8:	e5c32022 	strb	r2, [r3, #34]	; 0x22
20008fcc:	e51b3038 	ldr	r3, [fp, #-56]	; 0xffffffc8
20008fd0:	e5932068 	ldr	r2, [r3, #104]	; 0x68
20008fd4:	e15b33be 	ldrh	r3, [fp, #-62]	; 0xffffffc2
20008fd8:	e0822003 	add	r2, r2, r3
20008fdc:	e51b3038 	ldr	r3, [fp, #-56]	; 0xffffffc8
20008fe0:	e5832068 	str	r2, [r3, #104]	; 0x68
20008fe4:	e51b3038 	ldr	r3, [fp, #-56]	; 0xffffffc8
20008fe8:	e1d326be 	ldrh	r2, [r3, #110]	; 0x6e
20008fec:	e15b33be 	ldrh	r3, [fp, #-62]	; 0xffffffc2
20008ff0:	e0633002 	rsb	r3, r3, r2
20008ff4:	e1a03803 	lsl	r3, r3, #16
20008ff8:	e1a02823 	lsr	r2, r3, #16
20008ffc:	e51b3038 	ldr	r3, [fp, #-56]	; 0xffffffc8
20009000:	e1c326be 	strh	r2, [r3, #110]	; 0x6e
20009004:	e51b3038 	ldr	r3, [fp, #-56]	; 0xffffffc8
20009008:	e15b22b6 	ldrh	r2, [fp, #-38]	; 0xffffffda
2000900c:	e1c327b0 	strh	r2, [r3, #112]	; 0x70
20009010:	e51b3038 	ldr	r3, [fp, #-56]	; 0xffffffc8
20009014:	e1d337b0 	ldrh	r3, [r3, #112]	; 0x70
20009018:	e3530000 	cmp	r3, #0
2000901c:	0a000002 	beq	2000902c <tcp_enqueue+0xb70>
20009020:	e51b3038 	ldr	r3, [fp, #-56]	; 0xffffffc8
20009024:	e5933078 	ldr	r3, [r3, #120]	; 0x78
20009028:	e3530000 	cmp	r3, #0
2000902c:	e51b3010 	ldr	r3, [fp, #-16]
20009030:	e3530000 	cmp	r3, #0
20009034:	0a000024 	beq	200090cc <tcp_enqueue+0xc10>
20009038:	e15b32b0 	ldrh	r3, [fp, #-32]	; 0xffffffe0
2000903c:	e3530000 	cmp	r3, #0
20009040:	0a000021 	beq	200090cc <tcp_enqueue+0xc10>
20009044:	e51b3010 	ldr	r3, [fp, #-16]
20009048:	e5933010 	ldr	r3, [r3, #16]
2000904c:	e3530000 	cmp	r3, #0
20009050:	0a00001d 	beq	200090cc <tcp_enqueue+0xc10>
20009054:	e5db3004 	ldrb	r3, [fp, #4]
20009058:	e2033002 	and	r3, r3, #2
2000905c:	e3530000 	cmp	r3, #0
20009060:	1a000019 	bne	200090cc <tcp_enqueue+0xc10>
20009064:	e51b3010 	ldr	r3, [fp, #-16]
20009068:	e5934010 	ldr	r4, [r3, #16]
2000906c:	e51b3010 	ldr	r3, [fp, #-16]
20009070:	e5933010 	ldr	r3, [r3, #16]
20009074:	e5d3200c 	ldrb	r2, [r3, #12]
20009078:	e5d3300d 	ldrb	r3, [r3, #13]
2000907c:	e1a03403 	lsl	r3, r3, #8
20009080:	e1833002 	orr	r3, r3, r2
20009084:	e1a03803 	lsl	r3, r3, #16
20009088:	e1a05823 	lsr	r5, r3, #16
2000908c:	e3a00008 	mov	r0, #8
20009090:	eb001075 	bl	2000d26c <htons>
20009094:	e1a03000 	mov	r3, r0
20009098:	e1853003 	orr	r3, r5, r3
2000909c:	e1a03803 	lsl	r3, r3, #16
200090a0:	e1a03823 	lsr	r3, r3, #16
200090a4:	e20320ff 	and	r2, r3, #255	; 0xff
200090a8:	e3a01000 	mov	r1, #0
200090ac:	e1812002 	orr	r2, r1, r2
200090b0:	e5c4200c 	strb	r2, [r4, #12]
200090b4:	e1a03423 	lsr	r3, r3, #8
200090b8:	e1a03803 	lsl	r3, r3, #16
200090bc:	e1a03823 	lsr	r3, r3, #16
200090c0:	e3a02000 	mov	r2, #0
200090c4:	e1823003 	orr	r3, r2, r3
200090c8:	e5c4300d 	strb	r3, [r4, #13]
200090cc:	e3a03000 	mov	r3, #0
200090d0:	ea00001f 	b	20009154 <tcp_enqueue+0xc98>
200090d4:	e1a00000 	nop			; (mov r0, r0)
200090d8:	ea000002 	b	200090e8 <tcp_enqueue+0xc2c>
200090dc:	e1a00000 	nop			; (mov r0, r0)
200090e0:	ea000000 	b	200090e8 <tcp_enqueue+0xc2c>
200090e4:	e1a00000 	nop			; (mov r0, r0)
200090e8:	e51b3038 	ldr	r3, [fp, #-56]	; 0xffffffc8
200090ec:	e5d33022 	ldrb	r3, [r3, #34]	; 0x22
200090f0:	e1e03c83 	mvn	r3, r3, lsl #25
200090f4:	e1e03ca3 	mvn	r3, r3, lsr #25
200090f8:	e20320ff 	and	r2, r3, #255	; 0xff
200090fc:	e51b3038 	ldr	r3, [fp, #-56]	; 0xffffffc8
20009100:	e5c32022 	strb	r2, [r3, #34]	; 0x22
20009104:	e59f3064 	ldr	r3, [pc, #100]	; 20009170 <tcp_enqueue+0xcb4>
20009108:	e1d339bc 	ldrh	r3, [r3, #156]	; 0x9c
2000910c:	e2833001 	add	r3, r3, #1
20009110:	e1a03803 	lsl	r3, r3, #16
20009114:	e1a03823 	lsr	r3, r3, #16
20009118:	e59f2050 	ldr	r2, [pc, #80]	; 20009170 <tcp_enqueue+0xcb4>
2000911c:	e1c239bc 	strh	r3, [r2, #156]	; 0x9c
20009120:	e51b3018 	ldr	r3, [fp, #-24]	; 0xffffffe8
20009124:	e3530000 	cmp	r3, #0
20009128:	0a000001 	beq	20009134 <tcp_enqueue+0xc78>
2000912c:	e51b0018 	ldr	r0, [fp, #-24]	; 0xffffffe8
20009130:	ebffec64 	bl	200042c8 <tcp_segs_free>
20009134:	e51b3038 	ldr	r3, [fp, #-56]	; 0xffffffc8
20009138:	e1d337b0 	ldrh	r3, [r3, #112]	; 0x70
2000913c:	e3530000 	cmp	r3, #0
20009140:	0a000002 	beq	20009150 <tcp_enqueue+0xc94>
20009144:	e51b3038 	ldr	r3, [fp, #-56]	; 0xffffffc8
20009148:	e5933078 	ldr	r3, [r3, #120]	; 0x78
2000914c:	e3530000 	cmp	r3, #0
20009150:	e3a030ff 	mov	r3, #255	; 0xff
20009154:	e1a03c03 	lsl	r3, r3, #24
20009158:	e1a03c43 	asr	r3, r3, #24
2000915c:	e1a00003 	mov	r0, r3
20009160:	e24bd00c 	sub	sp, fp, #12
20009164:	e8bd4830 	pop	{r4, r5, fp, lr}
20009168:	e12fff1e 	bx	lr
2000916c:	0000fffc 	.word	0x0000fffc
20009170:	20015630 	.word	0x20015630
20009174:	0000ffc0 	.word	0x0000ffc0

20009178 <tcp_send_empty_ack>:
20009178:	e92d4810 	push	{r4, fp, lr}
2000917c:	e28db008 	add	fp, sp, #8
20009180:	e24dd024 	sub	sp, sp, #36	; 0x24
20009184:	e50b0020 	str	r0, [fp, #-32]	; 0xffffffe0
20009188:	e3a03000 	mov	r3, #0
2000918c:	e54b300d 	strb	r3, [fp, #-13]
20009190:	e55b300d 	ldrb	r3, [fp, #-13]
20009194:	e1a03803 	lsl	r3, r3, #16
20009198:	e1a03823 	lsr	r3, r3, #16
2000919c:	e2833014 	add	r3, r3, #20
200091a0:	e1a03803 	lsl	r3, r3, #16
200091a4:	e1a03823 	lsr	r3, r3, #16
200091a8:	e3a02000 	mov	r2, #0
200091ac:	e1a01003 	mov	r1, r3
200091b0:	e3a00001 	mov	r0, #1
200091b4:	ebffe0f6 	bl	20001594 <pbuf_alloc>
200091b8:	e50b0014 	str	r0, [fp, #-20]	; 0xffffffec
200091bc:	e51b3014 	ldr	r3, [fp, #-20]	; 0xffffffec
200091c0:	e3530000 	cmp	r3, #0
200091c4:	1a000001 	bne	200091d0 <tcp_send_empty_ack+0x58>
200091c8:	e3a030fe 	mov	r3, #254	; 0xfe
200091cc:	ea000037 	b	200092b0 <tcp_send_empty_ack+0x138>
200091d0:	e51b3020 	ldr	r3, [fp, #-32]	; 0xffffffe0
200091d4:	e5d33022 	ldrb	r3, [r3, #34]	; 0x22
200091d8:	e3c33003 	bic	r3, r3, #3
200091dc:	e20320ff 	and	r2, r3, #255	; 0xff
200091e0:	e51b3020 	ldr	r3, [fp, #-32]	; 0xffffffe0
200091e4:	e5c32022 	strb	r2, [r3, #34]	; 0x22
200091e8:	e55b400d 	ldrb	r4, [fp, #-13]
200091ec:	e51b3020 	ldr	r3, [fp, #-32]	; 0xffffffe0
200091f0:	e5933058 	ldr	r3, [r3, #88]	; 0x58
200091f4:	e1a00003 	mov	r0, r3
200091f8:	eb001040 	bl	2000d300 <htonl>
200091fc:	e1a03000 	mov	r3, r0
20009200:	e1a02004 	mov	r2, r4
20009204:	e51b1014 	ldr	r1, [fp, #-20]	; 0xffffffec
20009208:	e51b0020 	ldr	r0, [fp, #-32]	; 0xffffffe0
2000920c:	ebfffb9f 	bl	20008090 <tcp_output_set_header>
20009210:	e50b0018 	str	r0, [fp, #-24]	; 0xffffffe8
20009214:	e51b1020 	ldr	r1, [fp, #-32]	; 0xffffffe0
20009218:	e51b3020 	ldr	r3, [fp, #-32]	; 0xffffffe0
2000921c:	e2832004 	add	r2, r3, #4
20009220:	e51b3014 	ldr	r3, [fp, #-20]	; 0xffffffec
20009224:	e1d330b8 	ldrh	r3, [r3, #8]
20009228:	e58d3000 	str	r3, [sp]
2000922c:	e3a03006 	mov	r3, #6
20009230:	e51b0014 	ldr	r0, [fp, #-20]	; 0xffffffec
20009234:	eb001673 	bl	2000ec08 <inet_chksum_pseudo>
20009238:	e1a03000 	mov	r3, r0
2000923c:	e1a02003 	mov	r2, r3
20009240:	e51b3018 	ldr	r3, [fp, #-24]	; 0xffffffe8
20009244:	e20210ff 	and	r1, r2, #255	; 0xff
20009248:	e3a00000 	mov	r0, #0
2000924c:	e1801001 	orr	r1, r0, r1
20009250:	e5c31010 	strb	r1, [r3, #16]
20009254:	e1a02422 	lsr	r2, r2, #8
20009258:	e1a02802 	lsl	r2, r2, #16
2000925c:	e1a02822 	lsr	r2, r2, #16
20009260:	e3a01000 	mov	r1, #0
20009264:	e1812002 	orr	r2, r1, r2
20009268:	e5c32011 	strb	r2, [r3, #17]
2000926c:	e51b1020 	ldr	r1, [fp, #-32]	; 0xffffffe0
20009270:	e51b3020 	ldr	r3, [fp, #-32]	; 0xffffffe0
20009274:	e2830004 	add	r0, r3, #4
20009278:	e51b3020 	ldr	r3, [fp, #-32]	; 0xffffffe0
2000927c:	e5d3c00b 	ldrb	ip, [r3, #11]
20009280:	e51b3020 	ldr	r3, [fp, #-32]	; 0xffffffe0
20009284:	e5d3300a 	ldrb	r3, [r3, #10]
20009288:	e3a02006 	mov	r2, #6
2000928c:	e58d2004 	str	r2, [sp, #4]
20009290:	e58d3000 	str	r3, [sp]
20009294:	e1a0300c 	mov	r3, ip
20009298:	e1a02000 	mov	r2, r0
2000929c:	e51b0014 	ldr	r0, [fp, #-20]	; 0xffffffec
200092a0:	eb000e78 	bl	2000cc88 <ip_output>
200092a4:	e51b0014 	ldr	r0, [fp, #-20]	; 0xffffffec
200092a8:	ebffe271 	bl	20001c74 <pbuf_free>
200092ac:	e3a03000 	mov	r3, #0
200092b0:	e1a03c03 	lsl	r3, r3, #24
200092b4:	e1a03c43 	asr	r3, r3, #24
200092b8:	e1a00003 	mov	r0, r3
200092bc:	e24bd008 	sub	sp, fp, #8
200092c0:	e8bd4810 	pop	{r4, fp, lr}
200092c4:	e12fff1e 	bx	lr

200092c8 <tcp_output>:
200092c8:	e92d4830 	push	{r4, r5, fp, lr}
200092cc:	e28db00c 	add	fp, sp, #12
200092d0:	e24dd020 	sub	sp, sp, #32
200092d4:	e50b0028 	str	r0, [fp, #-40]	; 0xffffffd8
200092d8:	e59f3680 	ldr	r3, [pc, #1664]	; 20009960 <tcp_output+0x698>
200092dc:	e5932000 	ldr	r2, [r3]
200092e0:	e51b3028 	ldr	r3, [fp, #-40]	; 0xffffffd8
200092e4:	e1520003 	cmp	r2, r3
200092e8:	1a000001 	bne	200092f4 <tcp_output+0x2c>
200092ec:	e3a03000 	mov	r3, #0
200092f0:	ea000194 	b	20009948 <tcp_output+0x680>
200092f4:	e51b3028 	ldr	r3, [fp, #-40]	; 0xffffffd8
200092f8:	e1d325b2 	ldrh	r2, [r3, #82]	; 0x52
200092fc:	e51b3028 	ldr	r3, [fp, #-40]	; 0xffffffd8
20009300:	e1d335bc 	ldrh	r3, [r3, #92]	; 0x5c
20009304:	e1520003 	cmp	r2, r3
20009308:	31a03002 	movcc	r3, r2
2000930c:	21a03003 	movcs	r3, r3
20009310:	e1a03803 	lsl	r3, r3, #16
20009314:	e1a03823 	lsr	r3, r3, #16
20009318:	e50b301c 	str	r3, [fp, #-28]	; 0xffffffe4
2000931c:	e51b3028 	ldr	r3, [fp, #-40]	; 0xffffffd8
20009320:	e5933074 	ldr	r3, [r3, #116]	; 0x74
20009324:	e50b3010 	str	r3, [fp, #-16]
20009328:	e51b3028 	ldr	r3, [fp, #-40]	; 0xffffffd8
2000932c:	e5d33022 	ldrb	r3, [r3, #34]	; 0x22
20009330:	e2033002 	and	r3, r3, #2
20009334:	e3530000 	cmp	r3, #0
20009338:	0a00001e 	beq	200093b8 <tcp_output+0xf0>
2000933c:	e51b3010 	ldr	r3, [fp, #-16]
20009340:	e3530000 	cmp	r3, #0
20009344:	0a000017 	beq	200093a8 <tcp_output+0xe0>
20009348:	e51b3010 	ldr	r3, [fp, #-16]
2000934c:	e5933010 	ldr	r3, [r3, #16]
20009350:	e5d32004 	ldrb	r2, [r3, #4]
20009354:	e5d31005 	ldrb	r1, [r3, #5]
20009358:	e1a01401 	lsl	r1, r1, #8
2000935c:	e1812002 	orr	r2, r1, r2
20009360:	e5d31006 	ldrb	r1, [r3, #6]
20009364:	e1a01801 	lsl	r1, r1, #16
20009368:	e1812002 	orr	r2, r1, r2
2000936c:	e5d33007 	ldrb	r3, [r3, #7]
20009370:	e1a03c03 	lsl	r3, r3, #24
20009374:	e1833002 	orr	r3, r3, r2
20009378:	e1a00003 	mov	r0, r3
2000937c:	eb000ff4 	bl	2000d354 <ntohl>
20009380:	e1a02000 	mov	r2, r0
20009384:	e51b3028 	ldr	r3, [fp, #-40]	; 0xffffffd8
20009388:	e593304c 	ldr	r3, [r3, #76]	; 0x4c
2000938c:	e0633002 	rsb	r3, r3, r2
20009390:	e51b2010 	ldr	r2, [fp, #-16]
20009394:	e1d220bc 	ldrh	r2, [r2, #12]
20009398:	e0832002 	add	r2, r3, r2
2000939c:	e51b301c 	ldr	r3, [fp, #-28]	; 0xffffffe4
200093a0:	e1520003 	cmp	r2, r3
200093a4:	9a000003 	bls	200093b8 <tcp_output+0xf0>
200093a8:	e51b0028 	ldr	r0, [fp, #-40]	; 0xffffffd8
200093ac:	ebffff71 	bl	20009178 <tcp_send_empty_ack>
200093b0:	e1a03000 	mov	r3, r0
200093b4:	ea000163 	b	20009948 <tcp_output+0x680>
200093b8:	e51b3028 	ldr	r3, [fp, #-40]	; 0xffffffd8
200093bc:	e5933078 	ldr	r3, [r3, #120]	; 0x78
200093c0:	e50b3014 	str	r3, [fp, #-20]	; 0xffffffec
200093c4:	e51b3014 	ldr	r3, [fp, #-20]	; 0xffffffec
200093c8:	e3530000 	cmp	r3, #0
200093cc:	0a000113 	beq	20009820 <tcp_output+0x558>
200093d0:	ea000002 	b	200093e0 <tcp_output+0x118>
200093d4:	e51b3014 	ldr	r3, [fp, #-20]	; 0xffffffec
200093d8:	e5933000 	ldr	r3, [r3]
200093dc:	e50b3014 	str	r3, [fp, #-20]	; 0xffffffec
200093e0:	e51b3014 	ldr	r3, [fp, #-20]	; 0xffffffec
200093e4:	e5933000 	ldr	r3, [r3]
200093e8:	e3530000 	cmp	r3, #0
200093ec:	1afffff8 	bne	200093d4 <tcp_output+0x10c>
200093f0:	ea00010a 	b	20009820 <tcp_output+0x558>
200093f4:	e51b3010 	ldr	r3, [fp, #-16]
200093f8:	e5933010 	ldr	r3, [r3, #16]
200093fc:	e5d3200c 	ldrb	r2, [r3, #12]
20009400:	e5d3300d 	ldrb	r3, [r3, #13]
20009404:	e1a03403 	lsl	r3, r3, #8
20009408:	e1833002 	orr	r3, r3, r2
2000940c:	e1a03803 	lsl	r3, r3, #16
20009410:	e1a03823 	lsr	r3, r3, #16
20009414:	e1a00003 	mov	r0, r3
20009418:	eb000fab 	bl	2000d2cc <ntohs>
2000941c:	e51b3028 	ldr	r3, [fp, #-40]	; 0xffffffd8
20009420:	e5933078 	ldr	r3, [r3, #120]	; 0x78
20009424:	e3530000 	cmp	r3, #0
20009428:	0a000014 	beq	20009480 <tcp_output+0x1b8>
2000942c:	e51b3028 	ldr	r3, [fp, #-40]	; 0xffffffd8
20009430:	e5d33022 	ldrb	r3, [r3, #34]	; 0x22
20009434:	e2033044 	and	r3, r3, #68	; 0x44
20009438:	e3530000 	cmp	r3, #0
2000943c:	1a00000f 	bne	20009480 <tcp_output+0x1b8>
20009440:	e51b3028 	ldr	r3, [fp, #-40]	; 0xffffffd8
20009444:	e5933074 	ldr	r3, [r3, #116]	; 0x74
20009448:	e3530000 	cmp	r3, #0
2000944c:	0a00000d 	beq	20009488 <tcp_output+0x1c0>
20009450:	e51b3028 	ldr	r3, [fp, #-40]	; 0xffffffd8
20009454:	e5933074 	ldr	r3, [r3, #116]	; 0x74
20009458:	e5933000 	ldr	r3, [r3]
2000945c:	e3530000 	cmp	r3, #0
20009460:	1a000006 	bne	20009480 <tcp_output+0x1b8>
20009464:	e51b3028 	ldr	r3, [fp, #-40]	; 0xffffffd8
20009468:	e5933074 	ldr	r3, [r3, #116]	; 0x74
2000946c:	e1d320bc 	ldrh	r2, [r3, #12]
20009470:	e51b3028 	ldr	r3, [fp, #-40]	; 0xffffffd8
20009474:	e1d333b8 	ldrh	r3, [r3, #56]	; 0x38
20009478:	e1520003 	cmp	r2, r3
2000947c:	3a000001 	bcc	20009488 <tcp_output+0x1c0>
20009480:	e3a03001 	mov	r3, #1
20009484:	ea000000 	b	2000948c <tcp_output+0x1c4>
20009488:	e3a03000 	mov	r3, #0
2000948c:	e3530000 	cmp	r3, #0
20009490:	1a000004 	bne	200094a8 <tcp_output+0x1e0>
20009494:	e51b3028 	ldr	r3, [fp, #-40]	; 0xffffffd8
20009498:	e5d33022 	ldrb	r3, [r3, #34]	; 0x22
2000949c:	e20330a0 	and	r3, r3, #160	; 0xa0
200094a0:	e3530000 	cmp	r3, #0
200094a4:	0a0000f9 	beq	20009890 <tcp_output+0x5c8>
200094a8:	e51b3010 	ldr	r3, [fp, #-16]
200094ac:	e5932000 	ldr	r2, [r3]
200094b0:	e51b3028 	ldr	r3, [fp, #-40]	; 0xffffffd8
200094b4:	e5832074 	str	r2, [r3, #116]	; 0x74
200094b8:	e51b3028 	ldr	r3, [fp, #-40]	; 0xffffffd8
200094bc:	e5d33010 	ldrb	r3, [r3, #16]
200094c0:	e3530002 	cmp	r3, #2
200094c4:	0a00001f 	beq	20009548 <tcp_output+0x280>
200094c8:	e51b3010 	ldr	r3, [fp, #-16]
200094cc:	e5934010 	ldr	r4, [r3, #16]
200094d0:	e51b3010 	ldr	r3, [fp, #-16]
200094d4:	e5933010 	ldr	r3, [r3, #16]
200094d8:	e5d3200c 	ldrb	r2, [r3, #12]
200094dc:	e5d3300d 	ldrb	r3, [r3, #13]
200094e0:	e1a03403 	lsl	r3, r3, #8
200094e4:	e1833002 	orr	r3, r3, r2
200094e8:	e1a03803 	lsl	r3, r3, #16
200094ec:	e1a05823 	lsr	r5, r3, #16
200094f0:	e3a00010 	mov	r0, #16
200094f4:	eb000f5c 	bl	2000d26c <htons>
200094f8:	e1a03000 	mov	r3, r0
200094fc:	e1853003 	orr	r3, r5, r3
20009500:	e1a03803 	lsl	r3, r3, #16
20009504:	e1a03823 	lsr	r3, r3, #16
20009508:	e20320ff 	and	r2, r3, #255	; 0xff
2000950c:	e3a01000 	mov	r1, #0
20009510:	e1812002 	orr	r2, r1, r2
20009514:	e5c4200c 	strb	r2, [r4, #12]
20009518:	e1a03423 	lsr	r3, r3, #8
2000951c:	e1a03803 	lsl	r3, r3, #16
20009520:	e1a03823 	lsr	r3, r3, #16
20009524:	e3a02000 	mov	r2, #0
20009528:	e1823003 	orr	r3, r2, r3
2000952c:	e5c4300d 	strb	r3, [r4, #13]
20009530:	e51b3028 	ldr	r3, [fp, #-40]	; 0xffffffd8
20009534:	e5d33022 	ldrb	r3, [r3, #34]	; 0x22
20009538:	e3c33003 	bic	r3, r3, #3
2000953c:	e20320ff 	and	r2, r3, #255	; 0xff
20009540:	e51b3028 	ldr	r3, [fp, #-40]	; 0xffffffd8
20009544:	e5c32022 	strb	r2, [r3, #34]	; 0x22
20009548:	e51b1028 	ldr	r1, [fp, #-40]	; 0xffffffd8
2000954c:	e51b0010 	ldr	r0, [fp, #-16]
20009550:	eb000103 	bl	20009964 <tcp_output_segment>
20009554:	e51b3010 	ldr	r3, [fp, #-16]
20009558:	e5933010 	ldr	r3, [r3, #16]
2000955c:	e5d32004 	ldrb	r2, [r3, #4]
20009560:	e5d31005 	ldrb	r1, [r3, #5]
20009564:	e1a01401 	lsl	r1, r1, #8
20009568:	e1812002 	orr	r2, r1, r2
2000956c:	e5d31006 	ldrb	r1, [r3, #6]
20009570:	e1a01801 	lsl	r1, r1, #16
20009574:	e1812002 	orr	r2, r1, r2
20009578:	e5d33007 	ldrb	r3, [r3, #7]
2000957c:	e1a03c03 	lsl	r3, r3, #24
20009580:	e1833002 	orr	r3, r3, r2
20009584:	e1a00003 	mov	r0, r3
20009588:	eb000f71 	bl	2000d354 <ntohl>
2000958c:	e1a04000 	mov	r4, r0
20009590:	e51b3010 	ldr	r3, [fp, #-16]
20009594:	e1d330bc 	ldrh	r3, [r3, #12]
20009598:	e1a05003 	mov	r5, r3
2000959c:	e51b3010 	ldr	r3, [fp, #-16]
200095a0:	e5933010 	ldr	r3, [r3, #16]
200095a4:	e5d3200c 	ldrb	r2, [r3, #12]
200095a8:	e5d3300d 	ldrb	r3, [r3, #13]
200095ac:	e1a03403 	lsl	r3, r3, #8
200095b0:	e1833002 	orr	r3, r3, r2
200095b4:	e1a03803 	lsl	r3, r3, #16
200095b8:	e1a03823 	lsr	r3, r3, #16
200095bc:	e1a00003 	mov	r0, r3
200095c0:	eb000f41 	bl	2000d2cc <ntohs>
200095c4:	e1a03000 	mov	r3, r0
200095c8:	e2033003 	and	r3, r3, #3
200095cc:	e3530000 	cmp	r3, #0
200095d0:	13a03001 	movne	r3, #1
200095d4:	03a03000 	moveq	r3, #0
200095d8:	e20330ff 	and	r3, r3, #255	; 0xff
200095dc:	e0853003 	add	r3, r5, r3
200095e0:	e0843003 	add	r3, r4, r3
200095e4:	e50b3020 	str	r3, [fp, #-32]	; 0xffffffe0
200095e8:	e51b3028 	ldr	r3, [fp, #-40]	; 0xffffffd8
200095ec:	e5932058 	ldr	r2, [r3, #88]	; 0x58
200095f0:	e51b3020 	ldr	r3, [fp, #-32]	; 0xffffffe0
200095f4:	e0633002 	rsb	r3, r3, r2
200095f8:	e3530000 	cmp	r3, #0
200095fc:	aa000002 	bge	2000960c <tcp_output+0x344>
20009600:	e51b3028 	ldr	r3, [fp, #-40]	; 0xffffffd8
20009604:	e51b2020 	ldr	r2, [fp, #-32]	; 0xffffffe0
20009608:	e5832058 	str	r2, [r3, #88]	; 0x58
2000960c:	e51b3010 	ldr	r3, [fp, #-16]
20009610:	e1d330bc 	ldrh	r3, [r3, #12]
20009614:	e1a04003 	mov	r4, r3
20009618:	e51b3010 	ldr	r3, [fp, #-16]
2000961c:	e5933010 	ldr	r3, [r3, #16]
20009620:	e5d3200c 	ldrb	r2, [r3, #12]
20009624:	e5d3300d 	ldrb	r3, [r3, #13]
20009628:	e1a03403 	lsl	r3, r3, #8
2000962c:	e1833002 	orr	r3, r3, r2
20009630:	e1a03803 	lsl	r3, r3, #16
20009634:	e1a03823 	lsr	r3, r3, #16
20009638:	e1a00003 	mov	r0, r3
2000963c:	eb000f22 	bl	2000d2cc <ntohs>
20009640:	e1a03000 	mov	r3, r0
20009644:	e2033003 	and	r3, r3, #3
20009648:	e3530000 	cmp	r3, #0
2000964c:	13a03001 	movne	r3, #1
20009650:	03a03000 	moveq	r3, #0
20009654:	e20330ff 	and	r3, r3, #255	; 0xff
20009658:	e0843003 	add	r3, r4, r3
2000965c:	e3530000 	cmp	r3, #0
20009660:	da000069 	ble	2000980c <tcp_output+0x544>
20009664:	e51b3010 	ldr	r3, [fp, #-16]
20009668:	e3a02000 	mov	r2, #0
2000966c:	e5832000 	str	r2, [r3]
20009670:	e51b3028 	ldr	r3, [fp, #-40]	; 0xffffffd8
20009674:	e5933078 	ldr	r3, [r3, #120]	; 0x78
20009678:	e3530000 	cmp	r3, #0
2000967c:	1a000005 	bne	20009698 <tcp_output+0x3d0>
20009680:	e51b3028 	ldr	r3, [fp, #-40]	; 0xffffffd8
20009684:	e51b2010 	ldr	r2, [fp, #-16]
20009688:	e5832078 	str	r2, [r3, #120]	; 0x78
2000968c:	e51b3010 	ldr	r3, [fp, #-16]
20009690:	e50b3014 	str	r3, [fp, #-20]	; 0xffffffec
20009694:	ea00005e 	b	20009814 <tcp_output+0x54c>
20009698:	e51b3010 	ldr	r3, [fp, #-16]
2000969c:	e5933010 	ldr	r3, [r3, #16]
200096a0:	e5d32004 	ldrb	r2, [r3, #4]
200096a4:	e5d31005 	ldrb	r1, [r3, #5]
200096a8:	e1a01401 	lsl	r1, r1, #8
200096ac:	e1812002 	orr	r2, r1, r2
200096b0:	e5d31006 	ldrb	r1, [r3, #6]
200096b4:	e1a01801 	lsl	r1, r1, #16
200096b8:	e1812002 	orr	r2, r1, r2
200096bc:	e5d33007 	ldrb	r3, [r3, #7]
200096c0:	e1a03c03 	lsl	r3, r3, #24
200096c4:	e1833002 	orr	r3, r3, r2
200096c8:	e1a00003 	mov	r0, r3
200096cc:	eb000f20 	bl	2000d354 <ntohl>
200096d0:	e1a04000 	mov	r4, r0
200096d4:	e51b3014 	ldr	r3, [fp, #-20]	; 0xffffffec
200096d8:	e5933010 	ldr	r3, [r3, #16]
200096dc:	e5d32004 	ldrb	r2, [r3, #4]
200096e0:	e5d31005 	ldrb	r1, [r3, #5]
200096e4:	e1a01401 	lsl	r1, r1, #8
200096e8:	e1812002 	orr	r2, r1, r2
200096ec:	e5d31006 	ldrb	r1, [r3, #6]
200096f0:	e1a01801 	lsl	r1, r1, #16
200096f4:	e1812002 	orr	r2, r1, r2
200096f8:	e5d33007 	ldrb	r3, [r3, #7]
200096fc:	e1a03c03 	lsl	r3, r3, #24
20009700:	e1833002 	orr	r3, r3, r2
20009704:	e1a00003 	mov	r0, r3
20009708:	eb000f11 	bl	2000d354 <ntohl>
2000970c:	e1a03000 	mov	r3, r0
20009710:	e0633004 	rsb	r3, r3, r4
20009714:	e3530000 	cmp	r3, #0
20009718:	aa000034 	bge	200097f0 <tcp_output+0x528>
2000971c:	e51b3028 	ldr	r3, [fp, #-40]	; 0xffffffd8
20009720:	e2833078 	add	r3, r3, #120	; 0x78
20009724:	e50b3018 	str	r3, [fp, #-24]	; 0xffffffe8
20009728:	ea000002 	b	20009738 <tcp_output+0x470>
2000972c:	e51b3018 	ldr	r3, [fp, #-24]	; 0xffffffe8
20009730:	e5933000 	ldr	r3, [r3]
20009734:	e50b3018 	str	r3, [fp, #-24]	; 0xffffffe8
20009738:	e51b3018 	ldr	r3, [fp, #-24]	; 0xffffffe8
2000973c:	e5933000 	ldr	r3, [r3]
20009740:	e3530000 	cmp	r3, #0
20009744:	0a000021 	beq	200097d0 <tcp_output+0x508>
20009748:	e51b3018 	ldr	r3, [fp, #-24]	; 0xffffffe8
2000974c:	e5933000 	ldr	r3, [r3]
20009750:	e5933010 	ldr	r3, [r3, #16]
20009754:	e5d32004 	ldrb	r2, [r3, #4]
20009758:	e5d31005 	ldrb	r1, [r3, #5]
2000975c:	e1a01401 	lsl	r1, r1, #8
20009760:	e1812002 	orr	r2, r1, r2
20009764:	e5d31006 	ldrb	r1, [r3, #6]
20009768:	e1a01801 	lsl	r1, r1, #16
2000976c:	e1812002 	orr	r2, r1, r2
20009770:	e5d33007 	ldrb	r3, [r3, #7]
20009774:	e1a03c03 	lsl	r3, r3, #24
20009778:	e1833002 	orr	r3, r3, r2
2000977c:	e1a00003 	mov	r0, r3
20009780:	eb000ef3 	bl	2000d354 <ntohl>
20009784:	e1a04000 	mov	r4, r0
20009788:	e51b3010 	ldr	r3, [fp, #-16]
2000978c:	e5933010 	ldr	r3, [r3, #16]
20009790:	e5d32004 	ldrb	r2, [r3, #4]
20009794:	e5d31005 	ldrb	r1, [r3, #5]
20009798:	e1a01401 	lsl	r1, r1, #8
2000979c:	e1812002 	orr	r2, r1, r2
200097a0:	e5d31006 	ldrb	r1, [r3, #6]
200097a4:	e1a01801 	lsl	r1, r1, #16
200097a8:	e1812002 	orr	r2, r1, r2
200097ac:	e5d33007 	ldrb	r3, [r3, #7]
200097b0:	e1a03c03 	lsl	r3, r3, #24
200097b4:	e1833002 	orr	r3, r3, r2
200097b8:	e1a00003 	mov	r0, r3
200097bc:	eb000ee4 	bl	2000d354 <ntohl>
200097c0:	e1a03000 	mov	r3, r0
200097c4:	e0633004 	rsb	r3, r3, r4
200097c8:	e3530000 	cmp	r3, #0
200097cc:	baffffd6 	blt	2000972c <tcp_output+0x464>
200097d0:	e51b3018 	ldr	r3, [fp, #-24]	; 0xffffffe8
200097d4:	e5932000 	ldr	r2, [r3]
200097d8:	e51b3010 	ldr	r3, [fp, #-16]
200097dc:	e5832000 	str	r2, [r3]
200097e0:	e51b3018 	ldr	r3, [fp, #-24]	; 0xffffffe8
200097e4:	e51b2010 	ldr	r2, [fp, #-16]
200097e8:	e5832000 	str	r2, [r3]
200097ec:	ea000008 	b	20009814 <tcp_output+0x54c>
200097f0:	e51b3014 	ldr	r3, [fp, #-20]	; 0xffffffec
200097f4:	e51b2010 	ldr	r2, [fp, #-16]
200097f8:	e5832000 	str	r2, [r3]
200097fc:	e51b3014 	ldr	r3, [fp, #-20]	; 0xffffffec
20009800:	e5933000 	ldr	r3, [r3]
20009804:	e50b3014 	str	r3, [fp, #-20]	; 0xffffffec
20009808:	ea000001 	b	20009814 <tcp_output+0x54c>
2000980c:	e51b0010 	ldr	r0, [fp, #-16]
20009810:	ebffeac7 	bl	20004334 <tcp_seg_free>
20009814:	e51b3028 	ldr	r3, [fp, #-40]	; 0xffffffd8
20009818:	e5933074 	ldr	r3, [r3, #116]	; 0x74
2000981c:	e50b3010 	str	r3, [fp, #-16]
20009820:	e51b3010 	ldr	r3, [fp, #-16]
20009824:	e3530000 	cmp	r3, #0
20009828:	0a000019 	beq	20009894 <tcp_output+0x5cc>
2000982c:	e51b3010 	ldr	r3, [fp, #-16]
20009830:	e5933010 	ldr	r3, [r3, #16]
20009834:	e5d32004 	ldrb	r2, [r3, #4]
20009838:	e5d31005 	ldrb	r1, [r3, #5]
2000983c:	e1a01401 	lsl	r1, r1, #8
20009840:	e1812002 	orr	r2, r1, r2
20009844:	e5d31006 	ldrb	r1, [r3, #6]
20009848:	e1a01801 	lsl	r1, r1, #16
2000984c:	e1812002 	orr	r2, r1, r2
20009850:	e5d33007 	ldrb	r3, [r3, #7]
20009854:	e1a03c03 	lsl	r3, r3, #24
20009858:	e1833002 	orr	r3, r3, r2
2000985c:	e1a00003 	mov	r0, r3
20009860:	eb000ebb 	bl	2000d354 <ntohl>
20009864:	e1a02000 	mov	r2, r0
20009868:	e51b3028 	ldr	r3, [fp, #-40]	; 0xffffffd8
2000986c:	e593304c 	ldr	r3, [r3, #76]	; 0x4c
20009870:	e0633002 	rsb	r3, r3, r2
20009874:	e51b2010 	ldr	r2, [fp, #-16]
20009878:	e1d220bc 	ldrh	r2, [r2, #12]
2000987c:	e0832002 	add	r2, r3, r2
20009880:	e51b301c 	ldr	r3, [fp, #-28]	; 0xffffffe4
20009884:	e1520003 	cmp	r2, r3
20009888:	9afffed9 	bls	200093f4 <tcp_output+0x12c>
2000988c:	ea000000 	b	20009894 <tcp_output+0x5cc>
20009890:	e1a00000 	nop			; (mov r0, r0)
20009894:	e51b3010 	ldr	r3, [fp, #-16]
20009898:	e3530000 	cmp	r3, #0
2000989c:	0a000022 	beq	2000992c <tcp_output+0x664>
200098a0:	e51b3028 	ldr	r3, [fp, #-40]	; 0xffffffd8
200098a4:	e5d3309c 	ldrb	r3, [r3, #156]	; 0x9c
200098a8:	e3530000 	cmp	r3, #0
200098ac:	1a00001e 	bne	2000992c <tcp_output+0x664>
200098b0:	e51b3010 	ldr	r3, [fp, #-16]
200098b4:	e5933010 	ldr	r3, [r3, #16]
200098b8:	e5d32004 	ldrb	r2, [r3, #4]
200098bc:	e5d31005 	ldrb	r1, [r3, #5]
200098c0:	e1a01401 	lsl	r1, r1, #8
200098c4:	e1812002 	orr	r2, r1, r2
200098c8:	e5d31006 	ldrb	r1, [r3, #6]
200098cc:	e1a01801 	lsl	r1, r1, #16
200098d0:	e1812002 	orr	r2, r1, r2
200098d4:	e5d33007 	ldrb	r3, [r3, #7]
200098d8:	e1a03c03 	lsl	r3, r3, #24
200098dc:	e1833002 	orr	r3, r3, r2
200098e0:	e1a00003 	mov	r0, r3
200098e4:	eb000e9a 	bl	2000d354 <ntohl>
200098e8:	e1a02000 	mov	r2, r0
200098ec:	e51b3028 	ldr	r3, [fp, #-40]	; 0xffffffd8
200098f0:	e593304c 	ldr	r3, [r3, #76]	; 0x4c
200098f4:	e0633002 	rsb	r3, r3, r2
200098f8:	e51b2010 	ldr	r2, [fp, #-16]
200098fc:	e1d220bc 	ldrh	r2, [r2, #12]
20009900:	e0833002 	add	r3, r3, r2
20009904:	e51b2028 	ldr	r2, [fp, #-40]	; 0xffffffd8
20009908:	e1d225bc 	ldrh	r2, [r2, #92]	; 0x5c
2000990c:	e1530002 	cmp	r3, r2
20009910:	9a000005 	bls	2000992c <tcp_output+0x664>
20009914:	e51b3028 	ldr	r3, [fp, #-40]	; 0xffffffd8
20009918:	e3a02000 	mov	r2, #0
2000991c:	e5832098 	str	r2, [r3, #152]	; 0x98
20009920:	e51b3028 	ldr	r3, [fp, #-40]	; 0xffffffd8
20009924:	e3a02001 	mov	r2, #1
20009928:	e5c3209c 	strb	r2, [r3, #156]	; 0x9c
2000992c:	e51b3028 	ldr	r3, [fp, #-40]	; 0xffffffd8
20009930:	e5d33022 	ldrb	r3, [r3, #34]	; 0x22
20009934:	e203307f 	and	r3, r3, #127	; 0x7f
20009938:	e20320ff 	and	r2, r3, #255	; 0xff
2000993c:	e51b3028 	ldr	r3, [fp, #-40]	; 0xffffffd8
20009940:	e5c32022 	strb	r2, [r3, #34]	; 0x22
20009944:	e3a03000 	mov	r3, #0
20009948:	e1a03c03 	lsl	r3, r3, #24
2000994c:	e1a03c43 	asr	r3, r3, #24
20009950:	e1a00003 	mov	r0, r3
20009954:	e24bd00c 	sub	sp, fp, #12
20009958:	e8bd4830 	pop	{r4, r5, fp, lr}
2000995c:	e12fff1e 	bx	lr
20009960:	20015760 	.word	0x20015760

20009964 <tcp_output_segment>:
20009964:	e92d4810 	push	{r4, fp, lr}
20009968:	e28db008 	add	fp, sp, #8
2000996c:	e24dd024 	sub	sp, sp, #36	; 0x24
20009970:	e50b0020 	str	r0, [fp, #-32]	; 0xffffffe0
20009974:	e50b1024 	str	r1, [fp, #-36]	; 0xffffffdc
20009978:	e51b3020 	ldr	r3, [fp, #-32]	; 0xffffffe0
2000997c:	e5934010 	ldr	r4, [r3, #16]
20009980:	e51b3024 	ldr	r3, [fp, #-36]	; 0xffffffdc
20009984:	e5933024 	ldr	r3, [r3, #36]	; 0x24
20009988:	e1a00003 	mov	r0, r3
2000998c:	eb000e5b 	bl	2000d300 <htonl>
20009990:	e1a03000 	mov	r3, r0
20009994:	e20320ff 	and	r2, r3, #255	; 0xff
20009998:	e3a01000 	mov	r1, #0
2000999c:	e1812002 	orr	r2, r1, r2
200099a0:	e5c42008 	strb	r2, [r4, #8]
200099a4:	e1a02423 	lsr	r2, r3, #8
200099a8:	e20220ff 	and	r2, r2, #255	; 0xff
200099ac:	e3a01000 	mov	r1, #0
200099b0:	e1812002 	orr	r2, r1, r2
200099b4:	e5c42009 	strb	r2, [r4, #9]
200099b8:	e1a02823 	lsr	r2, r3, #16
200099bc:	e20220ff 	and	r2, r2, #255	; 0xff
200099c0:	e3a01000 	mov	r1, #0
200099c4:	e1812002 	orr	r2, r1, r2
200099c8:	e5c4200a 	strb	r2, [r4, #10]
200099cc:	e1a03c23 	lsr	r3, r3, #24
200099d0:	e3a02000 	mov	r2, #0
200099d4:	e1823003 	orr	r3, r2, r3
200099d8:	e5c4300b 	strb	r3, [r4, #11]
200099dc:	e51b3020 	ldr	r3, [fp, #-32]	; 0xffffffe0
200099e0:	e5934010 	ldr	r4, [r3, #16]
200099e4:	e51b3024 	ldr	r3, [fp, #-36]	; 0xffffffdc
200099e8:	e1d332ba 	ldrh	r3, [r3, #42]	; 0x2a
200099ec:	e1a00003 	mov	r0, r3
200099f0:	eb000e1d 	bl	2000d26c <htons>
200099f4:	e1a03000 	mov	r3, r0
200099f8:	e20320ff 	and	r2, r3, #255	; 0xff
200099fc:	e3a01000 	mov	r1, #0
20009a00:	e1812002 	orr	r2, r1, r2
20009a04:	e5c4200e 	strb	r2, [r4, #14]
20009a08:	e1a03423 	lsr	r3, r3, #8
20009a0c:	e1a03803 	lsl	r3, r3, #16
20009a10:	e1a03823 	lsr	r3, r3, #16
20009a14:	e3a02000 	mov	r2, #0
20009a18:	e1823003 	orr	r3, r2, r3
20009a1c:	e5c4300f 	strb	r3, [r4, #15]
20009a20:	e51b3024 	ldr	r3, [fp, #-36]	; 0xffffffdc
20009a24:	e5933024 	ldr	r3, [r3, #36]	; 0x24
20009a28:	e51b2024 	ldr	r2, [fp, #-36]	; 0xffffffdc
20009a2c:	e1d222ba 	ldrh	r2, [r2, #42]	; 0x2a
20009a30:	e0832002 	add	r2, r3, r2
20009a34:	e51b3024 	ldr	r3, [fp, #-36]	; 0xffffffdc
20009a38:	e583202c 	str	r2, [r3, #44]	; 0x2c
20009a3c:	e51b3020 	ldr	r3, [fp, #-32]	; 0xffffffe0
20009a40:	e5933010 	ldr	r3, [r3, #16]
20009a44:	e2833014 	add	r3, r3, #20
20009a48:	e50b3010 	str	r3, [fp, #-16]
20009a4c:	e51b3020 	ldr	r3, [fp, #-32]	; 0xffffffe0
20009a50:	e5d3300e 	ldrb	r3, [r3, #14]
20009a54:	e2033001 	and	r3, r3, #1
20009a58:	e3530000 	cmp	r3, #0
20009a5c:	0a000007 	beq	20009a80 <tcp_output_segment+0x11c>
20009a60:	e59f026c 	ldr	r0, [pc, #620]	; 20009cd4 <tcp_output_segment+0x370>
20009a64:	eb000e25 	bl	2000d300 <htonl>
20009a68:	e1a02000 	mov	r2, r0
20009a6c:	e51b3010 	ldr	r3, [fp, #-16]
20009a70:	e5832000 	str	r2, [r3]
20009a74:	e51b3010 	ldr	r3, [fp, #-16]
20009a78:	e2833004 	add	r3, r3, #4
20009a7c:	e50b3010 	str	r3, [fp, #-16]
20009a80:	e51b3024 	ldr	r3, [fp, #-36]	; 0xffffffdc
20009a84:	e3530000 	cmp	r3, #0
20009a88:	0a000003 	beq	20009a9c <tcp_output_segment+0x138>
20009a8c:	e51b3024 	ldr	r3, [fp, #-36]	; 0xffffffdc
20009a90:	e5933000 	ldr	r3, [r3]
20009a94:	e3530000 	cmp	r3, #0
20009a98:	1a000011 	bne	20009ae4 <tcp_output_segment+0x180>
20009a9c:	e51b3024 	ldr	r3, [fp, #-36]	; 0xffffffdc
20009aa0:	e2833004 	add	r3, r3, #4
20009aa4:	e1a00003 	mov	r0, r3
20009aa8:	eb00093f 	bl	2000bfac <ip_route>
20009aac:	e50b0014 	str	r0, [fp, #-20]	; 0xffffffec
20009ab0:	e51b3014 	ldr	r3, [fp, #-20]	; 0xffffffec
20009ab4:	e3530000 	cmp	r3, #0
20009ab8:	0a000081 	beq	20009cc4 <tcp_output_segment+0x360>
20009abc:	e51b3014 	ldr	r3, [fp, #-20]	; 0xffffffec
20009ac0:	e2833004 	add	r3, r3, #4
20009ac4:	e3530000 	cmp	r3, #0
20009ac8:	0a000002 	beq	20009ad8 <tcp_output_segment+0x174>
20009acc:	e51b3014 	ldr	r3, [fp, #-20]	; 0xffffffec
20009ad0:	e5933004 	ldr	r3, [r3, #4]
20009ad4:	ea000000 	b	20009adc <tcp_output_segment+0x178>
20009ad8:	e3a03000 	mov	r3, #0
20009adc:	e51b2024 	ldr	r2, [fp, #-36]	; 0xffffffdc
20009ae0:	e5823000 	str	r3, [r2]
20009ae4:	e51b3024 	ldr	r3, [fp, #-36]	; 0xffffffdc
20009ae8:	e1d333b6 	ldrh	r3, [r3, #54]	; 0x36
20009aec:	e1a03803 	lsl	r3, r3, #16
20009af0:	e1a03843 	asr	r3, r3, #16
20009af4:	e3730001 	cmn	r3, #1
20009af8:	1a000002 	bne	20009b08 <tcp_output_segment+0x1a4>
20009afc:	e51b3024 	ldr	r3, [fp, #-36]	; 0xffffffdc
20009b00:	e3a02000 	mov	r2, #0
20009b04:	e1c323b6 	strh	r2, [r3, #54]	; 0x36
20009b08:	e51b3024 	ldr	r3, [fp, #-36]	; 0xffffffdc
20009b0c:	e593303c 	ldr	r3, [r3, #60]	; 0x3c
20009b10:	e3530000 	cmp	r3, #0
20009b14:	1a000014 	bne	20009b6c <tcp_output_segment+0x208>
20009b18:	e59f31b8 	ldr	r3, [pc, #440]	; 20009cd8 <tcp_output_segment+0x374>
20009b1c:	e5932000 	ldr	r2, [r3]
20009b20:	e51b3024 	ldr	r3, [fp, #-36]	; 0xffffffdc
20009b24:	e583203c 	str	r2, [r3, #60]	; 0x3c
20009b28:	e51b3020 	ldr	r3, [fp, #-32]	; 0xffffffe0
20009b2c:	e5933010 	ldr	r3, [r3, #16]
20009b30:	e5d32004 	ldrb	r2, [r3, #4]
20009b34:	e5d31005 	ldrb	r1, [r3, #5]
20009b38:	e1a01401 	lsl	r1, r1, #8
20009b3c:	e1812002 	orr	r2, r1, r2
20009b40:	e5d31006 	ldrb	r1, [r3, #6]
20009b44:	e1a01801 	lsl	r1, r1, #16
20009b48:	e1812002 	orr	r2, r1, r2
20009b4c:	e5d33007 	ldrb	r3, [r3, #7]
20009b50:	e1a03c03 	lsl	r3, r3, #24
20009b54:	e1833002 	orr	r3, r3, r2
20009b58:	e1a00003 	mov	r0, r3
20009b5c:	eb000dfc 	bl	2000d354 <ntohl>
20009b60:	e1a02000 	mov	r2, r0
20009b64:	e51b3024 	ldr	r3, [fp, #-36]	; 0xffffffdc
20009b68:	e5832040 	str	r2, [r3, #64]	; 0x40
20009b6c:	e51b3020 	ldr	r3, [fp, #-32]	; 0xffffffe0
20009b70:	e5933010 	ldr	r3, [r3, #16]
20009b74:	e1a02003 	mov	r2, r3
20009b78:	e51b3020 	ldr	r3, [fp, #-32]	; 0xffffffe0
20009b7c:	e5933004 	ldr	r3, [r3, #4]
20009b80:	e5933004 	ldr	r3, [r3, #4]
20009b84:	e0633002 	rsb	r3, r3, r2
20009b88:	e14b31b6 	strh	r3, [fp, #-22]	; 0xffffffea
20009b8c:	e51b3020 	ldr	r3, [fp, #-32]	; 0xffffffe0
20009b90:	e5933004 	ldr	r3, [r3, #4]
20009b94:	e51b2020 	ldr	r2, [fp, #-32]	; 0xffffffe0
20009b98:	e5922004 	ldr	r2, [r2, #4]
20009b9c:	e1d210ba 	ldrh	r1, [r2, #10]
20009ba0:	e15b21b6 	ldrh	r2, [fp, #-22]	; 0xffffffea
20009ba4:	e0622001 	rsb	r2, r2, r1
20009ba8:	e1a02802 	lsl	r2, r2, #16
20009bac:	e1a02822 	lsr	r2, r2, #16
20009bb0:	e1c320ba 	strh	r2, [r3, #10]
20009bb4:	e51b3020 	ldr	r3, [fp, #-32]	; 0xffffffe0
20009bb8:	e5933004 	ldr	r3, [r3, #4]
20009bbc:	e51b2020 	ldr	r2, [fp, #-32]	; 0xffffffe0
20009bc0:	e5922004 	ldr	r2, [r2, #4]
20009bc4:	e1d210b8 	ldrh	r1, [r2, #8]
20009bc8:	e15b21b6 	ldrh	r2, [fp, #-22]	; 0xffffffea
20009bcc:	e0622001 	rsb	r2, r2, r1
20009bd0:	e1a02802 	lsl	r2, r2, #16
20009bd4:	e1a02822 	lsr	r2, r2, #16
20009bd8:	e1c320b8 	strh	r2, [r3, #8]
20009bdc:	e51b3020 	ldr	r3, [fp, #-32]	; 0xffffffe0
20009be0:	e5933004 	ldr	r3, [r3, #4]
20009be4:	e51b2020 	ldr	r2, [fp, #-32]	; 0xffffffe0
20009be8:	e5922010 	ldr	r2, [r2, #16]
20009bec:	e5832004 	str	r2, [r3, #4]
20009bf0:	e51b3020 	ldr	r3, [fp, #-32]	; 0xffffffe0
20009bf4:	e5933010 	ldr	r3, [r3, #16]
20009bf8:	e3a02000 	mov	r2, #0
20009bfc:	e5c32010 	strb	r2, [r3, #16]
20009c00:	e3a02000 	mov	r2, #0
20009c04:	e5c32011 	strb	r2, [r3, #17]
20009c08:	e51b3020 	ldr	r3, [fp, #-32]	; 0xffffffe0
20009c0c:	e5934010 	ldr	r4, [r3, #16]
20009c10:	e51b3020 	ldr	r3, [fp, #-32]	; 0xffffffe0
20009c14:	e5930004 	ldr	r0, [r3, #4]
20009c18:	e51b1024 	ldr	r1, [fp, #-36]	; 0xffffffdc
20009c1c:	e51b3024 	ldr	r3, [fp, #-36]	; 0xffffffdc
20009c20:	e2832004 	add	r2, r3, #4
20009c24:	e51b3020 	ldr	r3, [fp, #-32]	; 0xffffffe0
20009c28:	e5933004 	ldr	r3, [r3, #4]
20009c2c:	e1d330b8 	ldrh	r3, [r3, #8]
20009c30:	e58d3000 	str	r3, [sp]
20009c34:	e3a03006 	mov	r3, #6
20009c38:	eb0013f2 	bl	2000ec08 <inet_chksum_pseudo>
20009c3c:	e1a03000 	mov	r3, r0
20009c40:	e20320ff 	and	r2, r3, #255	; 0xff
20009c44:	e3a01000 	mov	r1, #0
20009c48:	e1812002 	orr	r2, r1, r2
20009c4c:	e5c42010 	strb	r2, [r4, #16]
20009c50:	e1a03423 	lsr	r3, r3, #8
20009c54:	e1a03803 	lsl	r3, r3, #16
20009c58:	e1a03823 	lsr	r3, r3, #16
20009c5c:	e3a02000 	mov	r2, #0
20009c60:	e1823003 	orr	r3, r2, r3
20009c64:	e5c43011 	strb	r3, [r4, #17]
20009c68:	e59f306c 	ldr	r3, [pc, #108]	; 20009cdc <tcp_output_segment+0x378>
20009c6c:	e1d339b0 	ldrh	r3, [r3, #144]	; 0x90
20009c70:	e2833001 	add	r3, r3, #1
20009c74:	e1a03803 	lsl	r3, r3, #16
20009c78:	e1a03823 	lsr	r3, r3, #16
20009c7c:	e59f2058 	ldr	r2, [pc, #88]	; 20009cdc <tcp_output_segment+0x378>
20009c80:	e1c239b0 	strh	r3, [r2, #144]	; 0x90
20009c84:	e51b3020 	ldr	r3, [fp, #-32]	; 0xffffffe0
20009c88:	e5930004 	ldr	r0, [r3, #4]
20009c8c:	e51b1024 	ldr	r1, [fp, #-36]	; 0xffffffdc
20009c90:	e51b3024 	ldr	r3, [fp, #-36]	; 0xffffffdc
20009c94:	e283c004 	add	ip, r3, #4
20009c98:	e51b3024 	ldr	r3, [fp, #-36]	; 0xffffffdc
20009c9c:	e5d3e00b 	ldrb	lr, [r3, #11]
20009ca0:	e51b3024 	ldr	r3, [fp, #-36]	; 0xffffffdc
20009ca4:	e5d3300a 	ldrb	r3, [r3, #10]
20009ca8:	e3a02006 	mov	r2, #6
20009cac:	e58d2004 	str	r2, [sp, #4]
20009cb0:	e58d3000 	str	r3, [sp]
20009cb4:	e1a0300e 	mov	r3, lr
20009cb8:	e1a0200c 	mov	r2, ip
20009cbc:	eb000bf1 	bl	2000cc88 <ip_output>
20009cc0:	ea000000 	b	20009cc8 <tcp_output_segment+0x364>
20009cc4:	e1a00000 	nop			; (mov r0, r0)
20009cc8:	e24bd008 	sub	sp, fp, #8
20009ccc:	e8bd4810 	pop	{r4, fp, lr}
20009cd0:	e12fff1e 	bx	lr
20009cd4:	02040080 	.word	0x02040080
20009cd8:	2001574c 	.word	0x2001574c
20009cdc:	20015630 	.word	0x20015630

20009ce0 <tcp_rst>:
20009ce0:	e92d4810 	push	{r4, fp, lr}
20009ce4:	e28db008 	add	fp, sp, #8
20009ce8:	e24dd024 	sub	sp, sp, #36	; 0x24
20009cec:	e50b0018 	str	r0, [fp, #-24]	; 0xffffffe8
20009cf0:	e50b101c 	str	r1, [fp, #-28]	; 0xffffffe4
20009cf4:	e50b2020 	str	r2, [fp, #-32]	; 0xffffffe0
20009cf8:	e50b3024 	str	r3, [fp, #-36]	; 0xffffffdc
20009cfc:	e3a02000 	mov	r2, #0
20009d00:	e3a01014 	mov	r1, #20
20009d04:	e3a00001 	mov	r0, #1
20009d08:	ebffde21 	bl	20001594 <pbuf_alloc>
20009d0c:	e50b0010 	str	r0, [fp, #-16]
20009d10:	e51b3010 	ldr	r3, [fp, #-16]
20009d14:	e3530000 	cmp	r3, #0
20009d18:	0a0000cc 	beq	2000a050 <tcp_rst+0x370>
20009d1c:	e51b3010 	ldr	r3, [fp, #-16]
20009d20:	e5933004 	ldr	r3, [r3, #4]
20009d24:	e50b3014 	str	r3, [fp, #-20]	; 0xffffffec
20009d28:	e1db30b4 	ldrh	r3, [fp, #4]
20009d2c:	e1a00003 	mov	r0, r3
20009d30:	eb000d4d 	bl	2000d26c <htons>
20009d34:	e1a03000 	mov	r3, r0
20009d38:	e1a02003 	mov	r2, r3
20009d3c:	e51b3014 	ldr	r3, [fp, #-20]	; 0xffffffec
20009d40:	e20210ff 	and	r1, r2, #255	; 0xff
20009d44:	e3a00000 	mov	r0, #0
20009d48:	e1801001 	orr	r1, r0, r1
20009d4c:	e5c31000 	strb	r1, [r3]
20009d50:	e1a02422 	lsr	r2, r2, #8
20009d54:	e1a02802 	lsl	r2, r2, #16
20009d58:	e1a02822 	lsr	r2, r2, #16
20009d5c:	e3a01000 	mov	r1, #0
20009d60:	e1812002 	orr	r2, r1, r2
20009d64:	e5c32001 	strb	r2, [r3, #1]
20009d68:	e1db30b8 	ldrh	r3, [fp, #8]
20009d6c:	e1a00003 	mov	r0, r3
20009d70:	eb000d3d 	bl	2000d26c <htons>
20009d74:	e1a03000 	mov	r3, r0
20009d78:	e1a02003 	mov	r2, r3
20009d7c:	e51b3014 	ldr	r3, [fp, #-20]	; 0xffffffec
20009d80:	e20210ff 	and	r1, r2, #255	; 0xff
20009d84:	e3a00000 	mov	r0, #0
20009d88:	e1801001 	orr	r1, r0, r1
20009d8c:	e5c31002 	strb	r1, [r3, #2]
20009d90:	e1a02422 	lsr	r2, r2, #8
20009d94:	e1a02802 	lsl	r2, r2, #16
20009d98:	e1a02822 	lsr	r2, r2, #16
20009d9c:	e3a01000 	mov	r1, #0
20009da0:	e1812002 	orr	r2, r1, r2
20009da4:	e5c32003 	strb	r2, [r3, #3]
20009da8:	e51b0018 	ldr	r0, [fp, #-24]	; 0xffffffe8
20009dac:	eb000d53 	bl	2000d300 <htonl>
20009db0:	e1a02000 	mov	r2, r0
20009db4:	e51b3014 	ldr	r3, [fp, #-20]	; 0xffffffec
20009db8:	e20210ff 	and	r1, r2, #255	; 0xff
20009dbc:	e3a00000 	mov	r0, #0
20009dc0:	e1801001 	orr	r1, r0, r1
20009dc4:	e5c31004 	strb	r1, [r3, #4]
20009dc8:	e1a01422 	lsr	r1, r2, #8
20009dcc:	e20110ff 	and	r1, r1, #255	; 0xff
20009dd0:	e3a00000 	mov	r0, #0
20009dd4:	e1801001 	orr	r1, r0, r1
20009dd8:	e5c31005 	strb	r1, [r3, #5]
20009ddc:	e1a01822 	lsr	r1, r2, #16
20009de0:	e20110ff 	and	r1, r1, #255	; 0xff
20009de4:	e3a00000 	mov	r0, #0
20009de8:	e1801001 	orr	r1, r0, r1
20009dec:	e5c31006 	strb	r1, [r3, #6]
20009df0:	e1a02c22 	lsr	r2, r2, #24
20009df4:	e3a01000 	mov	r1, #0
20009df8:	e1812002 	orr	r2, r1, r2
20009dfc:	e5c32007 	strb	r2, [r3, #7]
20009e00:	e51b001c 	ldr	r0, [fp, #-28]	; 0xffffffe4
20009e04:	eb000d3d 	bl	2000d300 <htonl>
20009e08:	e1a02000 	mov	r2, r0
20009e0c:	e51b3014 	ldr	r3, [fp, #-20]	; 0xffffffec
20009e10:	e20210ff 	and	r1, r2, #255	; 0xff
20009e14:	e3a00000 	mov	r0, #0
20009e18:	e1801001 	orr	r1, r0, r1
20009e1c:	e5c31008 	strb	r1, [r3, #8]
20009e20:	e1a01422 	lsr	r1, r2, #8
20009e24:	e20110ff 	and	r1, r1, #255	; 0xff
20009e28:	e3a00000 	mov	r0, #0
20009e2c:	e1801001 	orr	r1, r0, r1
20009e30:	e5c31009 	strb	r1, [r3, #9]
20009e34:	e1a01822 	lsr	r1, r2, #16
20009e38:	e20110ff 	and	r1, r1, #255	; 0xff
20009e3c:	e3a00000 	mov	r0, #0
20009e40:	e1801001 	orr	r1, r0, r1
20009e44:	e5c3100a 	strb	r1, [r3, #10]
20009e48:	e1a02c22 	lsr	r2, r2, #24
20009e4c:	e3a01000 	mov	r1, #0
20009e50:	e1812002 	orr	r2, r1, r2
20009e54:	e5c3200b 	strb	r2, [r3, #11]
20009e58:	e51b3014 	ldr	r3, [fp, #-20]	; 0xffffffec
20009e5c:	e5d3200c 	ldrb	r2, [r3, #12]
20009e60:	e5d3300d 	ldrb	r3, [r3, #13]
20009e64:	e1a03403 	lsl	r3, r3, #8
20009e68:	e1833002 	orr	r3, r3, r2
20009e6c:	e1a03803 	lsl	r3, r3, #16
20009e70:	e1a04823 	lsr	r4, r3, #16
20009e74:	e59f01e4 	ldr	r0, [pc, #484]	; 2000a060 <tcp_rst+0x380>
20009e78:	eb000cfb 	bl	2000d26c <htons>
20009e7c:	e1a03000 	mov	r3, r0
20009e80:	e0033004 	and	r3, r3, r4
20009e84:	e1a03803 	lsl	r3, r3, #16
20009e88:	e1a04823 	lsr	r4, r3, #16
20009e8c:	e3a00014 	mov	r0, #20
20009e90:	eb000cf5 	bl	2000d26c <htons>
20009e94:	e1a03000 	mov	r3, r0
20009e98:	e1843003 	orr	r3, r4, r3
20009e9c:	e1a03803 	lsl	r3, r3, #16
20009ea0:	e1a02823 	lsr	r2, r3, #16
20009ea4:	e51b3014 	ldr	r3, [fp, #-20]	; 0xffffffec
20009ea8:	e20210ff 	and	r1, r2, #255	; 0xff
20009eac:	e3a00000 	mov	r0, #0
20009eb0:	e1801001 	orr	r1, r0, r1
20009eb4:	e5c3100c 	strb	r1, [r3, #12]
20009eb8:	e1a02422 	lsr	r2, r2, #8
20009ebc:	e1a02802 	lsl	r2, r2, #16
20009ec0:	e1a02822 	lsr	r2, r2, #16
20009ec4:	e3a01000 	mov	r1, #0
20009ec8:	e1812002 	orr	r2, r1, r2
20009ecc:	e5c3200d 	strb	r2, [r3, #13]
20009ed0:	e3a00c02 	mov	r0, #512	; 0x200
20009ed4:	eb000ce4 	bl	2000d26c <htons>
20009ed8:	e1a03000 	mov	r3, r0
20009edc:	e1a02003 	mov	r2, r3
20009ee0:	e51b3014 	ldr	r3, [fp, #-20]	; 0xffffffec
20009ee4:	e20210ff 	and	r1, r2, #255	; 0xff
20009ee8:	e3a00000 	mov	r0, #0
20009eec:	e1801001 	orr	r1, r0, r1
20009ef0:	e5c3100e 	strb	r1, [r3, #14]
20009ef4:	e1a02422 	lsr	r2, r2, #8
20009ef8:	e1a02802 	lsl	r2, r2, #16
20009efc:	e1a02822 	lsr	r2, r2, #16
20009f00:	e3a01000 	mov	r1, #0
20009f04:	e1812002 	orr	r2, r1, r2
20009f08:	e5c3200f 	strb	r2, [r3, #15]
20009f0c:	e51b3014 	ldr	r3, [fp, #-20]	; 0xffffffec
20009f10:	e3a02000 	mov	r2, #0
20009f14:	e5c32012 	strb	r2, [r3, #18]
20009f18:	e3a02000 	mov	r2, #0
20009f1c:	e5c32013 	strb	r2, [r3, #19]
20009f20:	e51b3014 	ldr	r3, [fp, #-20]	; 0xffffffec
20009f24:	e5d3200c 	ldrb	r2, [r3, #12]
20009f28:	e5d3300d 	ldrb	r3, [r3, #13]
20009f2c:	e1a03403 	lsl	r3, r3, #8
20009f30:	e1833002 	orr	r3, r3, r2
20009f34:	e1a03803 	lsl	r3, r3, #16
20009f38:	e1a03823 	lsr	r3, r3, #16
20009f3c:	e1a00003 	mov	r0, r3
20009f40:	eb000ce1 	bl	2000d2cc <ntohs>
20009f44:	e1a03000 	mov	r3, r0
20009f48:	e203303f 	and	r3, r3, #63	; 0x3f
20009f4c:	e1a03803 	lsl	r3, r3, #16
20009f50:	e1a03823 	lsr	r3, r3, #16
20009f54:	e3833a05 	orr	r3, r3, #20480	; 0x5000
20009f58:	e1a03803 	lsl	r3, r3, #16
20009f5c:	e1a03823 	lsr	r3, r3, #16
20009f60:	e1a00003 	mov	r0, r3
20009f64:	eb000cc0 	bl	2000d26c <htons>
20009f68:	e1a03000 	mov	r3, r0
20009f6c:	e1a02003 	mov	r2, r3
20009f70:	e51b3014 	ldr	r3, [fp, #-20]	; 0xffffffec
20009f74:	e20210ff 	and	r1, r2, #255	; 0xff
20009f78:	e3a00000 	mov	r0, #0
20009f7c:	e1801001 	orr	r1, r0, r1
20009f80:	e5c3100c 	strb	r1, [r3, #12]
20009f84:	e1a02422 	lsr	r2, r2, #8
20009f88:	e1a02802 	lsl	r2, r2, #16
20009f8c:	e1a02822 	lsr	r2, r2, #16
20009f90:	e3a01000 	mov	r1, #0
20009f94:	e1812002 	orr	r2, r1, r2
20009f98:	e5c3200d 	strb	r2, [r3, #13]
20009f9c:	e51b3014 	ldr	r3, [fp, #-20]	; 0xffffffec
20009fa0:	e3a02000 	mov	r2, #0
20009fa4:	e5c32010 	strb	r2, [r3, #16]
20009fa8:	e3a02000 	mov	r2, #0
20009fac:	e5c32011 	strb	r2, [r3, #17]
20009fb0:	e51b3010 	ldr	r3, [fp, #-16]
20009fb4:	e1d330b8 	ldrh	r3, [r3, #8]
20009fb8:	e58d3000 	str	r3, [sp]
20009fbc:	e3a03006 	mov	r3, #6
20009fc0:	e51b2024 	ldr	r2, [fp, #-36]	; 0xffffffdc
20009fc4:	e51b1020 	ldr	r1, [fp, #-32]	; 0xffffffe0
20009fc8:	e51b0010 	ldr	r0, [fp, #-16]
20009fcc:	eb00130d 	bl	2000ec08 <inet_chksum_pseudo>
20009fd0:	e1a03000 	mov	r3, r0
20009fd4:	e1a02003 	mov	r2, r3
20009fd8:	e51b3014 	ldr	r3, [fp, #-20]	; 0xffffffec
20009fdc:	e20210ff 	and	r1, r2, #255	; 0xff
20009fe0:	e3a00000 	mov	r0, #0
20009fe4:	e1801001 	orr	r1, r0, r1
20009fe8:	e5c31010 	strb	r1, [r3, #16]
20009fec:	e1a02422 	lsr	r2, r2, #8
20009ff0:	e1a02802 	lsl	r2, r2, #16
20009ff4:	e1a02822 	lsr	r2, r2, #16
20009ff8:	e3a01000 	mov	r1, #0
20009ffc:	e1812002 	orr	r2, r1, r2
2000a000:	e5c32011 	strb	r2, [r3, #17]
2000a004:	e59f3058 	ldr	r3, [pc, #88]	; 2000a064 <tcp_rst+0x384>
2000a008:	e1d339b0 	ldrh	r3, [r3, #144]	; 0x90
2000a00c:	e2833001 	add	r3, r3, #1
2000a010:	e1a03803 	lsl	r3, r3, #16
2000a014:	e1a03823 	lsr	r3, r3, #16
2000a018:	e59f2044 	ldr	r2, [pc, #68]	; 2000a064 <tcp_rst+0x384>
2000a01c:	e1c239b0 	strh	r3, [r2, #144]	; 0x90
2000a020:	e3a03006 	mov	r3, #6
2000a024:	e58d3004 	str	r3, [sp, #4]
2000a028:	e3a03000 	mov	r3, #0
2000a02c:	e58d3000 	str	r3, [sp]
2000a030:	e3a030ff 	mov	r3, #255	; 0xff
2000a034:	e51b2024 	ldr	r2, [fp, #-36]	; 0xffffffdc
2000a038:	e51b1020 	ldr	r1, [fp, #-32]	; 0xffffffe0
2000a03c:	e51b0010 	ldr	r0, [fp, #-16]
2000a040:	eb000b10 	bl	2000cc88 <ip_output>
2000a044:	e51b0010 	ldr	r0, [fp, #-16]
2000a048:	ebffdf09 	bl	20001c74 <pbuf_free>
2000a04c:	ea000000 	b	2000a054 <tcp_rst+0x374>
2000a050:	e1a00000 	nop			; (mov r0, r0)
2000a054:	e24bd008 	sub	sp, fp, #8
2000a058:	e8bd4810 	pop	{r4, fp, lr}
2000a05c:	e12fff1e 	bx	lr
2000a060:	0000ffc0 	.word	0x0000ffc0
2000a064:	20015630 	.word	0x20015630

2000a068 <tcp_rexmit_rto>:
2000a068:	e92d4800 	push	{fp, lr}
2000a06c:	e28db004 	add	fp, sp, #4
2000a070:	e24dd010 	sub	sp, sp, #16
2000a074:	e50b0010 	str	r0, [fp, #-16]
2000a078:	e51b3010 	ldr	r3, [fp, #-16]
2000a07c:	e5933078 	ldr	r3, [r3, #120]	; 0x78
2000a080:	e3530000 	cmp	r3, #0
2000a084:	0a000021 	beq	2000a110 <tcp_rexmit_rto+0xa8>
2000a088:	e51b3010 	ldr	r3, [fp, #-16]
2000a08c:	e5933078 	ldr	r3, [r3, #120]	; 0x78
2000a090:	e50b3008 	str	r3, [fp, #-8]
2000a094:	ea000002 	b	2000a0a4 <tcp_rexmit_rto+0x3c>
2000a098:	e51b3008 	ldr	r3, [fp, #-8]
2000a09c:	e5933000 	ldr	r3, [r3]
2000a0a0:	e50b3008 	str	r3, [fp, #-8]
2000a0a4:	e51b3008 	ldr	r3, [fp, #-8]
2000a0a8:	e5933000 	ldr	r3, [r3]
2000a0ac:	e3530000 	cmp	r3, #0
2000a0b0:	1afffff8 	bne	2000a098 <tcp_rexmit_rto+0x30>
2000a0b4:	e51b3010 	ldr	r3, [fp, #-16]
2000a0b8:	e5932074 	ldr	r2, [r3, #116]	; 0x74
2000a0bc:	e51b3008 	ldr	r3, [fp, #-8]
2000a0c0:	e5832000 	str	r2, [r3]
2000a0c4:	e51b3010 	ldr	r3, [fp, #-16]
2000a0c8:	e5932078 	ldr	r2, [r3, #120]	; 0x78
2000a0cc:	e51b3010 	ldr	r3, [fp, #-16]
2000a0d0:	e5832074 	str	r2, [r3, #116]	; 0x74
2000a0d4:	e51b3010 	ldr	r3, [fp, #-16]
2000a0d8:	e3a02000 	mov	r2, #0
2000a0dc:	e5832078 	str	r2, [r3, #120]	; 0x78
2000a0e0:	e51b3010 	ldr	r3, [fp, #-16]
2000a0e4:	e5d3304a 	ldrb	r3, [r3, #74]	; 0x4a
2000a0e8:	e2833001 	add	r3, r3, #1
2000a0ec:	e20320ff 	and	r2, r3, #255	; 0xff
2000a0f0:	e51b3010 	ldr	r3, [fp, #-16]
2000a0f4:	e5c3204a 	strb	r2, [r3, #74]	; 0x4a
2000a0f8:	e51b3010 	ldr	r3, [fp, #-16]
2000a0fc:	e3a02000 	mov	r2, #0
2000a100:	e583203c 	str	r2, [r3, #60]	; 0x3c
2000a104:	e51b0010 	ldr	r0, [fp, #-16]
2000a108:	ebfffc6e 	bl	200092c8 <tcp_output>
2000a10c:	ea000000 	b	2000a114 <tcp_rexmit_rto+0xac>
2000a110:	e1a00000 	nop			; (mov r0, r0)
2000a114:	e24bd004 	sub	sp, fp, #4
2000a118:	e8bd4800 	pop	{fp, lr}
2000a11c:	e12fff1e 	bx	lr

2000a120 <tcp_rexmit>:
2000a120:	e92d4810 	push	{r4, fp, lr}
2000a124:	e28db008 	add	fp, sp, #8
2000a128:	e24dd014 	sub	sp, sp, #20
2000a12c:	e50b0018 	str	r0, [fp, #-24]	; 0xffffffe8
2000a130:	e51b3018 	ldr	r3, [fp, #-24]	; 0xffffffe8
2000a134:	e5933078 	ldr	r3, [r3, #120]	; 0x78
2000a138:	e3530000 	cmp	r3, #0
2000a13c:	0a000044 	beq	2000a254 <tcp_rexmit+0x134>
2000a140:	e51b3018 	ldr	r3, [fp, #-24]	; 0xffffffe8
2000a144:	e5933078 	ldr	r3, [r3, #120]	; 0x78
2000a148:	e50b3014 	str	r3, [fp, #-20]	; 0xffffffec
2000a14c:	e51b3014 	ldr	r3, [fp, #-20]	; 0xffffffec
2000a150:	e5932000 	ldr	r2, [r3]
2000a154:	e51b3018 	ldr	r3, [fp, #-24]	; 0xffffffe8
2000a158:	e5832078 	str	r2, [r3, #120]	; 0x78
2000a15c:	e51b3018 	ldr	r3, [fp, #-24]	; 0xffffffe8
2000a160:	e2833074 	add	r3, r3, #116	; 0x74
2000a164:	e50b3010 	str	r3, [fp, #-16]
2000a168:	ea000002 	b	2000a178 <tcp_rexmit+0x58>
2000a16c:	e51b3010 	ldr	r3, [fp, #-16]
2000a170:	e5933000 	ldr	r3, [r3]
2000a174:	e50b3010 	str	r3, [fp, #-16]
2000a178:	e51b3010 	ldr	r3, [fp, #-16]
2000a17c:	e5933000 	ldr	r3, [r3]
2000a180:	e3530000 	cmp	r3, #0
2000a184:	0a000021 	beq	2000a210 <tcp_rexmit+0xf0>
2000a188:	e51b3010 	ldr	r3, [fp, #-16]
2000a18c:	e5933000 	ldr	r3, [r3]
2000a190:	e5933010 	ldr	r3, [r3, #16]
2000a194:	e5d32004 	ldrb	r2, [r3, #4]
2000a198:	e5d31005 	ldrb	r1, [r3, #5]
2000a19c:	e1a01401 	lsl	r1, r1, #8
2000a1a0:	e1812002 	orr	r2, r1, r2
2000a1a4:	e5d31006 	ldrb	r1, [r3, #6]
2000a1a8:	e1a01801 	lsl	r1, r1, #16
2000a1ac:	e1812002 	orr	r2, r1, r2
2000a1b0:	e5d33007 	ldrb	r3, [r3, #7]
2000a1b4:	e1a03c03 	lsl	r3, r3, #24
2000a1b8:	e1833002 	orr	r3, r3, r2
2000a1bc:	e1a00003 	mov	r0, r3
2000a1c0:	eb000c63 	bl	2000d354 <ntohl>
2000a1c4:	e1a04000 	mov	r4, r0
2000a1c8:	e51b3014 	ldr	r3, [fp, #-20]	; 0xffffffec
2000a1cc:	e5933010 	ldr	r3, [r3, #16]
2000a1d0:	e5d32004 	ldrb	r2, [r3, #4]
2000a1d4:	e5d31005 	ldrb	r1, [r3, #5]
2000a1d8:	e1a01401 	lsl	r1, r1, #8
2000a1dc:	e1812002 	orr	r2, r1, r2
2000a1e0:	e5d31006 	ldrb	r1, [r3, #6]
2000a1e4:	e1a01801 	lsl	r1, r1, #16
2000a1e8:	e1812002 	orr	r2, r1, r2
2000a1ec:	e5d33007 	ldrb	r3, [r3, #7]
2000a1f0:	e1a03c03 	lsl	r3, r3, #24
2000a1f4:	e1833002 	orr	r3, r3, r2
2000a1f8:	e1a00003 	mov	r0, r3
2000a1fc:	eb000c54 	bl	2000d354 <ntohl>
2000a200:	e1a03000 	mov	r3, r0
2000a204:	e0633004 	rsb	r3, r3, r4
2000a208:	e3530000 	cmp	r3, #0
2000a20c:	baffffd6 	blt	2000a16c <tcp_rexmit+0x4c>
2000a210:	e51b3010 	ldr	r3, [fp, #-16]
2000a214:	e5932000 	ldr	r2, [r3]
2000a218:	e51b3014 	ldr	r3, [fp, #-20]	; 0xffffffec
2000a21c:	e5832000 	str	r2, [r3]
2000a220:	e51b3010 	ldr	r3, [fp, #-16]
2000a224:	e51b2014 	ldr	r2, [fp, #-20]	; 0xffffffec
2000a228:	e5832000 	str	r2, [r3]
2000a22c:	e51b3018 	ldr	r3, [fp, #-24]	; 0xffffffe8
2000a230:	e5d3304a 	ldrb	r3, [r3, #74]	; 0x4a
2000a234:	e2833001 	add	r3, r3, #1
2000a238:	e20320ff 	and	r2, r3, #255	; 0xff
2000a23c:	e51b3018 	ldr	r3, [fp, #-24]	; 0xffffffe8
2000a240:	e5c3204a 	strb	r2, [r3, #74]	; 0x4a
2000a244:	e51b3018 	ldr	r3, [fp, #-24]	; 0xffffffe8
2000a248:	e3a02000 	mov	r2, #0
2000a24c:	e583203c 	str	r2, [r3, #60]	; 0x3c
2000a250:	ea000000 	b	2000a258 <tcp_rexmit+0x138>
2000a254:	e1a00000 	nop			; (mov r0, r0)
2000a258:	e24bd008 	sub	sp, fp, #8
2000a25c:	e8bd4810 	pop	{r4, fp, lr}
2000a260:	e12fff1e 	bx	lr

2000a264 <tcp_rexmit_fast>:
2000a264:	e92d4800 	push	{fp, lr}
2000a268:	e28db004 	add	fp, sp, #4
2000a26c:	e24dd008 	sub	sp, sp, #8
2000a270:	e50b0008 	str	r0, [fp, #-8]
2000a274:	e51b3008 	ldr	r3, [fp, #-8]
2000a278:	e5933078 	ldr	r3, [r3, #120]	; 0x78
2000a27c:	e3530000 	cmp	r3, #0
2000a280:	0a00003e 	beq	2000a380 <tcp_rexmit_fast+0x11c>
2000a284:	e51b3008 	ldr	r3, [fp, #-8]
2000a288:	e5d33022 	ldrb	r3, [r3, #34]	; 0x22
2000a28c:	e2033004 	and	r3, r3, #4
2000a290:	e3530000 	cmp	r3, #0
2000a294:	1a000039 	bne	2000a380 <tcp_rexmit_fast+0x11c>
2000a298:	e51b0008 	ldr	r0, [fp, #-8]
2000a29c:	ebffff9f 	bl	2000a120 <tcp_rexmit>
2000a2a0:	e51b3008 	ldr	r3, [fp, #-8]
2000a2a4:	e1d325b2 	ldrh	r2, [r3, #82]	; 0x52
2000a2a8:	e51b3008 	ldr	r3, [fp, #-8]
2000a2ac:	e1d335bc 	ldrh	r3, [r3, #92]	; 0x5c
2000a2b0:	e1520003 	cmp	r2, r3
2000a2b4:	9a000007 	bls	2000a2d8 <tcp_rexmit_fast+0x74>
2000a2b8:	e51b3008 	ldr	r3, [fp, #-8]
2000a2bc:	e1d335bc 	ldrh	r3, [r3, #92]	; 0x5c
2000a2c0:	e1a030a3 	lsr	r3, r3, #1
2000a2c4:	e1a03803 	lsl	r3, r3, #16
2000a2c8:	e1a02823 	lsr	r2, r3, #16
2000a2cc:	e51b3008 	ldr	r3, [fp, #-8]
2000a2d0:	e1c325b4 	strh	r2, [r3, #84]	; 0x54
2000a2d4:	ea000006 	b	2000a2f4 <tcp_rexmit_fast+0x90>
2000a2d8:	e51b3008 	ldr	r3, [fp, #-8]
2000a2dc:	e1d335b2 	ldrh	r3, [r3, #82]	; 0x52
2000a2e0:	e1a030a3 	lsr	r3, r3, #1
2000a2e4:	e1a03803 	lsl	r3, r3, #16
2000a2e8:	e1a02823 	lsr	r2, r3, #16
2000a2ec:	e51b3008 	ldr	r3, [fp, #-8]
2000a2f0:	e1c325b4 	strh	r2, [r3, #84]	; 0x54
2000a2f4:	e51b3008 	ldr	r3, [fp, #-8]
2000a2f8:	e1d335b4 	ldrh	r3, [r3, #84]	; 0x54
2000a2fc:	e1a02003 	mov	r2, r3
2000a300:	e51b3008 	ldr	r3, [fp, #-8]
2000a304:	e1d333b8 	ldrh	r3, [r3, #56]	; 0x38
2000a308:	e1a03083 	lsl	r3, r3, #1
2000a30c:	e1520003 	cmp	r2, r3
2000a310:	aa000006 	bge	2000a330 <tcp_rexmit_fast+0xcc>
2000a314:	e51b3008 	ldr	r3, [fp, #-8]
2000a318:	e1d333b8 	ldrh	r3, [r3, #56]	; 0x38
2000a31c:	e1a03083 	lsl	r3, r3, #1
2000a320:	e1a03803 	lsl	r3, r3, #16
2000a324:	e1a02823 	lsr	r2, r3, #16
2000a328:	e51b3008 	ldr	r3, [fp, #-8]
2000a32c:	e1c325b4 	strh	r2, [r3, #84]	; 0x54
2000a330:	e51b3008 	ldr	r3, [fp, #-8]
2000a334:	e1d325b4 	ldrh	r2, [r3, #84]	; 0x54
2000a338:	e51b3008 	ldr	r3, [fp, #-8]
2000a33c:	e1d333b8 	ldrh	r3, [r3, #56]	; 0x38
2000a340:	e1a01003 	mov	r1, r3
2000a344:	e1a01081 	lsl	r1, r1, #1
2000a348:	e0813003 	add	r3, r1, r3
2000a34c:	e1a03803 	lsl	r3, r3, #16
2000a350:	e1a03823 	lsr	r3, r3, #16
2000a354:	e0823003 	add	r3, r2, r3
2000a358:	e1a03803 	lsl	r3, r3, #16
2000a35c:	e1a02823 	lsr	r2, r3, #16
2000a360:	e51b3008 	ldr	r3, [fp, #-8]
2000a364:	e1c325b2 	strh	r2, [r3, #82]	; 0x52
2000a368:	e51b3008 	ldr	r3, [fp, #-8]
2000a36c:	e5d33022 	ldrb	r3, [r3, #34]	; 0x22
2000a370:	e3833004 	orr	r3, r3, #4
2000a374:	e20320ff 	and	r2, r3, #255	; 0xff
2000a378:	e51b3008 	ldr	r3, [fp, #-8]
2000a37c:	e5c32022 	strb	r2, [r3, #34]	; 0x22
2000a380:	e1a00000 	nop			; (mov r0, r0)
2000a384:	e24bd004 	sub	sp, fp, #4
2000a388:	e8bd4800 	pop	{fp, lr}
2000a38c:	e12fff1e 	bx	lr

2000a390 <tcp_keepalive>:
2000a390:	e92d4800 	push	{fp, lr}
2000a394:	e28db004 	add	fp, sp, #4
2000a398:	e24dd018 	sub	sp, sp, #24
2000a39c:	e50b0010 	str	r0, [fp, #-16]
2000a3a0:	e3a02000 	mov	r2, #0
2000a3a4:	e3a01014 	mov	r1, #20
2000a3a8:	e3a00001 	mov	r0, #1
2000a3ac:	ebffdc78 	bl	20001594 <pbuf_alloc>
2000a3b0:	e50b0008 	str	r0, [fp, #-8]
2000a3b4:	e51b3008 	ldr	r3, [fp, #-8]
2000a3b8:	e3530000 	cmp	r3, #0
2000a3bc:	0a000036 	beq	2000a49c <tcp_keepalive+0x10c>
2000a3c0:	e51b3010 	ldr	r3, [fp, #-16]
2000a3c4:	e5933058 	ldr	r3, [r3, #88]	; 0x58
2000a3c8:	e2433001 	sub	r3, r3, #1
2000a3cc:	e1a00003 	mov	r0, r3
2000a3d0:	eb000bca 	bl	2000d300 <htonl>
2000a3d4:	e1a03000 	mov	r3, r0
2000a3d8:	e3a02000 	mov	r2, #0
2000a3dc:	e51b1008 	ldr	r1, [fp, #-8]
2000a3e0:	e51b0010 	ldr	r0, [fp, #-16]
2000a3e4:	ebfff729 	bl	20008090 <tcp_output_set_header>
2000a3e8:	e50b000c 	str	r0, [fp, #-12]
2000a3ec:	e51b1010 	ldr	r1, [fp, #-16]
2000a3f0:	e51b3010 	ldr	r3, [fp, #-16]
2000a3f4:	e2832004 	add	r2, r3, #4
2000a3f8:	e51b3008 	ldr	r3, [fp, #-8]
2000a3fc:	e1d330b8 	ldrh	r3, [r3, #8]
2000a400:	e58d3000 	str	r3, [sp]
2000a404:	e3a03006 	mov	r3, #6
2000a408:	e51b0008 	ldr	r0, [fp, #-8]
2000a40c:	eb0011fd 	bl	2000ec08 <inet_chksum_pseudo>
2000a410:	e1a03000 	mov	r3, r0
2000a414:	e1a02003 	mov	r2, r3
2000a418:	e51b300c 	ldr	r3, [fp, #-12]
2000a41c:	e20210ff 	and	r1, r2, #255	; 0xff
2000a420:	e3a00000 	mov	r0, #0
2000a424:	e1801001 	orr	r1, r0, r1
2000a428:	e5c31010 	strb	r1, [r3, #16]
2000a42c:	e1a02422 	lsr	r2, r2, #8
2000a430:	e1a02802 	lsl	r2, r2, #16
2000a434:	e1a02822 	lsr	r2, r2, #16
2000a438:	e3a01000 	mov	r1, #0
2000a43c:	e1812002 	orr	r2, r1, r2
2000a440:	e5c32011 	strb	r2, [r3, #17]
2000a444:	e59f3060 	ldr	r3, [pc, #96]	; 2000a4ac <tcp_keepalive+0x11c>
2000a448:	e1d339b0 	ldrh	r3, [r3, #144]	; 0x90
2000a44c:	e2833001 	add	r3, r3, #1
2000a450:	e1a03803 	lsl	r3, r3, #16
2000a454:	e1a03823 	lsr	r3, r3, #16
2000a458:	e59f204c 	ldr	r2, [pc, #76]	; 2000a4ac <tcp_keepalive+0x11c>
2000a45c:	e1c239b0 	strh	r3, [r2, #144]	; 0x90
2000a460:	e51b1010 	ldr	r1, [fp, #-16]
2000a464:	e51b3010 	ldr	r3, [fp, #-16]
2000a468:	e2832004 	add	r2, r3, #4
2000a46c:	e51b3010 	ldr	r3, [fp, #-16]
2000a470:	e5d3000b 	ldrb	r0, [r3, #11]
2000a474:	e3a03006 	mov	r3, #6
2000a478:	e58d3004 	str	r3, [sp, #4]
2000a47c:	e3a03000 	mov	r3, #0
2000a480:	e58d3000 	str	r3, [sp]
2000a484:	e1a03000 	mov	r3, r0
2000a488:	e51b0008 	ldr	r0, [fp, #-8]
2000a48c:	eb0009fd 	bl	2000cc88 <ip_output>
2000a490:	e51b0008 	ldr	r0, [fp, #-8]
2000a494:	ebffddf6 	bl	20001c74 <pbuf_free>
2000a498:	ea000000 	b	2000a4a0 <tcp_keepalive+0x110>
2000a49c:	e1a00000 	nop			; (mov r0, r0)
2000a4a0:	e24bd004 	sub	sp, fp, #4
2000a4a4:	e8bd4800 	pop	{fp, lr}
2000a4a8:	e12fff1e 	bx	lr
2000a4ac:	20015630 	.word	0x20015630

2000a4b0 <tcp_zero_window_probe>:
2000a4b0:	e92d4810 	push	{r4, fp, lr}
2000a4b4:	e28db008 	add	fp, sp, #8
2000a4b8:	e24dd024 	sub	sp, sp, #36	; 0x24
2000a4bc:	e50b0020 	str	r0, [fp, #-32]	; 0xffffffe0
2000a4c0:	e51b3020 	ldr	r3, [fp, #-32]	; 0xffffffe0
2000a4c4:	e5933078 	ldr	r3, [r3, #120]	; 0x78
2000a4c8:	e50b3010 	str	r3, [fp, #-16]
2000a4cc:	e51b3010 	ldr	r3, [fp, #-16]
2000a4d0:	e3530000 	cmp	r3, #0
2000a4d4:	1a000002 	bne	2000a4e4 <tcp_zero_window_probe+0x34>
2000a4d8:	e51b3020 	ldr	r3, [fp, #-32]	; 0xffffffe0
2000a4dc:	e5933074 	ldr	r3, [r3, #116]	; 0x74
2000a4e0:	e50b3010 	str	r3, [fp, #-16]
2000a4e4:	e51b3010 	ldr	r3, [fp, #-16]
2000a4e8:	e3530000 	cmp	r3, #0
2000a4ec:	0a00008b 	beq	2000a720 <tcp_zero_window_probe+0x270>
2000a4f0:	e51b3010 	ldr	r3, [fp, #-16]
2000a4f4:	e5933010 	ldr	r3, [r3, #16]
2000a4f8:	e5d3200c 	ldrb	r2, [r3, #12]
2000a4fc:	e5d3300d 	ldrb	r3, [r3, #13]
2000a500:	e1a03403 	lsl	r3, r3, #8
2000a504:	e1833002 	orr	r3, r3, r2
2000a508:	e1a03803 	lsl	r3, r3, #16
2000a50c:	e1a03823 	lsr	r3, r3, #16
2000a510:	e1a00003 	mov	r0, r3
2000a514:	eb000b6c 	bl	2000d2cc <ntohs>
2000a518:	e1a03000 	mov	r3, r0
2000a51c:	e2033001 	and	r3, r3, #1
2000a520:	e3530000 	cmp	r3, #0
2000a524:	0a000005 	beq	2000a540 <tcp_zero_window_probe+0x90>
2000a528:	e51b3010 	ldr	r3, [fp, #-16]
2000a52c:	e1d330bc 	ldrh	r3, [r3, #12]
2000a530:	e3530000 	cmp	r3, #0
2000a534:	1a000001 	bne	2000a540 <tcp_zero_window_probe+0x90>
2000a538:	e3a03001 	mov	r3, #1
2000a53c:	ea000000 	b	2000a544 <tcp_zero_window_probe+0x94>
2000a540:	e3a03000 	mov	r3, #0
2000a544:	e54b3011 	strb	r3, [fp, #-17]	; 0xffffffef
2000a548:	e55b3011 	ldrb	r3, [fp, #-17]	; 0xffffffef
2000a54c:	e3530000 	cmp	r3, #0
2000a550:	0a000001 	beq	2000a55c <tcp_zero_window_probe+0xac>
2000a554:	e3a03014 	mov	r3, #20
2000a558:	ea000000 	b	2000a560 <tcp_zero_window_probe+0xb0>
2000a55c:	e3a03015 	mov	r3, #21
2000a560:	e14b31b4 	strh	r3, [fp, #-20]	; 0xffffffec
2000a564:	e15b31b4 	ldrh	r3, [fp, #-20]	; 0xffffffec
2000a568:	e3a02000 	mov	r2, #0
2000a56c:	e1a01003 	mov	r1, r3
2000a570:	e3a00001 	mov	r0, #1
2000a574:	ebffdc06 	bl	20001594 <pbuf_alloc>
2000a578:	e50b0018 	str	r0, [fp, #-24]	; 0xffffffe8
2000a57c:	e51b3018 	ldr	r3, [fp, #-24]	; 0xffffffe8
2000a580:	e3530000 	cmp	r3, #0
2000a584:	0a000067 	beq	2000a728 <tcp_zero_window_probe+0x278>
2000a588:	e51b3010 	ldr	r3, [fp, #-16]
2000a58c:	e5933010 	ldr	r3, [r3, #16]
2000a590:	e5d32004 	ldrb	r2, [r3, #4]
2000a594:	e5d31005 	ldrb	r1, [r3, #5]
2000a598:	e1a01401 	lsl	r1, r1, #8
2000a59c:	e1812002 	orr	r2, r1, r2
2000a5a0:	e5d31006 	ldrb	r1, [r3, #6]
2000a5a4:	e1a01801 	lsl	r1, r1, #16
2000a5a8:	e1812002 	orr	r2, r1, r2
2000a5ac:	e5d33007 	ldrb	r3, [r3, #7]
2000a5b0:	e1a03c03 	lsl	r3, r3, #24
2000a5b4:	e1833002 	orr	r3, r3, r2
2000a5b8:	e3a02000 	mov	r2, #0
2000a5bc:	e51b1018 	ldr	r1, [fp, #-24]	; 0xffffffe8
2000a5c0:	e51b0020 	ldr	r0, [fp, #-32]	; 0xffffffe0
2000a5c4:	ebfff6b1 	bl	20008090 <tcp_output_set_header>
2000a5c8:	e50b001c 	str	r0, [fp, #-28]	; 0xffffffe4
2000a5cc:	e55b3011 	ldrb	r3, [fp, #-17]	; 0xffffffef
2000a5d0:	e3530000 	cmp	r3, #0
2000a5d4:	0a00001e 	beq	2000a654 <tcp_zero_window_probe+0x1a4>
2000a5d8:	e51b301c 	ldr	r3, [fp, #-28]	; 0xffffffe4
2000a5dc:	e5d3200c 	ldrb	r2, [r3, #12]
2000a5e0:	e5d3300d 	ldrb	r3, [r3, #13]
2000a5e4:	e1a03403 	lsl	r3, r3, #8
2000a5e8:	e1833002 	orr	r3, r3, r2
2000a5ec:	e1a03803 	lsl	r3, r3, #16
2000a5f0:	e1a04823 	lsr	r4, r3, #16
2000a5f4:	e59f013c 	ldr	r0, [pc, #316]	; 2000a738 <tcp_zero_window_probe+0x288>
2000a5f8:	eb000b1b 	bl	2000d26c <htons>
2000a5fc:	e1a03000 	mov	r3, r0
2000a600:	e0033004 	and	r3, r3, r4
2000a604:	e1a03803 	lsl	r3, r3, #16
2000a608:	e1a04823 	lsr	r4, r3, #16
2000a60c:	e3a00011 	mov	r0, #17
2000a610:	eb000b15 	bl	2000d26c <htons>
2000a614:	e1a03000 	mov	r3, r0
2000a618:	e1843003 	orr	r3, r4, r3
2000a61c:	e1a03803 	lsl	r3, r3, #16
2000a620:	e1a02823 	lsr	r2, r3, #16
2000a624:	e51b301c 	ldr	r3, [fp, #-28]	; 0xffffffe4
2000a628:	e20210ff 	and	r1, r2, #255	; 0xff
2000a62c:	e3a00000 	mov	r0, #0
2000a630:	e1801001 	orr	r1, r0, r1
2000a634:	e5c3100c 	strb	r1, [r3, #12]
2000a638:	e1a02422 	lsr	r2, r2, #8
2000a63c:	e1a02802 	lsl	r2, r2, #16
2000a640:	e1a02822 	lsr	r2, r2, #16
2000a644:	e3a01000 	mov	r1, #0
2000a648:	e1812002 	orr	r2, r1, r2
2000a64c:	e5c3200d 	strb	r2, [r3, #13]
2000a650:	ea000006 	b	2000a670 <tcp_zero_window_probe+0x1c0>
2000a654:	e51b3018 	ldr	r3, [fp, #-24]	; 0xffffffe8
2000a658:	e5933004 	ldr	r3, [r3, #4]
2000a65c:	e2833014 	add	r3, r3, #20
2000a660:	e51b2010 	ldr	r2, [fp, #-16]
2000a664:	e5922008 	ldr	r2, [r2, #8]
2000a668:	e5d22000 	ldrb	r2, [r2]
2000a66c:	e5c32000 	strb	r2, [r3]
2000a670:	e51b1020 	ldr	r1, [fp, #-32]	; 0xffffffe0
2000a674:	e51b3020 	ldr	r3, [fp, #-32]	; 0xffffffe0
2000a678:	e2832004 	add	r2, r3, #4
2000a67c:	e51b3018 	ldr	r3, [fp, #-24]	; 0xffffffe8
2000a680:	e1d330b8 	ldrh	r3, [r3, #8]
2000a684:	e58d3000 	str	r3, [sp]
2000a688:	e3a03006 	mov	r3, #6
2000a68c:	e51b0018 	ldr	r0, [fp, #-24]	; 0xffffffe8
2000a690:	eb00115c 	bl	2000ec08 <inet_chksum_pseudo>
2000a694:	e1a03000 	mov	r3, r0
2000a698:	e1a02003 	mov	r2, r3
2000a69c:	e51b301c 	ldr	r3, [fp, #-28]	; 0xffffffe4
2000a6a0:	e20210ff 	and	r1, r2, #255	; 0xff
2000a6a4:	e3a00000 	mov	r0, #0
2000a6a8:	e1801001 	orr	r1, r0, r1
2000a6ac:	e5c31010 	strb	r1, [r3, #16]
2000a6b0:	e1a02422 	lsr	r2, r2, #8
2000a6b4:	e1a02802 	lsl	r2, r2, #16
2000a6b8:	e1a02822 	lsr	r2, r2, #16
2000a6bc:	e3a01000 	mov	r1, #0
2000a6c0:	e1812002 	orr	r2, r1, r2
2000a6c4:	e5c32011 	strb	r2, [r3, #17]
2000a6c8:	e59f306c 	ldr	r3, [pc, #108]	; 2000a73c <tcp_zero_window_probe+0x28c>
2000a6cc:	e1d339b0 	ldrh	r3, [r3, #144]	; 0x90
2000a6d0:	e2833001 	add	r3, r3, #1
2000a6d4:	e1a03803 	lsl	r3, r3, #16
2000a6d8:	e1a03823 	lsr	r3, r3, #16
2000a6dc:	e59f2058 	ldr	r2, [pc, #88]	; 2000a73c <tcp_zero_window_probe+0x28c>
2000a6e0:	e1c239b0 	strh	r3, [r2, #144]	; 0x90
2000a6e4:	e51b1020 	ldr	r1, [fp, #-32]	; 0xffffffe0
2000a6e8:	e51b3020 	ldr	r3, [fp, #-32]	; 0xffffffe0
2000a6ec:	e2832004 	add	r2, r3, #4
2000a6f0:	e51b3020 	ldr	r3, [fp, #-32]	; 0xffffffe0
2000a6f4:	e5d3000b 	ldrb	r0, [r3, #11]
2000a6f8:	e3a03006 	mov	r3, #6
2000a6fc:	e58d3004 	str	r3, [sp, #4]
2000a700:	e3a03000 	mov	r3, #0
2000a704:	e58d3000 	str	r3, [sp]
2000a708:	e1a03000 	mov	r3, r0
2000a70c:	e51b0018 	ldr	r0, [fp, #-24]	; 0xffffffe8
2000a710:	eb00095c 	bl	2000cc88 <ip_output>
2000a714:	e51b0018 	ldr	r0, [fp, #-24]	; 0xffffffe8
2000a718:	ebffdd55 	bl	20001c74 <pbuf_free>
2000a71c:	ea000002 	b	2000a72c <tcp_zero_window_probe+0x27c>
2000a720:	e1a00000 	nop			; (mov r0, r0)
2000a724:	ea000000 	b	2000a72c <tcp_zero_window_probe+0x27c>
2000a728:	e1a00000 	nop			; (mov r0, r0)
2000a72c:	e24bd008 	sub	sp, fp, #8
2000a730:	e8bd4810 	pop	{r4, fp, lr}
2000a734:	e12fff1e 	bx	lr
2000a738:	0000ffc0 	.word	0x0000ffc0
2000a73c:	20015630 	.word	0x20015630

2000a740 <udp_input>:
2000a740:	e92d4810 	push	{r4, fp, lr}
2000a744:	e28db008 	add	fp, sp, #8
2000a748:	e24dd034 	sub	sp, sp, #52	; 0x34
2000a74c:	e50b0030 	str	r0, [fp, #-48]	; 0xffffffd0
2000a750:	e50b1034 	str	r1, [fp, #-52]	; 0xffffffcc
2000a754:	e59f3660 	ldr	r3, [pc, #1632]	; 2000adbc <udp_input+0x67c>
2000a758:	e1d337ba 	ldrh	r3, [r3, #122]	; 0x7a
2000a75c:	e2833001 	add	r3, r3, #1
2000a760:	e1a03803 	lsl	r3, r3, #16
2000a764:	e1a03823 	lsr	r3, r3, #16
2000a768:	e59f264c 	ldr	r2, [pc, #1612]	; 2000adbc <udp_input+0x67c>
2000a76c:	e1c237ba 	strh	r3, [r2, #122]	; 0x7a
2000a770:	e51b3030 	ldr	r3, [fp, #-48]	; 0xffffffd0
2000a774:	e5933004 	ldr	r3, [r3, #4]
2000a778:	e50b3020 	str	r3, [fp, #-32]	; 0xffffffe0
2000a77c:	e51b3030 	ldr	r3, [fp, #-48]	; 0xffffffd0
2000a780:	e1d330b8 	ldrh	r3, [r3, #8]
2000a784:	e1a04003 	mov	r4, r3
2000a788:	e51b3020 	ldr	r3, [fp, #-32]	; 0xffffffe0
2000a78c:	e5d32000 	ldrb	r2, [r3]
2000a790:	e5d33001 	ldrb	r3, [r3, #1]
2000a794:	e1a03403 	lsl	r3, r3, #8
2000a798:	e1833002 	orr	r3, r3, r2
2000a79c:	e1a03803 	lsl	r3, r3, #16
2000a7a0:	e1a03823 	lsr	r3, r3, #16
2000a7a4:	e1a00003 	mov	r0, r3
2000a7a8:	eb000ac7 	bl	2000d2cc <ntohs>
2000a7ac:	e1a03000 	mov	r3, r0
2000a7b0:	e1a03423 	lsr	r3, r3, #8
2000a7b4:	e1a03803 	lsl	r3, r3, #16
2000a7b8:	e1a03823 	lsr	r3, r3, #16
2000a7bc:	e203300f 	and	r3, r3, #15
2000a7c0:	e2833002 	add	r3, r3, #2
2000a7c4:	e1a03103 	lsl	r3, r3, #2
2000a7c8:	e1540003 	cmp	r4, r3
2000a7cc:	ba00001f 	blt	2000a850 <udp_input+0x110>
2000a7d0:	e51b3020 	ldr	r3, [fp, #-32]	; 0xffffffe0
2000a7d4:	e5d32000 	ldrb	r2, [r3]
2000a7d8:	e5d33001 	ldrb	r3, [r3, #1]
2000a7dc:	e1a03403 	lsl	r3, r3, #8
2000a7e0:	e1833002 	orr	r3, r3, r2
2000a7e4:	e1a03803 	lsl	r3, r3, #16
2000a7e8:	e1a03823 	lsr	r3, r3, #16
2000a7ec:	e1a00003 	mov	r0, r3
2000a7f0:	eb000ab5 	bl	2000d2cc <ntohs>
2000a7f4:	e1a03000 	mov	r3, r0
2000a7f8:	e1a03423 	lsr	r3, r3, #8
2000a7fc:	e1a03803 	lsl	r3, r3, #16
2000a800:	e1a03823 	lsr	r3, r3, #16
2000a804:	e203300f 	and	r3, r3, #15
2000a808:	e1a03803 	lsl	r3, r3, #16
2000a80c:	e1a03823 	lsr	r3, r3, #16
2000a810:	e1a03103 	lsl	r3, r3, #2
2000a814:	e1a03803 	lsl	r3, r3, #16
2000a818:	e1a03823 	lsr	r3, r3, #16
2000a81c:	e2633000 	rsb	r3, r3, #0
2000a820:	e1a03803 	lsl	r3, r3, #16
2000a824:	e1a03823 	lsr	r3, r3, #16
2000a828:	e1a03803 	lsl	r3, r3, #16
2000a82c:	e1a03823 	lsr	r3, r3, #16
2000a830:	e1a03803 	lsl	r3, r3, #16
2000a834:	e1a03843 	asr	r3, r3, #16
2000a838:	e1a01003 	mov	r1, r3
2000a83c:	e51b0030 	ldr	r0, [fp, #-48]	; 0xffffffd0
2000a840:	ebffdca1 	bl	20001acc <pbuf_header>
2000a844:	e1a03000 	mov	r3, r0
2000a848:	e3530000 	cmp	r3, #0
2000a84c:	0a000010 	beq	2000a894 <udp_input+0x154>
2000a850:	e59f3564 	ldr	r3, [pc, #1380]	; 2000adbc <udp_input+0x67c>
2000a854:	e1d338b2 	ldrh	r3, [r3, #130]	; 0x82
2000a858:	e2833001 	add	r3, r3, #1
2000a85c:	e1a03803 	lsl	r3, r3, #16
2000a860:	e1a03823 	lsr	r3, r3, #16
2000a864:	e59f2550 	ldr	r2, [pc, #1360]	; 2000adbc <udp_input+0x67c>
2000a868:	e1c238b2 	strh	r3, [r2, #130]	; 0x82
2000a86c:	e59f3548 	ldr	r3, [pc, #1352]	; 2000adbc <udp_input+0x67c>
2000a870:	e1d337be 	ldrh	r3, [r3, #126]	; 0x7e
2000a874:	e2833001 	add	r3, r3, #1
2000a878:	e1a03803 	lsl	r3, r3, #16
2000a87c:	e1a03823 	lsr	r3, r3, #16
2000a880:	e59f2534 	ldr	r2, [pc, #1332]	; 2000adbc <udp_input+0x67c>
2000a884:	e1c237be 	strh	r3, [r2, #126]	; 0x7e
2000a888:	e51b0030 	ldr	r0, [fp, #-48]	; 0xffffffd0
2000a88c:	ebffdcf8 	bl	20001c74 <pbuf_free>
2000a890:	ea000145 	b	2000adac <udp_input+0x66c>
2000a894:	e51b3030 	ldr	r3, [fp, #-48]	; 0xffffffd0
2000a898:	e5933004 	ldr	r3, [r3, #4]
2000a89c:	e50b3024 	str	r3, [fp, #-36]	; 0xffffffdc
2000a8a0:	e51b3020 	ldr	r3, [fp, #-32]	; 0xffffffe0
2000a8a4:	e2833010 	add	r3, r3, #16
2000a8a8:	e51b1034 	ldr	r1, [fp, #-52]	; 0xffffffcc
2000a8ac:	e1a00003 	mov	r0, r3
2000a8b0:	eb000ab2 	bl	2000d380 <ip_addr_isbroadcast>
2000a8b4:	e1a03000 	mov	r3, r0
2000a8b8:	e54b3025 	strb	r3, [fp, #-37]	; 0xffffffdb
2000a8bc:	e51b3024 	ldr	r3, [fp, #-36]	; 0xffffffdc
2000a8c0:	e5d32000 	ldrb	r2, [r3]
2000a8c4:	e5d33001 	ldrb	r3, [r3, #1]
2000a8c8:	e1a03403 	lsl	r3, r3, #8
2000a8cc:	e1833002 	orr	r3, r3, r2
2000a8d0:	e1a03803 	lsl	r3, r3, #16
2000a8d4:	e1a03823 	lsr	r3, r3, #16
2000a8d8:	e1a00003 	mov	r0, r3
2000a8dc:	eb000a7a 	bl	2000d2cc <ntohs>
2000a8e0:	e1a03000 	mov	r3, r0
2000a8e4:	e14b32b8 	strh	r3, [fp, #-40]	; 0xffffffd8
2000a8e8:	e51b3024 	ldr	r3, [fp, #-36]	; 0xffffffdc
2000a8ec:	e5d32002 	ldrb	r2, [r3, #2]
2000a8f0:	e5d33003 	ldrb	r3, [r3, #3]
2000a8f4:	e1a03403 	lsl	r3, r3, #8
2000a8f8:	e1833002 	orr	r3, r3, r2
2000a8fc:	e1a03803 	lsl	r3, r3, #16
2000a900:	e1a03823 	lsr	r3, r3, #16
2000a904:	e1a00003 	mov	r0, r3
2000a908:	eb000a6f 	bl	2000d2cc <ntohs>
2000a90c:	e1a03000 	mov	r3, r0
2000a910:	e14b32ba 	strh	r3, [fp, #-42]	; 0xffffffd6
2000a914:	e3a03000 	mov	r3, #0
2000a918:	e50b3014 	str	r3, [fp, #-20]	; 0xffffffec
2000a91c:	e3a03000 	mov	r3, #0
2000a920:	e54b3019 	strb	r3, [fp, #-25]	; 0xffffffe7
2000a924:	e3a03000 	mov	r3, #0
2000a928:	e50b3018 	str	r3, [fp, #-24]	; 0xffffffe8
2000a92c:	e59f348c 	ldr	r3, [pc, #1164]	; 2000adc0 <udp_input+0x680>
2000a930:	e5933000 	ldr	r3, [r3]
2000a934:	e50b3010 	str	r3, [fp, #-16]
2000a938:	ea000069 	b	2000aae4 <udp_input+0x3a4>
2000a93c:	e3a03000 	mov	r3, #0
2000a940:	e54b3019 	strb	r3, [fp, #-25]	; 0xffffffe7
2000a944:	e51b3010 	ldr	r3, [fp, #-16]
2000a948:	e1d331b2 	ldrh	r3, [r3, #18]
2000a94c:	e15b22ba 	ldrh	r2, [fp, #-42]	; 0xffffffd6
2000a950:	e1520003 	cmp	r2, r3
2000a954:	1a000027 	bne	2000a9f8 <udp_input+0x2b8>
2000a958:	e55b3025 	ldrb	r3, [fp, #-37]	; 0xffffffdb
2000a95c:	e3530000 	cmp	r3, #0
2000a960:	1a000006 	bne	2000a980 <udp_input+0x240>
2000a964:	e51b3010 	ldr	r3, [fp, #-16]
2000a968:	e3530000 	cmp	r3, #0
2000a96c:	0a000015 	beq	2000a9c8 <udp_input+0x288>
2000a970:	e51b3010 	ldr	r3, [fp, #-16]
2000a974:	e5933000 	ldr	r3, [r3]
2000a978:	e3530000 	cmp	r3, #0
2000a97c:	0a000011 	beq	2000a9c8 <udp_input+0x288>
2000a980:	e51b3010 	ldr	r3, [fp, #-16]
2000a984:	e5932000 	ldr	r2, [r3]
2000a988:	e51b3020 	ldr	r3, [fp, #-32]	; 0xffffffe0
2000a98c:	e5d31010 	ldrb	r1, [r3, #16]
2000a990:	e5d30011 	ldrb	r0, [r3, #17]
2000a994:	e1a00400 	lsl	r0, r0, #8
2000a998:	e1801001 	orr	r1, r0, r1
2000a99c:	e5d30012 	ldrb	r0, [r3, #18]
2000a9a0:	e1a00800 	lsl	r0, r0, #16
2000a9a4:	e1801001 	orr	r1, r0, r1
2000a9a8:	e5d33013 	ldrb	r3, [r3, #19]
2000a9ac:	e1a03c03 	lsl	r3, r3, #24
2000a9b0:	e1833001 	orr	r3, r3, r1
2000a9b4:	e1520003 	cmp	r2, r3
2000a9b8:	0a000002 	beq	2000a9c8 <udp_input+0x288>
2000a9bc:	e55b3025 	ldrb	r3, [fp, #-37]	; 0xffffffdb
2000a9c0:	e3530000 	cmp	r3, #0
2000a9c4:	0a00000b 	beq	2000a9f8 <udp_input+0x2b8>
2000a9c8:	e3a03001 	mov	r3, #1
2000a9cc:	e54b3019 	strb	r3, [fp, #-25]	; 0xffffffe7
2000a9d0:	e51b3018 	ldr	r3, [fp, #-24]	; 0xffffffe8
2000a9d4:	e3530000 	cmp	r3, #0
2000a9d8:	1a000006 	bne	2000a9f8 <udp_input+0x2b8>
2000a9dc:	e51b3010 	ldr	r3, [fp, #-16]
2000a9e0:	e5d33010 	ldrb	r3, [r3, #16]
2000a9e4:	e2033004 	and	r3, r3, #4
2000a9e8:	e3530000 	cmp	r3, #0
2000a9ec:	1a000001 	bne	2000a9f8 <udp_input+0x2b8>
2000a9f0:	e51b3010 	ldr	r3, [fp, #-16]
2000a9f4:	e50b3018 	str	r3, [fp, #-24]	; 0xffffffe8
2000a9f8:	e55b3019 	ldrb	r3, [fp, #-25]	; 0xffffffe7
2000a9fc:	e3530000 	cmp	r3, #0
2000aa00:	0a000032 	beq	2000aad0 <udp_input+0x390>
2000aa04:	e51b3010 	ldr	r3, [fp, #-16]
2000aa08:	e1d331b4 	ldrh	r3, [r3, #20]
2000aa0c:	e15b22b8 	ldrh	r2, [fp, #-40]	; 0xffffffd8
2000aa10:	e1520003 	cmp	r2, r3
2000aa14:	1a00002d 	bne	2000aad0 <udp_input+0x390>
2000aa18:	e51b3010 	ldr	r3, [fp, #-16]
2000aa1c:	e2833004 	add	r3, r3, #4
2000aa20:	e3530000 	cmp	r3, #0
2000aa24:	0a000012 	beq	2000aa74 <udp_input+0x334>
2000aa28:	e51b3010 	ldr	r3, [fp, #-16]
2000aa2c:	e5933004 	ldr	r3, [r3, #4]
2000aa30:	e3530000 	cmp	r3, #0
2000aa34:	0a00000e 	beq	2000aa74 <udp_input+0x334>
2000aa38:	e51b3010 	ldr	r3, [fp, #-16]
2000aa3c:	e5932004 	ldr	r2, [r3, #4]
2000aa40:	e51b3020 	ldr	r3, [fp, #-32]	; 0xffffffe0
2000aa44:	e5d3100c 	ldrb	r1, [r3, #12]
2000aa48:	e5d3000d 	ldrb	r0, [r3, #13]
2000aa4c:	e1a00400 	lsl	r0, r0, #8
2000aa50:	e1801001 	orr	r1, r0, r1
2000aa54:	e5d3000e 	ldrb	r0, [r3, #14]
2000aa58:	e1a00800 	lsl	r0, r0, #16
2000aa5c:	e1801001 	orr	r1, r0, r1
2000aa60:	e5d3300f 	ldrb	r3, [r3, #15]
2000aa64:	e1a03c03 	lsl	r3, r3, #24
2000aa68:	e1833001 	orr	r3, r3, r1
2000aa6c:	e1520003 	cmp	r2, r3
2000aa70:	1a000016 	bne	2000aad0 <udp_input+0x390>
2000aa74:	e51b3014 	ldr	r3, [fp, #-20]	; 0xffffffec
2000aa78:	e3530000 	cmp	r3, #0
2000aa7c:	0a00000b 	beq	2000aab0 <udp_input+0x370>
2000aa80:	e51b3010 	ldr	r3, [fp, #-16]
2000aa84:	e593200c 	ldr	r2, [r3, #12]
2000aa88:	e51b3014 	ldr	r3, [fp, #-20]	; 0xffffffec
2000aa8c:	e583200c 	str	r2, [r3, #12]
2000aa90:	e59f3328 	ldr	r3, [pc, #808]	; 2000adc0 <udp_input+0x680>
2000aa94:	e5932000 	ldr	r2, [r3]
2000aa98:	e51b3010 	ldr	r3, [fp, #-16]
2000aa9c:	e583200c 	str	r2, [r3, #12]
2000aaa0:	e59f2318 	ldr	r2, [pc, #792]	; 2000adc0 <udp_input+0x680>
2000aaa4:	e51b3010 	ldr	r3, [fp, #-16]
2000aaa8:	e5823000 	str	r3, [r2]
2000aaac:	ea00000f 	b	2000aaf0 <udp_input+0x3b0>
2000aab0:	e59f3304 	ldr	r3, [pc, #772]	; 2000adbc <udp_input+0x67c>
2000aab4:	e1d338be 	ldrh	r3, [r3, #142]	; 0x8e
2000aab8:	e2833001 	add	r3, r3, #1
2000aabc:	e1a03803 	lsl	r3, r3, #16
2000aac0:	e1a03823 	lsr	r3, r3, #16
2000aac4:	e59f22f0 	ldr	r2, [pc, #752]	; 2000adbc <udp_input+0x67c>
2000aac8:	e1c238be 	strh	r3, [r2, #142]	; 0x8e
2000aacc:	ea000007 	b	2000aaf0 <udp_input+0x3b0>
2000aad0:	e51b3010 	ldr	r3, [fp, #-16]
2000aad4:	e50b3014 	str	r3, [fp, #-20]	; 0xffffffec
2000aad8:	e51b3010 	ldr	r3, [fp, #-16]
2000aadc:	e593300c 	ldr	r3, [r3, #12]
2000aae0:	e50b3010 	str	r3, [fp, #-16]
2000aae4:	e51b3010 	ldr	r3, [fp, #-16]
2000aae8:	e3530000 	cmp	r3, #0
2000aaec:	1affff92 	bne	2000a93c <udp_input+0x1fc>
2000aaf0:	e51b3010 	ldr	r3, [fp, #-16]
2000aaf4:	e3530000 	cmp	r3, #0
2000aaf8:	1a000001 	bne	2000ab04 <udp_input+0x3c4>
2000aafc:	e51b3018 	ldr	r3, [fp, #-24]	; 0xffffffe8
2000ab00:	e50b3010 	str	r3, [fp, #-16]
2000ab04:	e51b3010 	ldr	r3, [fp, #-16]
2000ab08:	e3530000 	cmp	r3, #0
2000ab0c:	1a00000e 	bne	2000ab4c <udp_input+0x40c>
2000ab10:	e51b3034 	ldr	r3, [fp, #-52]	; 0xffffffcc
2000ab14:	e5932004 	ldr	r2, [r3, #4]
2000ab18:	e51b3020 	ldr	r3, [fp, #-32]	; 0xffffffe0
2000ab1c:	e5d31010 	ldrb	r1, [r3, #16]
2000ab20:	e5d30011 	ldrb	r0, [r3, #17]
2000ab24:	e1a00400 	lsl	r0, r0, #8
2000ab28:	e1801001 	orr	r1, r0, r1
2000ab2c:	e5d30012 	ldrb	r0, [r3, #18]
2000ab30:	e1a00800 	lsl	r0, r0, #16
2000ab34:	e1801001 	orr	r1, r0, r1
2000ab38:	e5d33013 	ldrb	r3, [r3, #19]
2000ab3c:	e1a03c03 	lsl	r3, r3, #24
2000ab40:	e1833001 	orr	r3, r3, r1
2000ab44:	e1520003 	cmp	r2, r3
2000ab48:	1a000095 	bne	2000ada4 <udp_input+0x664>
2000ab4c:	e51b3024 	ldr	r3, [fp, #-36]	; 0xffffffdc
2000ab50:	e5d32006 	ldrb	r2, [r3, #6]
2000ab54:	e5d33007 	ldrb	r3, [r3, #7]
2000ab58:	e1a03403 	lsl	r3, r3, #8
2000ab5c:	e1833002 	orr	r3, r3, r2
2000ab60:	e1a03803 	lsl	r3, r3, #16
2000ab64:	e1a03823 	lsr	r3, r3, #16
2000ab68:	e3530000 	cmp	r3, #0
2000ab6c:	0a00001d 	beq	2000abe8 <udp_input+0x4a8>
2000ab70:	e51b3020 	ldr	r3, [fp, #-32]	; 0xffffffe0
2000ab74:	e283100c 	add	r1, r3, #12
2000ab78:	e51b3020 	ldr	r3, [fp, #-32]	; 0xffffffe0
2000ab7c:	e2832010 	add	r2, r3, #16
2000ab80:	e51b3030 	ldr	r3, [fp, #-48]	; 0xffffffd0
2000ab84:	e1d330b8 	ldrh	r3, [r3, #8]
2000ab88:	e58d3000 	str	r3, [sp]
2000ab8c:	e3a03011 	mov	r3, #17
2000ab90:	e51b0030 	ldr	r0, [fp, #-48]	; 0xffffffd0
2000ab94:	eb00101b 	bl	2000ec08 <inet_chksum_pseudo>
2000ab98:	e1a03000 	mov	r3, r0
2000ab9c:	e3530000 	cmp	r3, #0
2000aba0:	0a000010 	beq	2000abe8 <udp_input+0x4a8>
2000aba4:	e59f3210 	ldr	r3, [pc, #528]	; 2000adbc <udp_input+0x67c>
2000aba8:	e1d338b0 	ldrh	r3, [r3, #128]	; 0x80
2000abac:	e2833001 	add	r3, r3, #1
2000abb0:	e1a03803 	lsl	r3, r3, #16
2000abb4:	e1a03823 	lsr	r3, r3, #16
2000abb8:	e59f21fc 	ldr	r2, [pc, #508]	; 2000adbc <udp_input+0x67c>
2000abbc:	e1c238b0 	strh	r3, [r2, #128]	; 0x80
2000abc0:	e59f31f4 	ldr	r3, [pc, #500]	; 2000adbc <udp_input+0x67c>
2000abc4:	e1d337be 	ldrh	r3, [r3, #126]	; 0x7e
2000abc8:	e2833001 	add	r3, r3, #1
2000abcc:	e1a03803 	lsl	r3, r3, #16
2000abd0:	e1a03823 	lsr	r3, r3, #16
2000abd4:	e59f21e0 	ldr	r2, [pc, #480]	; 2000adbc <udp_input+0x67c>
2000abd8:	e1c237be 	strh	r3, [r2, #126]	; 0x7e
2000abdc:	e51b0030 	ldr	r0, [fp, #-48]	; 0xffffffd0
2000abe0:	ebffdc23 	bl	20001c74 <pbuf_free>
2000abe4:	ea000070 	b	2000adac <udp_input+0x66c>
2000abe8:	e3e01007 	mvn	r1, #7
2000abec:	e51b0030 	ldr	r0, [fp, #-48]	; 0xffffffd0
2000abf0:	ebffdbb5 	bl	20001acc <pbuf_header>
2000abf4:	e1a03000 	mov	r3, r0
2000abf8:	e3530000 	cmp	r3, #0
2000abfc:	0a000009 	beq	2000ac28 <udp_input+0x4e8>
2000ac00:	e59f31b4 	ldr	r3, [pc, #436]	; 2000adbc <udp_input+0x67c>
2000ac04:	e1d337be 	ldrh	r3, [r3, #126]	; 0x7e
2000ac08:	e2833001 	add	r3, r3, #1
2000ac0c:	e1a03803 	lsl	r3, r3, #16
2000ac10:	e1a03823 	lsr	r3, r3, #16
2000ac14:	e59f21a0 	ldr	r2, [pc, #416]	; 2000adbc <udp_input+0x67c>
2000ac18:	e1c237be 	strh	r3, [r2, #126]	; 0x7e
2000ac1c:	e51b0030 	ldr	r0, [fp, #-48]	; 0xffffffd0
2000ac20:	ebffdc13 	bl	20001c74 <pbuf_free>
2000ac24:	ea000060 	b	2000adac <udp_input+0x66c>
2000ac28:	e51b3010 	ldr	r3, [fp, #-16]
2000ac2c:	e3530000 	cmp	r3, #0
2000ac30:	0a000014 	beq	2000ac88 <udp_input+0x548>
2000ac34:	e51b3010 	ldr	r3, [fp, #-16]
2000ac38:	e5933018 	ldr	r3, [r3, #24]
2000ac3c:	e3530000 	cmp	r3, #0
2000ac40:	0a00000d 	beq	2000ac7c <udp_input+0x53c>
2000ac44:	e51b3010 	ldr	r3, [fp, #-16]
2000ac48:	e5934018 	ldr	r4, [r3, #24]
2000ac4c:	e51b3010 	ldr	r3, [fp, #-16]
2000ac50:	e593001c 	ldr	r0, [r3, #28]
2000ac54:	e51b3020 	ldr	r3, [fp, #-32]	; 0xffffffe0
2000ac58:	e283200c 	add	r2, r3, #12
2000ac5c:	e15b32b8 	ldrh	r3, [fp, #-40]	; 0xffffffd8
2000ac60:	e58d3000 	str	r3, [sp]
2000ac64:	e1a03002 	mov	r3, r2
2000ac68:	e51b2030 	ldr	r2, [fp, #-48]	; 0xffffffd0
2000ac6c:	e51b1010 	ldr	r1, [fp, #-16]
2000ac70:	e1a0e00f 	mov	lr, pc
2000ac74:	e12fff14 	bx	r4
2000ac78:	ea00004b 	b	2000adac <udp_input+0x66c>
2000ac7c:	e51b0030 	ldr	r0, [fp, #-48]	; 0xffffffd0
2000ac80:	ebffdbfb 	bl	20001c74 <pbuf_free>
2000ac84:	ea000048 	b	2000adac <udp_input+0x66c>
2000ac88:	e55b3025 	ldrb	r3, [fp, #-37]	; 0xffffffdb
2000ac8c:	e3530000 	cmp	r3, #0
2000ac90:	1a000032 	bne	2000ad60 <udp_input+0x620>
2000ac94:	e51b3020 	ldr	r3, [fp, #-32]	; 0xffffffe0
2000ac98:	e5d32010 	ldrb	r2, [r3, #16]
2000ac9c:	e5d31011 	ldrb	r1, [r3, #17]
2000aca0:	e1a01401 	lsl	r1, r1, #8
2000aca4:	e1812002 	orr	r2, r1, r2
2000aca8:	e5d31012 	ldrb	r1, [r3, #18]
2000acac:	e1a01801 	lsl	r1, r1, #16
2000acb0:	e1812002 	orr	r2, r1, r2
2000acb4:	e5d33013 	ldrb	r3, [r3, #19]
2000acb8:	e1a03c03 	lsl	r3, r3, #24
2000acbc:	e1833002 	orr	r3, r3, r2
2000acc0:	e1a04003 	mov	r4, r3
2000acc4:	e3a0020f 	mov	r0, #-268435456	; 0xf0000000
2000acc8:	eb0009a1 	bl	2000d354 <ntohl>
2000accc:	e1a03000 	mov	r3, r0
2000acd0:	e0044003 	and	r4, r4, r3
2000acd4:	e3a0020e 	mov	r0, #-536870912	; 0xe0000000
2000acd8:	eb00099d 	bl	2000d354 <ntohl>
2000acdc:	e1a03000 	mov	r3, r0
2000ace0:	e1540003 	cmp	r4, r3
2000ace4:	0a00001d 	beq	2000ad60 <udp_input+0x620>
2000ace8:	e51b3020 	ldr	r3, [fp, #-32]	; 0xffffffe0
2000acec:	e5d32000 	ldrb	r2, [r3]
2000acf0:	e5d33001 	ldrb	r3, [r3, #1]
2000acf4:	e1a03403 	lsl	r3, r3, #8
2000acf8:	e1833002 	orr	r3, r3, r2
2000acfc:	e1a03803 	lsl	r3, r3, #16
2000ad00:	e1a03823 	lsr	r3, r3, #16
2000ad04:	e1a00003 	mov	r0, r3
2000ad08:	eb00096f 	bl	2000d2cc <ntohs>
2000ad0c:	e1a03000 	mov	r3, r0
2000ad10:	e1a03423 	lsr	r3, r3, #8
2000ad14:	e1a03803 	lsl	r3, r3, #16
2000ad18:	e1a03823 	lsr	r3, r3, #16
2000ad1c:	e203300f 	and	r3, r3, #15
2000ad20:	e2833002 	add	r3, r3, #2
2000ad24:	e1a03803 	lsl	r3, r3, #16
2000ad28:	e1a03823 	lsr	r3, r3, #16
2000ad2c:	e1a03103 	lsl	r3, r3, #2
2000ad30:	e1a03803 	lsl	r3, r3, #16
2000ad34:	e1a03823 	lsr	r3, r3, #16
2000ad38:	e1a03803 	lsl	r3, r3, #16
2000ad3c:	e1a03823 	lsr	r3, r3, #16
2000ad40:	e1a03803 	lsl	r3, r3, #16
2000ad44:	e1a03843 	asr	r3, r3, #16
2000ad48:	e1a01003 	mov	r1, r3
2000ad4c:	e51b0030 	ldr	r0, [fp, #-48]	; 0xffffffd0
2000ad50:	ebffdb5d 	bl	20001acc <pbuf_header>
2000ad54:	e3a01003 	mov	r1, #3
2000ad58:	e51b0030 	ldr	r0, [fp, #-48]	; 0xffffffd0
2000ad5c:	eb000416 	bl	2000bdbc <icmp_dest_unreach>
2000ad60:	e59f3054 	ldr	r3, [pc, #84]	; 2000adbc <udp_input+0x67c>
2000ad64:	e1d338b8 	ldrh	r3, [r3, #136]	; 0x88
2000ad68:	e2833001 	add	r3, r3, #1
2000ad6c:	e1a03803 	lsl	r3, r3, #16
2000ad70:	e1a03823 	lsr	r3, r3, #16
2000ad74:	e59f2040 	ldr	r2, [pc, #64]	; 2000adbc <udp_input+0x67c>
2000ad78:	e1c238b8 	strh	r3, [r2, #136]	; 0x88
2000ad7c:	e59f3038 	ldr	r3, [pc, #56]	; 2000adbc <udp_input+0x67c>
2000ad80:	e1d337be 	ldrh	r3, [r3, #126]	; 0x7e
2000ad84:	e2833001 	add	r3, r3, #1
2000ad88:	e1a03803 	lsl	r3, r3, #16
2000ad8c:	e1a03823 	lsr	r3, r3, #16
2000ad90:	e59f2024 	ldr	r2, [pc, #36]	; 2000adbc <udp_input+0x67c>
2000ad94:	e1c237be 	strh	r3, [r2, #126]	; 0x7e
2000ad98:	e51b0030 	ldr	r0, [fp, #-48]	; 0xffffffd0
2000ad9c:	ebffdbb4 	bl	20001c74 <pbuf_free>
2000ada0:	ea000001 	b	2000adac <udp_input+0x66c>
2000ada4:	e51b0030 	ldr	r0, [fp, #-48]	; 0xffffffd0
2000ada8:	ebffdbb1 	bl	20001c74 <pbuf_free>
2000adac:	e1a00000 	nop			; (mov r0, r0)
2000adb0:	e24bd008 	sub	sp, fp, #8
2000adb4:	e8bd4810 	pop	{r4, fp, lr}
2000adb8:	e12fff1e 	bx	lr
2000adbc:	20015630 	.word	0x20015630
2000adc0:	20015764 	.word	0x20015764

2000adc4 <udp_send>:
2000adc4:	e92d4800 	push	{fp, lr}
2000adc8:	e28db004 	add	fp, sp, #4
2000adcc:	e24dd008 	sub	sp, sp, #8
2000add0:	e50b0008 	str	r0, [fp, #-8]
2000add4:	e50b100c 	str	r1, [fp, #-12]
2000add8:	e51b3008 	ldr	r3, [fp, #-8]
2000addc:	e2832004 	add	r2, r3, #4
2000ade0:	e51b3008 	ldr	r3, [fp, #-8]
2000ade4:	e1d331b4 	ldrh	r3, [r3, #20]
2000ade8:	e51b100c 	ldr	r1, [fp, #-12]
2000adec:	e51b0008 	ldr	r0, [fp, #-8]
2000adf0:	eb000004 	bl	2000ae08 <udp_sendto>
2000adf4:	e1a03000 	mov	r3, r0
2000adf8:	e1a00003 	mov	r0, r3
2000adfc:	e24bd004 	sub	sp, fp, #4
2000ae00:	e8bd4800 	pop	{fp, lr}
2000ae04:	e12fff1e 	bx	lr

2000ae08 <udp_sendto>:
2000ae08:	e92d4800 	push	{fp, lr}
2000ae0c:	e28db004 	add	fp, sp, #4
2000ae10:	e24dd020 	sub	sp, sp, #32
2000ae14:	e50b0010 	str	r0, [fp, #-16]
2000ae18:	e50b1014 	str	r1, [fp, #-20]	; 0xffffffec
2000ae1c:	e50b2018 	str	r2, [fp, #-24]	; 0xffffffe8
2000ae20:	e14b31ba 	strh	r3, [fp, #-26]	; 0xffffffe6
2000ae24:	e51b0018 	ldr	r0, [fp, #-24]	; 0xffffffe8
2000ae28:	eb00045f 	bl	2000bfac <ip_route>
2000ae2c:	e50b0008 	str	r0, [fp, #-8]
2000ae30:	e51b3008 	ldr	r3, [fp, #-8]
2000ae34:	e3530000 	cmp	r3, #0
2000ae38:	1a000008 	bne	2000ae60 <udp_sendto+0x58>
2000ae3c:	e59f3058 	ldr	r3, [pc, #88]	; 2000ae9c <udp_sendto+0x94>
2000ae40:	e1d338b6 	ldrh	r3, [r3, #134]	; 0x86
2000ae44:	e2833001 	add	r3, r3, #1
2000ae48:	e1a03803 	lsl	r3, r3, #16
2000ae4c:	e1a03823 	lsr	r3, r3, #16
2000ae50:	e59f2044 	ldr	r2, [pc, #68]	; 2000ae9c <udp_sendto+0x94>
2000ae54:	e1c238b6 	strh	r3, [r2, #134]	; 0x86
2000ae58:	e3a030fc 	mov	r3, #252	; 0xfc
2000ae5c:	ea000008 	b	2000ae84 <udp_sendto+0x7c>
2000ae60:	e15b21ba 	ldrh	r2, [fp, #-26]	; 0xffffffe6
2000ae64:	e51b3008 	ldr	r3, [fp, #-8]
2000ae68:	e58d3000 	str	r3, [sp]
2000ae6c:	e1a03002 	mov	r3, r2
2000ae70:	e51b2018 	ldr	r2, [fp, #-24]	; 0xffffffe8
2000ae74:	e51b1014 	ldr	r1, [fp, #-20]	; 0xffffffec
2000ae78:	e51b0010 	ldr	r0, [fp, #-16]
2000ae7c:	eb000007 	bl	2000aea0 <udp_sendto_if>
2000ae80:	e1a03000 	mov	r3, r0
2000ae84:	e1a03c03 	lsl	r3, r3, #24
2000ae88:	e1a03c43 	asr	r3, r3, #24
2000ae8c:	e1a00003 	mov	r0, r3
2000ae90:	e24bd004 	sub	sp, fp, #4
2000ae94:	e8bd4800 	pop	{fp, lr}
2000ae98:	e12fff1e 	bx	lr
2000ae9c:	20015630 	.word	0x20015630

2000aea0 <udp_sendto_if>:
2000aea0:	e92d4800 	push	{fp, lr}
2000aea4:	e28db004 	add	fp, sp, #4
2000aea8:	e24dd030 	sub	sp, sp, #48	; 0x30
2000aeac:	e50b0018 	str	r0, [fp, #-24]	; 0xffffffe8
2000aeb0:	e50b101c 	str	r1, [fp, #-28]	; 0xffffffe4
2000aeb4:	e50b2020 	str	r2, [fp, #-32]	; 0xffffffe0
2000aeb8:	e14b32b2 	strh	r3, [fp, #-34]	; 0xffffffde
2000aebc:	e51b3018 	ldr	r3, [fp, #-24]	; 0xffffffe8
2000aec0:	e1d331b2 	ldrh	r3, [r3, #18]
2000aec4:	e3530000 	cmp	r3, #0
2000aec8:	1a00000c 	bne	2000af00 <udp_sendto_if+0x60>
2000aecc:	e51b1018 	ldr	r1, [fp, #-24]	; 0xffffffe8
2000aed0:	e51b3018 	ldr	r3, [fp, #-24]	; 0xffffffe8
2000aed4:	e1d331b2 	ldrh	r3, [r3, #18]
2000aed8:	e1a02003 	mov	r2, r3
2000aedc:	e51b0018 	ldr	r0, [fp, #-24]	; 0xffffffe8
2000aee0:	eb0000c2 	bl	2000b1f0 <udp_bind>
2000aee4:	e1a03000 	mov	r3, r0
2000aee8:	e54b300d 	strb	r3, [fp, #-13]
2000aeec:	e15b30dd 	ldrsb	r3, [fp, #-13]
2000aef0:	e3530000 	cmp	r3, #0
2000aef4:	0a000001 	beq	2000af00 <udp_sendto_if+0x60>
2000aef8:	e55b300d 	ldrb	r3, [fp, #-13]
2000aefc:	ea0000b4 	b	2000b1d4 <udp_sendto_if+0x334>
2000af00:	e3a01008 	mov	r1, #8
2000af04:	e51b001c 	ldr	r0, [fp, #-28]	; 0xffffffe4
2000af08:	ebffdaef 	bl	20001acc <pbuf_header>
2000af0c:	e1a03000 	mov	r3, r0
2000af10:	e3530000 	cmp	r3, #0
2000af14:	0a00000d 	beq	2000af50 <udp_sendto_if+0xb0>
2000af18:	e3a02000 	mov	r2, #0
2000af1c:	e3a01008 	mov	r1, #8
2000af20:	e3a00001 	mov	r0, #1
2000af24:	ebffd99a 	bl	20001594 <pbuf_alloc>
2000af28:	e50b000c 	str	r0, [fp, #-12]
2000af2c:	e51b300c 	ldr	r3, [fp, #-12]
2000af30:	e3530000 	cmp	r3, #0
2000af34:	1a000001 	bne	2000af40 <udp_sendto_if+0xa0>
2000af38:	e3a030ff 	mov	r3, #255	; 0xff
2000af3c:	ea0000a4 	b	2000b1d4 <udp_sendto_if+0x334>
2000af40:	e51b101c 	ldr	r1, [fp, #-28]	; 0xffffffe4
2000af44:	e51b000c 	ldr	r0, [fp, #-12]
2000af48:	ebffdbec 	bl	20001f00 <pbuf_chain>
2000af4c:	ea000001 	b	2000af58 <udp_sendto_if+0xb8>
2000af50:	e51b301c 	ldr	r3, [fp, #-28]	; 0xffffffe4
2000af54:	e50b300c 	str	r3, [fp, #-12]
2000af58:	e51b300c 	ldr	r3, [fp, #-12]
2000af5c:	e5933004 	ldr	r3, [r3, #4]
2000af60:	e50b3014 	str	r3, [fp, #-20]	; 0xffffffec
2000af64:	e51b3018 	ldr	r3, [fp, #-24]	; 0xffffffe8
2000af68:	e1d331b2 	ldrh	r3, [r3, #18]
2000af6c:	e1a00003 	mov	r0, r3
2000af70:	eb0008bd 	bl	2000d26c <htons>
2000af74:	e1a03000 	mov	r3, r0
2000af78:	e1a02003 	mov	r2, r3
2000af7c:	e51b3014 	ldr	r3, [fp, #-20]	; 0xffffffec
2000af80:	e20210ff 	and	r1, r2, #255	; 0xff
2000af84:	e3a00000 	mov	r0, #0
2000af88:	e1801001 	orr	r1, r0, r1
2000af8c:	e5c31000 	strb	r1, [r3]
2000af90:	e1a02422 	lsr	r2, r2, #8
2000af94:	e1a02802 	lsl	r2, r2, #16
2000af98:	e1a02822 	lsr	r2, r2, #16
2000af9c:	e3a01000 	mov	r1, #0
2000afa0:	e1812002 	orr	r2, r1, r2
2000afa4:	e5c32001 	strb	r2, [r3, #1]
2000afa8:	e15b32b2 	ldrh	r3, [fp, #-34]	; 0xffffffde
2000afac:	e1a00003 	mov	r0, r3
2000afb0:	eb0008ad 	bl	2000d26c <htons>
2000afb4:	e1a03000 	mov	r3, r0
2000afb8:	e1a02003 	mov	r2, r3
2000afbc:	e51b3014 	ldr	r3, [fp, #-20]	; 0xffffffec
2000afc0:	e20210ff 	and	r1, r2, #255	; 0xff
2000afc4:	e3a00000 	mov	r0, #0
2000afc8:	e1801001 	orr	r1, r0, r1
2000afcc:	e5c31002 	strb	r1, [r3, #2]
2000afd0:	e1a02422 	lsr	r2, r2, #8
2000afd4:	e1a02802 	lsl	r2, r2, #16
2000afd8:	e1a02822 	lsr	r2, r2, #16
2000afdc:	e3a01000 	mov	r1, #0
2000afe0:	e1812002 	orr	r2, r1, r2
2000afe4:	e5c32003 	strb	r2, [r3, #3]
2000afe8:	e51b3014 	ldr	r3, [fp, #-20]	; 0xffffffec
2000afec:	e3a02000 	mov	r2, #0
2000aff0:	e5c32006 	strb	r2, [r3, #6]
2000aff4:	e3a02000 	mov	r2, #0
2000aff8:	e5c32007 	strb	r2, [r3, #7]
2000affc:	e51b3018 	ldr	r3, [fp, #-24]	; 0xffffffe8
2000b000:	e3530000 	cmp	r3, #0
2000b004:	0a000003 	beq	2000b018 <udp_sendto_if+0x178>
2000b008:	e51b3018 	ldr	r3, [fp, #-24]	; 0xffffffe8
2000b00c:	e5933000 	ldr	r3, [r3]
2000b010:	e3530000 	cmp	r3, #0
2000b014:	1a000003 	bne	2000b028 <udp_sendto_if+0x188>
2000b018:	e59b3004 	ldr	r3, [fp, #4]
2000b01c:	e2833004 	add	r3, r3, #4
2000b020:	e50b3008 	str	r3, [fp, #-8]
2000b024:	ea000011 	b	2000b070 <udp_sendto_if+0x1d0>
2000b028:	e51b3018 	ldr	r3, [fp, #-24]	; 0xffffffe8
2000b02c:	e5932000 	ldr	r2, [r3]
2000b030:	e59b3004 	ldr	r3, [fp, #4]
2000b034:	e5933004 	ldr	r3, [r3, #4]
2000b038:	e1520003 	cmp	r2, r3
2000b03c:	0a000009 	beq	2000b068 <udp_sendto_if+0x1c8>
2000b040:	e51b200c 	ldr	r2, [fp, #-12]
2000b044:	e51b301c 	ldr	r3, [fp, #-28]	; 0xffffffe4
2000b048:	e1520003 	cmp	r2, r3
2000b04c:	0a000003 	beq	2000b060 <udp_sendto_if+0x1c0>
2000b050:	e51b000c 	ldr	r0, [fp, #-12]
2000b054:	ebffdb06 	bl	20001c74 <pbuf_free>
2000b058:	e3a03000 	mov	r3, #0
2000b05c:	e50b300c 	str	r3, [fp, #-12]
2000b060:	e3a030f7 	mov	r3, #247	; 0xf7
2000b064:	ea00005a 	b	2000b1d4 <udp_sendto_if+0x334>
2000b068:	e51b3018 	ldr	r3, [fp, #-24]	; 0xffffffe8
2000b06c:	e50b3008 	str	r3, [fp, #-8]
2000b070:	e51b300c 	ldr	r3, [fp, #-12]
2000b074:	e1d330b8 	ldrh	r3, [r3, #8]
2000b078:	e1a00003 	mov	r0, r3
2000b07c:	eb00087a 	bl	2000d26c <htons>
2000b080:	e1a03000 	mov	r3, r0
2000b084:	e1a02003 	mov	r2, r3
2000b088:	e51b3014 	ldr	r3, [fp, #-20]	; 0xffffffec
2000b08c:	e20210ff 	and	r1, r2, #255	; 0xff
2000b090:	e3a00000 	mov	r0, #0
2000b094:	e1801001 	orr	r1, r0, r1
2000b098:	e5c31004 	strb	r1, [r3, #4]
2000b09c:	e1a02422 	lsr	r2, r2, #8
2000b0a0:	e1a02802 	lsl	r2, r2, #16
2000b0a4:	e1a02822 	lsr	r2, r2, #16
2000b0a8:	e3a01000 	mov	r1, #0
2000b0ac:	e1812002 	orr	r2, r1, r2
2000b0b0:	e5c32005 	strb	r2, [r3, #5]
2000b0b4:	e51b3018 	ldr	r3, [fp, #-24]	; 0xffffffe8
2000b0b8:	e5d33010 	ldrb	r3, [r3, #16]
2000b0bc:	e2033001 	and	r3, r3, #1
2000b0c0:	e3530000 	cmp	r3, #0
2000b0c4:	1a000022 	bne	2000b154 <udp_sendto_if+0x2b4>
2000b0c8:	e51b300c 	ldr	r3, [fp, #-12]
2000b0cc:	e1d330b8 	ldrh	r3, [r3, #8]
2000b0d0:	e58d3000 	str	r3, [sp]
2000b0d4:	e3a03011 	mov	r3, #17
2000b0d8:	e51b2020 	ldr	r2, [fp, #-32]	; 0xffffffe0
2000b0dc:	e51b1008 	ldr	r1, [fp, #-8]
2000b0e0:	e51b000c 	ldr	r0, [fp, #-12]
2000b0e4:	eb000ec7 	bl	2000ec08 <inet_chksum_pseudo>
2000b0e8:	e1a03000 	mov	r3, r0
2000b0ec:	e1a02003 	mov	r2, r3
2000b0f0:	e51b3014 	ldr	r3, [fp, #-20]	; 0xffffffec
2000b0f4:	e20210ff 	and	r1, r2, #255	; 0xff
2000b0f8:	e3a00000 	mov	r0, #0
2000b0fc:	e1801001 	orr	r1, r0, r1
2000b100:	e5c31006 	strb	r1, [r3, #6]
2000b104:	e1a02422 	lsr	r2, r2, #8
2000b108:	e1a02802 	lsl	r2, r2, #16
2000b10c:	e1a02822 	lsr	r2, r2, #16
2000b110:	e3a01000 	mov	r1, #0
2000b114:	e1812002 	orr	r2, r1, r2
2000b118:	e5c32007 	strb	r2, [r3, #7]
2000b11c:	e51b3014 	ldr	r3, [fp, #-20]	; 0xffffffec
2000b120:	e5d32006 	ldrb	r2, [r3, #6]
2000b124:	e5d33007 	ldrb	r3, [r3, #7]
2000b128:	e1a03403 	lsl	r3, r3, #8
2000b12c:	e1833002 	orr	r3, r3, r2
2000b130:	e1a03803 	lsl	r3, r3, #16
2000b134:	e1a03823 	lsr	r3, r3, #16
2000b138:	e3530000 	cmp	r3, #0
2000b13c:	1a000004 	bne	2000b154 <udp_sendto_if+0x2b4>
2000b140:	e51b3014 	ldr	r3, [fp, #-20]	; 0xffffffec
2000b144:	e3e02000 	mvn	r2, #0
2000b148:	e5c32006 	strb	r2, [r3, #6]
2000b14c:	e3e02000 	mvn	r2, #0
2000b150:	e5c32007 	strb	r2, [r3, #7]
2000b154:	e51b3018 	ldr	r3, [fp, #-24]	; 0xffffffe8
2000b158:	e5d3100b 	ldrb	r1, [r3, #11]
2000b15c:	e51b3018 	ldr	r3, [fp, #-24]	; 0xffffffe8
2000b160:	e5d3300a 	ldrb	r3, [r3, #10]
2000b164:	e59b2004 	ldr	r2, [fp, #4]
2000b168:	e58d2008 	str	r2, [sp, #8]
2000b16c:	e3a02011 	mov	r2, #17
2000b170:	e58d2004 	str	r2, [sp, #4]
2000b174:	e58d3000 	str	r3, [sp]
2000b178:	e1a03001 	mov	r3, r1
2000b17c:	e51b2020 	ldr	r2, [fp, #-32]	; 0xffffffe0
2000b180:	e51b1008 	ldr	r1, [fp, #-8]
2000b184:	e51b000c 	ldr	r0, [fp, #-12]
2000b188:	eb00054a 	bl	2000c6b8 <ip_output_if>
2000b18c:	e1a03000 	mov	r3, r0
2000b190:	e54b300d 	strb	r3, [fp, #-13]
2000b194:	e51b200c 	ldr	r2, [fp, #-12]
2000b198:	e51b301c 	ldr	r3, [fp, #-28]	; 0xffffffe4
2000b19c:	e1520003 	cmp	r2, r3
2000b1a0:	0a000003 	beq	2000b1b4 <udp_sendto_if+0x314>
2000b1a4:	e51b000c 	ldr	r0, [fp, #-12]
2000b1a8:	ebffdab1 	bl	20001c74 <pbuf_free>
2000b1ac:	e3a03000 	mov	r3, #0
2000b1b0:	e50b300c 	str	r3, [fp, #-12]
2000b1b4:	e59f3030 	ldr	r3, [pc, #48]	; 2000b1ec <udp_sendto_if+0x34c>
2000b1b8:	e1d337b8 	ldrh	r3, [r3, #120]	; 0x78
2000b1bc:	e2833001 	add	r3, r3, #1
2000b1c0:	e1a03803 	lsl	r3, r3, #16
2000b1c4:	e1a03823 	lsr	r3, r3, #16
2000b1c8:	e59f201c 	ldr	r2, [pc, #28]	; 2000b1ec <udp_sendto_if+0x34c>
2000b1cc:	e1c237b8 	strh	r3, [r2, #120]	; 0x78
2000b1d0:	e55b300d 	ldrb	r3, [fp, #-13]
2000b1d4:	e1a03c03 	lsl	r3, r3, #24
2000b1d8:	e1a03c43 	asr	r3, r3, #24
2000b1dc:	e1a00003 	mov	r0, r3
2000b1e0:	e24bd004 	sub	sp, fp, #4
2000b1e4:	e8bd4800 	pop	{fp, lr}
2000b1e8:	e12fff1e 	bx	lr
2000b1ec:	20015630 	.word	0x20015630

2000b1f0 <udp_bind>:
2000b1f0:	e52db004 	push	{fp}		; (str fp, [sp, #-4]!)
2000b1f4:	e28db000 	add	fp, sp, #0
2000b1f8:	e24dd01c 	sub	sp, sp, #28
2000b1fc:	e50b0010 	str	r0, [fp, #-16]
2000b200:	e50b1014 	str	r1, [fp, #-20]	; 0xffffffec
2000b204:	e1a03002 	mov	r3, r2
2000b208:	e14b31b6 	strh	r3, [fp, #-22]	; 0xffffffea
2000b20c:	e3a03000 	mov	r3, #0
2000b210:	e54b3009 	strb	r3, [fp, #-9]
2000b214:	e59f3164 	ldr	r3, [pc, #356]	; 2000b380 <udp_bind+0x190>
2000b218:	e5933000 	ldr	r3, [r3]
2000b21c:	e50b3008 	str	r3, [fp, #-8]
2000b220:	ea000008 	b	2000b248 <udp_bind+0x58>
2000b224:	e51b2010 	ldr	r2, [fp, #-16]
2000b228:	e51b3008 	ldr	r3, [fp, #-8]
2000b22c:	e1520003 	cmp	r2, r3
2000b230:	1a000001 	bne	2000b23c <udp_bind+0x4c>
2000b234:	e3a03001 	mov	r3, #1
2000b238:	e54b3009 	strb	r3, [fp, #-9]
2000b23c:	e51b3008 	ldr	r3, [fp, #-8]
2000b240:	e593300c 	ldr	r3, [r3, #12]
2000b244:	e50b3008 	str	r3, [fp, #-8]
2000b248:	e51b3008 	ldr	r3, [fp, #-8]
2000b24c:	e3530000 	cmp	r3, #0
2000b250:	1afffff3 	bne	2000b224 <udp_bind+0x34>
2000b254:	e51b3014 	ldr	r3, [fp, #-20]	; 0xffffffec
2000b258:	e3530000 	cmp	r3, #0
2000b25c:	0a00000c 	beq	2000b294 <udp_bind+0xa4>
2000b260:	e51b3014 	ldr	r3, [fp, #-20]	; 0xffffffec
2000b264:	e5d32000 	ldrb	r2, [r3]
2000b268:	e5d31001 	ldrb	r1, [r3, #1]
2000b26c:	e1a01401 	lsl	r1, r1, #8
2000b270:	e1812002 	orr	r2, r1, r2
2000b274:	e5d31002 	ldrb	r1, [r3, #2]
2000b278:	e1a01801 	lsl	r1, r1, #16
2000b27c:	e1812002 	orr	r2, r1, r2
2000b280:	e5d33003 	ldrb	r3, [r3, #3]
2000b284:	e1a03c03 	lsl	r3, r3, #24
2000b288:	e1833002 	orr	r3, r3, r2
2000b28c:	e1a02003 	mov	r2, r3
2000b290:	ea000000 	b	2000b298 <udp_bind+0xa8>
2000b294:	e3a02000 	mov	r2, #0
2000b298:	e51b3010 	ldr	r3, [fp, #-16]
2000b29c:	e5832000 	str	r2, [r3]
2000b2a0:	e15b31b6 	ldrh	r3, [fp, #-22]	; 0xffffffea
2000b2a4:	e3530000 	cmp	r3, #0
2000b2a8:	1a000020 	bne	2000b330 <udp_bind+0x140>
2000b2ac:	e3a03a01 	mov	r3, #4096	; 0x1000
2000b2b0:	e14b31b6 	strh	r3, [fp, #-22]	; 0xffffffea
2000b2b4:	e59f30c4 	ldr	r3, [pc, #196]	; 2000b380 <udp_bind+0x190>
2000b2b8:	e5933000 	ldr	r3, [r3]
2000b2bc:	e50b3008 	str	r3, [fp, #-8]
2000b2c0:	ea00000e 	b	2000b300 <udp_bind+0x110>
2000b2c4:	e51b3008 	ldr	r3, [fp, #-8]
2000b2c8:	e1d331b2 	ldrh	r3, [r3, #18]
2000b2cc:	e15b21b6 	ldrh	r2, [fp, #-22]	; 0xffffffea
2000b2d0:	e1520003 	cmp	r2, r3
2000b2d4:	1a000006 	bne	2000b2f4 <udp_bind+0x104>
2000b2d8:	e15b31b6 	ldrh	r3, [fp, #-22]	; 0xffffffea
2000b2dc:	e2833001 	add	r3, r3, #1
2000b2e0:	e14b31b6 	strh	r3, [fp, #-22]	; 0xffffffea
2000b2e4:	e59f3094 	ldr	r3, [pc, #148]	; 2000b380 <udp_bind+0x190>
2000b2e8:	e5933000 	ldr	r3, [r3]
2000b2ec:	e50b3008 	str	r3, [fp, #-8]
2000b2f0:	ea000002 	b	2000b300 <udp_bind+0x110>
2000b2f4:	e51b3008 	ldr	r3, [fp, #-8]
2000b2f8:	e593300c 	ldr	r3, [r3, #12]
2000b2fc:	e50b3008 	str	r3, [fp, #-8]
2000b300:	e51b3008 	ldr	r3, [fp, #-8]
2000b304:	e3530000 	cmp	r3, #0
2000b308:	0a000003 	beq	2000b31c <udp_bind+0x12c>
2000b30c:	e15b31b6 	ldrh	r3, [fp, #-22]	; 0xffffffea
2000b310:	e59f206c 	ldr	r2, [pc, #108]	; 2000b384 <udp_bind+0x194>
2000b314:	e1530002 	cmp	r3, r2
2000b318:	1affffe9 	bne	2000b2c4 <udp_bind+0xd4>
2000b31c:	e51b3008 	ldr	r3, [fp, #-8]
2000b320:	e3530000 	cmp	r3, #0
2000b324:	0a000001 	beq	2000b330 <udp_bind+0x140>
2000b328:	e3a030f5 	mov	r3, #245	; 0xf5
2000b32c:	ea00000d 	b	2000b368 <udp_bind+0x178>
2000b330:	e51b3010 	ldr	r3, [fp, #-16]
2000b334:	e15b21b6 	ldrh	r2, [fp, #-22]	; 0xffffffea
2000b338:	e1c321b2 	strh	r2, [r3, #18]
2000b33c:	e55b3009 	ldrb	r3, [fp, #-9]
2000b340:	e3530000 	cmp	r3, #0
2000b344:	1a000006 	bne	2000b364 <udp_bind+0x174>
2000b348:	e59f3030 	ldr	r3, [pc, #48]	; 2000b380 <udp_bind+0x190>
2000b34c:	e5932000 	ldr	r2, [r3]
2000b350:	e51b3010 	ldr	r3, [fp, #-16]
2000b354:	e583200c 	str	r2, [r3, #12]
2000b358:	e59f2020 	ldr	r2, [pc, #32]	; 2000b380 <udp_bind+0x190>
2000b35c:	e51b3010 	ldr	r3, [fp, #-16]
2000b360:	e5823000 	str	r3, [r2]
2000b364:	e3a03000 	mov	r3, #0
2000b368:	e1a03c03 	lsl	r3, r3, #24
2000b36c:	e1a03c43 	asr	r3, r3, #24
2000b370:	e1a00003 	mov	r0, r3
2000b374:	e24bd000 	sub	sp, fp, #0
2000b378:	e49db004 	pop	{fp}		; (ldr fp, [sp], #4)
2000b37c:	e12fff1e 	bx	lr
2000b380:	20015764 	.word	0x20015764
2000b384:	00007fff 	.word	0x00007fff

2000b388 <udp_connect>:
2000b388:	e92d4800 	push	{fp, lr}
2000b38c:	e28db004 	add	fp, sp, #4
2000b390:	e24dd018 	sub	sp, sp, #24
2000b394:	e50b0010 	str	r0, [fp, #-16]
2000b398:	e50b1014 	str	r1, [fp, #-20]	; 0xffffffec
2000b39c:	e1a03002 	mov	r3, r2
2000b3a0:	e14b31b6 	strh	r3, [fp, #-22]	; 0xffffffea
2000b3a4:	e51b3010 	ldr	r3, [fp, #-16]
2000b3a8:	e1d331b2 	ldrh	r3, [r3, #18]
2000b3ac:	e3530000 	cmp	r3, #0
2000b3b0:	1a00000c 	bne	2000b3e8 <udp_connect+0x60>
2000b3b4:	e51b1010 	ldr	r1, [fp, #-16]
2000b3b8:	e51b3010 	ldr	r3, [fp, #-16]
2000b3bc:	e1d331b2 	ldrh	r3, [r3, #18]
2000b3c0:	e1a02003 	mov	r2, r3
2000b3c4:	e51b0010 	ldr	r0, [fp, #-16]
2000b3c8:	ebffff88 	bl	2000b1f0 <udp_bind>
2000b3cc:	e1a03000 	mov	r3, r0
2000b3d0:	e54b3009 	strb	r3, [fp, #-9]
2000b3d4:	e15b30d9 	ldrsb	r3, [fp, #-9]
2000b3d8:	e3530000 	cmp	r3, #0
2000b3dc:	0a000001 	beq	2000b3e8 <udp_connect+0x60>
2000b3e0:	e55b3009 	ldrb	r3, [fp, #-9]
2000b3e4:	ea000033 	b	2000b4b8 <udp_connect+0x130>
2000b3e8:	e51b3014 	ldr	r3, [fp, #-20]	; 0xffffffec
2000b3ec:	e3530000 	cmp	r3, #0
2000b3f0:	0a00000c 	beq	2000b428 <udp_connect+0xa0>
2000b3f4:	e51b3014 	ldr	r3, [fp, #-20]	; 0xffffffec
2000b3f8:	e5d32000 	ldrb	r2, [r3]
2000b3fc:	e5d31001 	ldrb	r1, [r3, #1]
2000b400:	e1a01401 	lsl	r1, r1, #8
2000b404:	e1812002 	orr	r2, r1, r2
2000b408:	e5d31002 	ldrb	r1, [r3, #2]
2000b40c:	e1a01801 	lsl	r1, r1, #16
2000b410:	e1812002 	orr	r2, r1, r2
2000b414:	e5d33003 	ldrb	r3, [r3, #3]
2000b418:	e1a03c03 	lsl	r3, r3, #24
2000b41c:	e1833002 	orr	r3, r3, r2
2000b420:	e1a02003 	mov	r2, r3
2000b424:	ea000000 	b	2000b42c <udp_connect+0xa4>
2000b428:	e3a02000 	mov	r2, #0
2000b42c:	e51b3010 	ldr	r3, [fp, #-16]
2000b430:	e5832004 	str	r2, [r3, #4]
2000b434:	e51b3010 	ldr	r3, [fp, #-16]
2000b438:	e15b21b6 	ldrh	r2, [fp, #-22]	; 0xffffffea
2000b43c:	e1c321b4 	strh	r2, [r3, #20]
2000b440:	e51b3010 	ldr	r3, [fp, #-16]
2000b444:	e5d33010 	ldrb	r3, [r3, #16]
2000b448:	e3833004 	orr	r3, r3, #4
2000b44c:	e20320ff 	and	r2, r3, #255	; 0xff
2000b450:	e51b3010 	ldr	r3, [fp, #-16]
2000b454:	e5c32010 	strb	r2, [r3, #16]
2000b458:	e59f3070 	ldr	r3, [pc, #112]	; 2000b4d0 <udp_connect+0x148>
2000b45c:	e5933000 	ldr	r3, [r3]
2000b460:	e50b3008 	str	r3, [fp, #-8]
2000b464:	ea000008 	b	2000b48c <udp_connect+0x104>
2000b468:	e51b2010 	ldr	r2, [fp, #-16]
2000b46c:	e51b3008 	ldr	r3, [fp, #-8]
2000b470:	e1520003 	cmp	r2, r3
2000b474:	1a000001 	bne	2000b480 <udp_connect+0xf8>
2000b478:	e3a03000 	mov	r3, #0
2000b47c:	ea00000d 	b	2000b4b8 <udp_connect+0x130>
2000b480:	e51b3008 	ldr	r3, [fp, #-8]
2000b484:	e593300c 	ldr	r3, [r3, #12]
2000b488:	e50b3008 	str	r3, [fp, #-8]
2000b48c:	e51b3008 	ldr	r3, [fp, #-8]
2000b490:	e3530000 	cmp	r3, #0
2000b494:	1afffff3 	bne	2000b468 <udp_connect+0xe0>
2000b498:	e59f3030 	ldr	r3, [pc, #48]	; 2000b4d0 <udp_connect+0x148>
2000b49c:	e5932000 	ldr	r2, [r3]
2000b4a0:	e51b3010 	ldr	r3, [fp, #-16]
2000b4a4:	e583200c 	str	r2, [r3, #12]
2000b4a8:	e59f2020 	ldr	r2, [pc, #32]	; 2000b4d0 <udp_connect+0x148>
2000b4ac:	e51b3010 	ldr	r3, [fp, #-16]
2000b4b0:	e5823000 	str	r3, [r2]
2000b4b4:	e3a03000 	mov	r3, #0
2000b4b8:	e1a03c03 	lsl	r3, r3, #24
2000b4bc:	e1a03c43 	asr	r3, r3, #24
2000b4c0:	e1a00003 	mov	r0, r3
2000b4c4:	e24bd004 	sub	sp, fp, #4
2000b4c8:	e8bd4800 	pop	{fp, lr}
2000b4cc:	e12fff1e 	bx	lr
2000b4d0:	20015764 	.word	0x20015764

2000b4d4 <udp_disconnect>:
2000b4d4:	e52db004 	push	{fp}		; (str fp, [sp, #-4]!)
2000b4d8:	e28db000 	add	fp, sp, #0
2000b4dc:	e24dd00c 	sub	sp, sp, #12
2000b4e0:	e50b0008 	str	r0, [fp, #-8]
2000b4e4:	e59f3064 	ldr	r3, [pc, #100]	; 2000b550 <udp_disconnect+0x7c>
2000b4e8:	e5d32000 	ldrb	r2, [r3]
2000b4ec:	e5d31001 	ldrb	r1, [r3, #1]
2000b4f0:	e1a01401 	lsl	r1, r1, #8
2000b4f4:	e1812002 	orr	r2, r1, r2
2000b4f8:	e5d31002 	ldrb	r1, [r3, #2]
2000b4fc:	e1a01801 	lsl	r1, r1, #16
2000b500:	e1812002 	orr	r2, r1, r2
2000b504:	e5d33003 	ldrb	r3, [r3, #3]
2000b508:	e1a03c03 	lsl	r3, r3, #24
2000b50c:	e1833002 	orr	r3, r3, r2
2000b510:	e1a02003 	mov	r2, r3
2000b514:	e51b3008 	ldr	r3, [fp, #-8]
2000b518:	e5832004 	str	r2, [r3, #4]
2000b51c:	e51b3008 	ldr	r3, [fp, #-8]
2000b520:	e3a02000 	mov	r2, #0
2000b524:	e1c321b4 	strh	r2, [r3, #20]
2000b528:	e51b3008 	ldr	r3, [fp, #-8]
2000b52c:	e5d33010 	ldrb	r3, [r3, #16]
2000b530:	e3c33004 	bic	r3, r3, #4
2000b534:	e20320ff 	and	r2, r3, #255	; 0xff
2000b538:	e51b3008 	ldr	r3, [fp, #-8]
2000b53c:	e5c32010 	strb	r2, [r3, #16]
2000b540:	e1a00000 	nop			; (mov r0, r0)
2000b544:	e24bd000 	sub	sp, fp, #0
2000b548:	e49db004 	pop	{fp}		; (ldr fp, [sp], #4)
2000b54c:	e12fff1e 	bx	lr
2000b550:	20013600 	.word	0x20013600

2000b554 <udp_recv>:
2000b554:	e52db004 	push	{fp}		; (str fp, [sp, #-4]!)
2000b558:	e28db000 	add	fp, sp, #0
2000b55c:	e24dd014 	sub	sp, sp, #20
2000b560:	e50b0008 	str	r0, [fp, #-8]
2000b564:	e50b100c 	str	r1, [fp, #-12]
2000b568:	e50b2010 	str	r2, [fp, #-16]
2000b56c:	e51b3008 	ldr	r3, [fp, #-8]
2000b570:	e51b200c 	ldr	r2, [fp, #-12]
2000b574:	e5832018 	str	r2, [r3, #24]
2000b578:	e51b3008 	ldr	r3, [fp, #-8]
2000b57c:	e51b2010 	ldr	r2, [fp, #-16]
2000b580:	e583201c 	str	r2, [r3, #28]
2000b584:	e1a00000 	nop			; (mov r0, r0)
2000b588:	e24bd000 	sub	sp, fp, #0
2000b58c:	e49db004 	pop	{fp}		; (ldr fp, [sp], #4)
2000b590:	e12fff1e 	bx	lr

2000b594 <udp_remove>:
2000b594:	e92d4800 	push	{fp, lr}
2000b598:	e28db004 	add	fp, sp, #4
2000b59c:	e24dd010 	sub	sp, sp, #16
2000b5a0:	e50b0010 	str	r0, [fp, #-16]
2000b5a4:	e59f309c 	ldr	r3, [pc, #156]	; 2000b648 <udp_remove+0xb4>
2000b5a8:	e5932000 	ldr	r2, [r3]
2000b5ac:	e51b3010 	ldr	r3, [fp, #-16]
2000b5b0:	e1520003 	cmp	r2, r3
2000b5b4:	1a000005 	bne	2000b5d0 <udp_remove+0x3c>
2000b5b8:	e59f3088 	ldr	r3, [pc, #136]	; 2000b648 <udp_remove+0xb4>
2000b5bc:	e5933000 	ldr	r3, [r3]
2000b5c0:	e593300c 	ldr	r3, [r3, #12]
2000b5c4:	e59f207c 	ldr	r2, [pc, #124]	; 2000b648 <udp_remove+0xb4>
2000b5c8:	e5823000 	str	r3, [r2]
2000b5cc:	ea000016 	b	2000b62c <udp_remove+0x98>
2000b5d0:	e59f3070 	ldr	r3, [pc, #112]	; 2000b648 <udp_remove+0xb4>
2000b5d4:	e5933000 	ldr	r3, [r3]
2000b5d8:	e50b3008 	str	r3, [fp, #-8]
2000b5dc:	ea00000f 	b	2000b620 <udp_remove+0x8c>
2000b5e0:	e51b3008 	ldr	r3, [fp, #-8]
2000b5e4:	e593300c 	ldr	r3, [r3, #12]
2000b5e8:	e3530000 	cmp	r3, #0
2000b5ec:	0a000008 	beq	2000b614 <udp_remove+0x80>
2000b5f0:	e51b3008 	ldr	r3, [fp, #-8]
2000b5f4:	e593200c 	ldr	r2, [r3, #12]
2000b5f8:	e51b3010 	ldr	r3, [fp, #-16]
2000b5fc:	e1520003 	cmp	r2, r3
2000b600:	1a000003 	bne	2000b614 <udp_remove+0x80>
2000b604:	e51b3010 	ldr	r3, [fp, #-16]
2000b608:	e593200c 	ldr	r2, [r3, #12]
2000b60c:	e51b3008 	ldr	r3, [fp, #-8]
2000b610:	e583200c 	str	r2, [r3, #12]
2000b614:	e51b3008 	ldr	r3, [fp, #-8]
2000b618:	e593300c 	ldr	r3, [r3, #12]
2000b61c:	e50b3008 	str	r3, [fp, #-8]
2000b620:	e51b3008 	ldr	r3, [fp, #-8]
2000b624:	e3530000 	cmp	r3, #0
2000b628:	1affffec 	bne	2000b5e0 <udp_remove+0x4c>
2000b62c:	e51b1010 	ldr	r1, [fp, #-16]
2000b630:	e3a00001 	mov	r0, #1
2000b634:	ebffd5f8 	bl	20000e1c <memp_free>
2000b638:	e1a00000 	nop			; (mov r0, r0)
2000b63c:	e24bd004 	sub	sp, fp, #4
2000b640:	e8bd4800 	pop	{fp, lr}
2000b644:	e12fff1e 	bx	lr
2000b648:	20015764 	.word	0x20015764

2000b64c <udp_new>:
2000b64c:	e92d4800 	push	{fp, lr}
2000b650:	e28db004 	add	fp, sp, #4
2000b654:	e24dd008 	sub	sp, sp, #8
2000b658:	e3a00001 	mov	r0, #1
2000b65c:	ebffd582 	bl	20000c6c <memp_malloc>
2000b660:	e50b0008 	str	r0, [fp, #-8]
2000b664:	e51b3008 	ldr	r3, [fp, #-8]
2000b668:	e3530000 	cmp	r3, #0
2000b66c:	0a000006 	beq	2000b68c <udp_new+0x40>
2000b670:	e3a02020 	mov	r2, #32
2000b674:	e3a01000 	mov	r1, #0
2000b678:	e51b0008 	ldr	r0, [fp, #-8]
2000b67c:	eb00218e 	bl	20013cbc <memset>
2000b680:	e51b3008 	ldr	r3, [fp, #-8]
2000b684:	e3e02000 	mvn	r2, #0
2000b688:	e5c3200b 	strb	r2, [r3, #11]
2000b68c:	e51b3008 	ldr	r3, [fp, #-8]
2000b690:	e1a00003 	mov	r0, r3
2000b694:	e24bd004 	sub	sp, fp, #4
2000b698:	e8bd4800 	pop	{fp, lr}
2000b69c:	e12fff1e 	bx	lr

2000b6a0 <icmp_input>:
2000b6a0:	e92d4810 	push	{r4, fp, lr}
2000b6a4:	e28db008 	add	fp, sp, #8
2000b6a8:	e24dd03c 	sub	sp, sp, #60	; 0x3c
2000b6ac:	e50b0030 	str	r0, [fp, #-48]	; 0xffffffd0
2000b6b0:	e50b1034 	str	r1, [fp, #-52]	; 0xffffffcc
2000b6b4:	e59f36f8 	ldr	r3, [pc, #1784]	; 2000bdb4 <icmp_input+0x714>
2000b6b8:	e1d336b2 	ldrh	r3, [r3, #98]	; 0x62
2000b6bc:	e2833001 	add	r3, r3, #1
2000b6c0:	e1a03803 	lsl	r3, r3, #16
2000b6c4:	e1a03823 	lsr	r3, r3, #16
2000b6c8:	e59f26e4 	ldr	r2, [pc, #1764]	; 2000bdb4 <icmp_input+0x714>
2000b6cc:	e1c236b2 	strh	r3, [r2, #98]	; 0x62
2000b6d0:	e51b3030 	ldr	r3, [fp, #-48]	; 0xffffffd0
2000b6d4:	e5933004 	ldr	r3, [r3, #4]
2000b6d8:	e50b3010 	str	r3, [fp, #-16]
2000b6dc:	e51b3010 	ldr	r3, [fp, #-16]
2000b6e0:	e5d32000 	ldrb	r2, [r3]
2000b6e4:	e5d33001 	ldrb	r3, [r3, #1]
2000b6e8:	e1a03403 	lsl	r3, r3, #8
2000b6ec:	e1833002 	orr	r3, r3, r2
2000b6f0:	e1a03803 	lsl	r3, r3, #16
2000b6f4:	e1a03823 	lsr	r3, r3, #16
2000b6f8:	e1a00003 	mov	r0, r3
2000b6fc:	eb0006f2 	bl	2000d2cc <ntohs>
2000b700:	e1a03000 	mov	r3, r0
2000b704:	e1a03423 	lsr	r3, r3, #8
2000b708:	e1a03803 	lsl	r3, r3, #16
2000b70c:	e1a03823 	lsr	r3, r3, #16
2000b710:	e203300f 	and	r3, r3, #15
2000b714:	e1a03803 	lsl	r3, r3, #16
2000b718:	e1a03823 	lsr	r3, r3, #16
2000b71c:	e1a03103 	lsl	r3, r3, #2
2000b720:	e1a03803 	lsl	r3, r3, #16
2000b724:	e1a03823 	lsr	r3, r3, #16
2000b728:	e14b31b6 	strh	r3, [fp, #-22]	; 0xffffffea
2000b72c:	e15b31b6 	ldrh	r3, [fp, #-22]	; 0xffffffea
2000b730:	e2633000 	rsb	r3, r3, #0
2000b734:	e1a03803 	lsl	r3, r3, #16
2000b738:	e1a03823 	lsr	r3, r3, #16
2000b73c:	e1a03803 	lsl	r3, r3, #16
2000b740:	e1a03823 	lsr	r3, r3, #16
2000b744:	e1a03803 	lsl	r3, r3, #16
2000b748:	e1a03843 	asr	r3, r3, #16
2000b74c:	e1a01003 	mov	r1, r3
2000b750:	e51b0030 	ldr	r0, [fp, #-48]	; 0xffffffd0
2000b754:	ebffd8dc 	bl	20001acc <pbuf_header>
2000b758:	e1a03000 	mov	r3, r0
2000b75c:	e3530000 	cmp	r3, #0
2000b760:	1a000173 	bne	2000bd34 <icmp_input+0x694>
2000b764:	e51b3030 	ldr	r3, [fp, #-48]	; 0xffffffd0
2000b768:	e1d330b8 	ldrh	r3, [r3, #8]
2000b76c:	e3530003 	cmp	r3, #3
2000b770:	9a00016f 	bls	2000bd34 <icmp_input+0x694>
2000b774:	e51b3030 	ldr	r3, [fp, #-48]	; 0xffffffd0
2000b778:	e5933004 	ldr	r3, [r3, #4]
2000b77c:	e5d33000 	ldrb	r3, [r3]
2000b780:	e54b3017 	strb	r3, [fp, #-23]	; 0xffffffe9
2000b784:	e55b3017 	ldrb	r3, [fp, #-23]	; 0xffffffe9
2000b788:	e3530008 	cmp	r3, #8
2000b78c:	1a000154 	bne	2000bce4 <icmp_input+0x644>
2000b790:	e3a03001 	mov	r3, #1
2000b794:	e50b3014 	str	r3, [fp, #-20]	; 0xffffffec
2000b798:	e51b3010 	ldr	r3, [fp, #-16]
2000b79c:	e5d32010 	ldrb	r2, [r3, #16]
2000b7a0:	e5d31011 	ldrb	r1, [r3, #17]
2000b7a4:	e1a01401 	lsl	r1, r1, #8
2000b7a8:	e1812002 	orr	r2, r1, r2
2000b7ac:	e5d31012 	ldrb	r1, [r3, #18]
2000b7b0:	e1a01801 	lsl	r1, r1, #16
2000b7b4:	e1812002 	orr	r2, r1, r2
2000b7b8:	e5d33013 	ldrb	r3, [r3, #19]
2000b7bc:	e1a03c03 	lsl	r3, r3, #24
2000b7c0:	e1833002 	orr	r3, r3, r2
2000b7c4:	e1a04003 	mov	r4, r3
2000b7c8:	e3a0020f 	mov	r0, #-268435456	; 0xf0000000
2000b7cc:	eb0006e0 	bl	2000d354 <ntohl>
2000b7d0:	e1a03000 	mov	r3, r0
2000b7d4:	e0044003 	and	r4, r4, r3
2000b7d8:	e3a0020e 	mov	r0, #-536870912	; 0xe0000000
2000b7dc:	eb0006dc 	bl	2000d354 <ntohl>
2000b7e0:	e1a03000 	mov	r3, r0
2000b7e4:	e1540003 	cmp	r4, r3
2000b7e8:	1a000001 	bne	2000b7f4 <icmp_input+0x154>
2000b7ec:	e3a03000 	mov	r3, #0
2000b7f0:	e50b3014 	str	r3, [fp, #-20]	; 0xffffffec
2000b7f4:	e51b3010 	ldr	r3, [fp, #-16]
2000b7f8:	e2833010 	add	r3, r3, #16
2000b7fc:	e51b1034 	ldr	r1, [fp, #-52]	; 0xffffffcc
2000b800:	e1a00003 	mov	r0, r3
2000b804:	eb0006dd 	bl	2000d380 <ip_addr_isbroadcast>
2000b808:	e1a03000 	mov	r3, r0
2000b80c:	e3530000 	cmp	r3, #0
2000b810:	0a000001 	beq	2000b81c <icmp_input+0x17c>
2000b814:	e3a03000 	mov	r3, #0
2000b818:	e50b3014 	str	r3, [fp, #-20]	; 0xffffffec
2000b81c:	e51b3014 	ldr	r3, [fp, #-20]	; 0xffffffec
2000b820:	e3530000 	cmp	r3, #0
2000b824:	1a000009 	bne	2000b850 <icmp_input+0x1b0>
2000b828:	e59f3584 	ldr	r3, [pc, #1412]	; 2000bdb4 <icmp_input+0x714>
2000b82c:	e1d337b4 	ldrh	r3, [r3, #116]	; 0x74
2000b830:	e2833001 	add	r3, r3, #1
2000b834:	e1a03803 	lsl	r3, r3, #16
2000b838:	e1a03823 	lsr	r3, r3, #16
2000b83c:	e59f2570 	ldr	r2, [pc, #1392]	; 2000bdb4 <icmp_input+0x714>
2000b840:	e1c237b4 	strh	r3, [r2, #116]	; 0x74
2000b844:	e51b0030 	ldr	r0, [fp, #-48]	; 0xffffffd0
2000b848:	ebffd909 	bl	20001c74 <pbuf_free>
2000b84c:	ea000155 	b	2000bda8 <icmp_input+0x708>
2000b850:	e51b3030 	ldr	r3, [fp, #-48]	; 0xffffffd0
2000b854:	e1d330b8 	ldrh	r3, [r3, #8]
2000b858:	e3530007 	cmp	r3, #7
2000b85c:	9a000133 	bls	2000bd30 <icmp_input+0x690>
2000b860:	e51b0030 	ldr	r0, [fp, #-48]	; 0xffffffd0
2000b864:	eb000da7 	bl	2000ef08 <inet_chksum_pbuf>
2000b868:	e1a03000 	mov	r3, r0
2000b86c:	e3530000 	cmp	r3, #0
2000b870:	0a000009 	beq	2000b89c <icmp_input+0x1fc>
2000b874:	e51b0030 	ldr	r0, [fp, #-48]	; 0xffffffd0
2000b878:	ebffd8fd 	bl	20001c74 <pbuf_free>
2000b87c:	e59f3530 	ldr	r3, [pc, #1328]	; 2000bdb4 <icmp_input+0x714>
2000b880:	e1d336b8 	ldrh	r3, [r3, #104]	; 0x68
2000b884:	e2833001 	add	r3, r3, #1
2000b888:	e1a03803 	lsl	r3, r3, #16
2000b88c:	e1a03823 	lsr	r3, r3, #16
2000b890:	e59f251c 	ldr	r2, [pc, #1308]	; 2000bdb4 <icmp_input+0x714>
2000b894:	e1c236b8 	strh	r3, [r2, #104]	; 0x68
2000b898:	ea000142 	b	2000bda8 <icmp_input+0x708>
2000b89c:	e3a01024 	mov	r1, #36	; 0x24
2000b8a0:	e51b0030 	ldr	r0, [fp, #-48]	; 0xffffffd0
2000b8a4:	ebffd888 	bl	20001acc <pbuf_header>
2000b8a8:	e1a03000 	mov	r3, r0
2000b8ac:	e3530000 	cmp	r3, #0
2000b8b0:	0a00002c 	beq	2000b968 <icmp_input+0x2c8>
2000b8b4:	e15b31f6 	ldrsh	r3, [fp, #-22]	; 0xffffffea
2000b8b8:	e1a01003 	mov	r1, r3
2000b8bc:	e51b0030 	ldr	r0, [fp, #-48]	; 0xffffffd0
2000b8c0:	ebffd881 	bl	20001acc <pbuf_header>
2000b8c4:	e1a03000 	mov	r3, r0
2000b8c8:	e3530000 	cmp	r3, #0
2000b8cc:	1a000122 	bne	2000bd5c <icmp_input+0x6bc>
2000b8d0:	e51b3030 	ldr	r3, [fp, #-48]	; 0xffffffd0
2000b8d4:	e1d330b8 	ldrh	r3, [r3, #8]
2000b8d8:	e3a02000 	mov	r2, #0
2000b8dc:	e1a01003 	mov	r1, r3
2000b8e0:	e3a00002 	mov	r0, #2
2000b8e4:	ebffd72a 	bl	20001594 <pbuf_alloc>
2000b8e8:	e50b001c 	str	r0, [fp, #-28]	; 0xffffffe4
2000b8ec:	e51b301c 	ldr	r3, [fp, #-28]	; 0xffffffe4
2000b8f0:	e3530000 	cmp	r3, #0
2000b8f4:	0a00011a 	beq	2000bd64 <icmp_input+0x6c4>
2000b8f8:	e51b1030 	ldr	r1, [fp, #-48]	; 0xffffffd0
2000b8fc:	e51b001c 	ldr	r0, [fp, #-28]	; 0xffffffe4
2000b900:	ebffd9b6 	bl	20001fe0 <pbuf_copy>
2000b904:	e1a03000 	mov	r3, r0
2000b908:	e3530000 	cmp	r3, #0
2000b90c:	1a000116 	bne	2000bd6c <icmp_input+0x6cc>
2000b910:	e51b301c 	ldr	r3, [fp, #-28]	; 0xffffffe4
2000b914:	e5933004 	ldr	r3, [r3, #4]
2000b918:	e50b3010 	str	r3, [fp, #-16]
2000b91c:	e15b31b6 	ldrh	r3, [fp, #-22]	; 0xffffffea
2000b920:	e2633000 	rsb	r3, r3, #0
2000b924:	e1a03803 	lsl	r3, r3, #16
2000b928:	e1a03823 	lsr	r3, r3, #16
2000b92c:	e1a03803 	lsl	r3, r3, #16
2000b930:	e1a03823 	lsr	r3, r3, #16
2000b934:	e1a03803 	lsl	r3, r3, #16
2000b938:	e1a03843 	asr	r3, r3, #16
2000b93c:	e1a01003 	mov	r1, r3
2000b940:	e51b001c 	ldr	r0, [fp, #-28]	; 0xffffffe4
2000b944:	ebffd860 	bl	20001acc <pbuf_header>
2000b948:	e1a03000 	mov	r3, r0
2000b94c:	e3530000 	cmp	r3, #0
2000b950:	1a000107 	bne	2000bd74 <icmp_input+0x6d4>
2000b954:	e51b0030 	ldr	r0, [fp, #-48]	; 0xffffffd0
2000b958:	ebffd8c5 	bl	20001c74 <pbuf_free>
2000b95c:	e51b301c 	ldr	r3, [fp, #-28]	; 0xffffffe4
2000b960:	e50b3030 	str	r3, [fp, #-48]	; 0xffffffd0
2000b964:	ea000005 	b	2000b980 <icmp_input+0x2e0>
2000b968:	e3e01023 	mvn	r1, #35	; 0x23
2000b96c:	e51b0030 	ldr	r0, [fp, #-48]	; 0xffffffd0
2000b970:	ebffd855 	bl	20001acc <pbuf_header>
2000b974:	e1a03000 	mov	r3, r0
2000b978:	e3530000 	cmp	r3, #0
2000b97c:	1a0000fe 	bne	2000bd7c <icmp_input+0x6dc>
2000b980:	e51b3030 	ldr	r3, [fp, #-48]	; 0xffffffd0
2000b984:	e5933004 	ldr	r3, [r3, #4]
2000b988:	e50b3020 	str	r3, [fp, #-32]	; 0xffffffe0
2000b98c:	e51b3010 	ldr	r3, [fp, #-16]
2000b990:	e5d3200c 	ldrb	r2, [r3, #12]
2000b994:	e5d3100d 	ldrb	r1, [r3, #13]
2000b998:	e1a01401 	lsl	r1, r1, #8
2000b99c:	e1812002 	orr	r2, r1, r2
2000b9a0:	e5d3100e 	ldrb	r1, [r3, #14]
2000b9a4:	e1a01801 	lsl	r1, r1, #16
2000b9a8:	e1812002 	orr	r2, r1, r2
2000b9ac:	e5d3300f 	ldrb	r3, [r3, #15]
2000b9b0:	e1a03c03 	lsl	r3, r3, #24
2000b9b4:	e1833002 	orr	r3, r3, r2
2000b9b8:	e50b3028 	str	r3, [fp, #-40]	; 0xffffffd8
2000b9bc:	e51b3010 	ldr	r3, [fp, #-16]
2000b9c0:	e5d32010 	ldrb	r2, [r3, #16]
2000b9c4:	e5d31011 	ldrb	r1, [r3, #17]
2000b9c8:	e1a01401 	lsl	r1, r1, #8
2000b9cc:	e1812002 	orr	r2, r1, r2
2000b9d0:	e5d31012 	ldrb	r1, [r3, #18]
2000b9d4:	e1a01801 	lsl	r1, r1, #16
2000b9d8:	e1812002 	orr	r2, r1, r2
2000b9dc:	e5d33013 	ldrb	r3, [r3, #19]
2000b9e0:	e1a03c03 	lsl	r3, r3, #24
2000b9e4:	e1833002 	orr	r3, r3, r2
2000b9e8:	e1a02003 	mov	r2, r3
2000b9ec:	e51b3010 	ldr	r3, [fp, #-16]
2000b9f0:	e20210ff 	and	r1, r2, #255	; 0xff
2000b9f4:	e3a00000 	mov	r0, #0
2000b9f8:	e1801001 	orr	r1, r0, r1
2000b9fc:	e5c3100c 	strb	r1, [r3, #12]
2000ba00:	e1a01422 	lsr	r1, r2, #8
2000ba04:	e20110ff 	and	r1, r1, #255	; 0xff
2000ba08:	e3a00000 	mov	r0, #0
2000ba0c:	e1801001 	orr	r1, r0, r1
2000ba10:	e5c3100d 	strb	r1, [r3, #13]
2000ba14:	e1a01822 	lsr	r1, r2, #16
2000ba18:	e20110ff 	and	r1, r1, #255	; 0xff
2000ba1c:	e3a00000 	mov	r0, #0
2000ba20:	e1801001 	orr	r1, r0, r1
2000ba24:	e5c3100e 	strb	r1, [r3, #14]
2000ba28:	e1a02c22 	lsr	r2, r2, #24
2000ba2c:	e3a01000 	mov	r1, #0
2000ba30:	e1812002 	orr	r2, r1, r2
2000ba34:	e5c3200f 	strb	r2, [r3, #15]
2000ba38:	e51b2028 	ldr	r2, [fp, #-40]	; 0xffffffd8
2000ba3c:	e51b3010 	ldr	r3, [fp, #-16]
2000ba40:	e20210ff 	and	r1, r2, #255	; 0xff
2000ba44:	e3a00000 	mov	r0, #0
2000ba48:	e1801001 	orr	r1, r0, r1
2000ba4c:	e5c31010 	strb	r1, [r3, #16]
2000ba50:	e1a01422 	lsr	r1, r2, #8
2000ba54:	e20110ff 	and	r1, r1, #255	; 0xff
2000ba58:	e3a00000 	mov	r0, #0
2000ba5c:	e1801001 	orr	r1, r0, r1
2000ba60:	e5c31011 	strb	r1, [r3, #17]
2000ba64:	e1a01822 	lsr	r1, r2, #16
2000ba68:	e20110ff 	and	r1, r1, #255	; 0xff
2000ba6c:	e3a00000 	mov	r0, #0
2000ba70:	e1801001 	orr	r1, r0, r1
2000ba74:	e5c31012 	strb	r1, [r3, #18]
2000ba78:	e1a02c22 	lsr	r2, r2, #24
2000ba7c:	e3a01000 	mov	r1, #0
2000ba80:	e1812002 	orr	r2, r1, r2
2000ba84:	e5c32013 	strb	r2, [r3, #19]
2000ba88:	e51b3020 	ldr	r3, [fp, #-32]	; 0xffffffe0
2000ba8c:	e3a02000 	mov	r2, #0
2000ba90:	e5c32000 	strb	r2, [r3]
2000ba94:	e51b3020 	ldr	r3, [fp, #-32]	; 0xffffffe0
2000ba98:	e5d32002 	ldrb	r2, [r3, #2]
2000ba9c:	e5d33003 	ldrb	r3, [r3, #3]
2000baa0:	e1a03403 	lsl	r3, r3, #8
2000baa4:	e1833002 	orr	r3, r3, r2
2000baa8:	e1a03803 	lsl	r3, r3, #16
2000baac:	e1a04823 	lsr	r4, r3, #16
2000bab0:	e59f0300 	ldr	r0, [pc, #768]	; 2000bdb8 <icmp_input+0x718>
2000bab4:	eb0005ec 	bl	2000d26c <htons>
2000bab8:	e1a03000 	mov	r3, r0
2000babc:	e1540003 	cmp	r4, r3
2000bac0:	3a00001b 	bcc	2000bb34 <icmp_input+0x494>
2000bac4:	e3a00b02 	mov	r0, #2048	; 0x800
2000bac8:	eb0005e7 	bl	2000d26c <htons>
2000bacc:	e1a03000 	mov	r3, r0
2000bad0:	e2831001 	add	r1, r3, #1
2000bad4:	e51b3020 	ldr	r3, [fp, #-32]	; 0xffffffe0
2000bad8:	e5d32002 	ldrb	r2, [r3, #2]
2000badc:	e5d33003 	ldrb	r3, [r3, #3]
2000bae0:	e1a03403 	lsl	r3, r3, #8
2000bae4:	e1833002 	orr	r3, r3, r2
2000bae8:	e1a03803 	lsl	r3, r3, #16
2000baec:	e1a02823 	lsr	r2, r3, #16
2000baf0:	e1a03801 	lsl	r3, r1, #16
2000baf4:	e1a03823 	lsr	r3, r3, #16
2000baf8:	e0823003 	add	r3, r2, r3
2000bafc:	e1a03803 	lsl	r3, r3, #16
2000bb00:	e1a02823 	lsr	r2, r3, #16
2000bb04:	e51b3020 	ldr	r3, [fp, #-32]	; 0xffffffe0
2000bb08:	e20210ff 	and	r1, r2, #255	; 0xff
2000bb0c:	e3a00000 	mov	r0, #0
2000bb10:	e1801001 	orr	r1, r0, r1
2000bb14:	e5c31002 	strb	r1, [r3, #2]
2000bb18:	e1a02422 	lsr	r2, r2, #8
2000bb1c:	e1a02802 	lsl	r2, r2, #16
2000bb20:	e1a02822 	lsr	r2, r2, #16
2000bb24:	e3a01000 	mov	r1, #0
2000bb28:	e1812002 	orr	r2, r1, r2
2000bb2c:	e5c32003 	strb	r2, [r3, #3]
2000bb30:	ea000018 	b	2000bb98 <icmp_input+0x4f8>
2000bb34:	e3a00b02 	mov	r0, #2048	; 0x800
2000bb38:	eb0005cb 	bl	2000d26c <htons>
2000bb3c:	e1a03000 	mov	r3, r0
2000bb40:	e1a01003 	mov	r1, r3
2000bb44:	e51b3020 	ldr	r3, [fp, #-32]	; 0xffffffe0
2000bb48:	e5d32002 	ldrb	r2, [r3, #2]
2000bb4c:	e5d33003 	ldrb	r3, [r3, #3]
2000bb50:	e1a03403 	lsl	r3, r3, #8
2000bb54:	e1833002 	orr	r3, r3, r2
2000bb58:	e1a03803 	lsl	r3, r3, #16
2000bb5c:	e1a03823 	lsr	r3, r3, #16
2000bb60:	e0833001 	add	r3, r3, r1
2000bb64:	e1a03803 	lsl	r3, r3, #16
2000bb68:	e1a02823 	lsr	r2, r3, #16
2000bb6c:	e51b3020 	ldr	r3, [fp, #-32]	; 0xffffffe0
2000bb70:	e20210ff 	and	r1, r2, #255	; 0xff
2000bb74:	e3a00000 	mov	r0, #0
2000bb78:	e1801001 	orr	r1, r0, r1
2000bb7c:	e5c31002 	strb	r1, [r3, #2]
2000bb80:	e1a02422 	lsr	r2, r2, #8
2000bb84:	e1a02802 	lsl	r2, r2, #16
2000bb88:	e1a02822 	lsr	r2, r2, #16
2000bb8c:	e3a01000 	mov	r1, #0
2000bb90:	e1812002 	orr	r2, r1, r2
2000bb94:	e5c32003 	strb	r2, [r3, #3]
2000bb98:	e51b3010 	ldr	r3, [fp, #-16]
2000bb9c:	e5d32008 	ldrb	r2, [r3, #8]
2000bba0:	e5d33009 	ldrb	r3, [r3, #9]
2000bba4:	e1a03403 	lsl	r3, r3, #8
2000bba8:	e1833002 	orr	r3, r3, r2
2000bbac:	e1a03803 	lsl	r3, r3, #16
2000bbb0:	e1a03823 	lsr	r3, r3, #16
2000bbb4:	e1a00003 	mov	r0, r3
2000bbb8:	eb0005c3 	bl	2000d2cc <ntohs>
2000bbbc:	e1a03000 	mov	r3, r0
2000bbc0:	e1a03803 	lsl	r3, r3, #16
2000bbc4:	e1a03823 	lsr	r3, r3, #16
2000bbc8:	e1e03c03 	mvn	r3, r3, lsl #24
2000bbcc:	e1e03c23 	mvn	r3, r3, lsr #24
2000bbd0:	e1a03803 	lsl	r3, r3, #16
2000bbd4:	e1a03823 	lsr	r3, r3, #16
2000bbd8:	e1a03803 	lsl	r3, r3, #16
2000bbdc:	e1a03823 	lsr	r3, r3, #16
2000bbe0:	e1a00003 	mov	r0, r3
2000bbe4:	eb0005a0 	bl	2000d26c <htons>
2000bbe8:	e1a03000 	mov	r3, r0
2000bbec:	e1a02003 	mov	r2, r3
2000bbf0:	e51b3010 	ldr	r3, [fp, #-16]
2000bbf4:	e20210ff 	and	r1, r2, #255	; 0xff
2000bbf8:	e3a00000 	mov	r0, #0
2000bbfc:	e1801001 	orr	r1, r0, r1
2000bc00:	e5c31008 	strb	r1, [r3, #8]
2000bc04:	e1a02422 	lsr	r2, r2, #8
2000bc08:	e1a02802 	lsl	r2, r2, #16
2000bc0c:	e1a02822 	lsr	r2, r2, #16
2000bc10:	e3a01000 	mov	r1, #0
2000bc14:	e1812002 	orr	r2, r1, r2
2000bc18:	e5c32009 	strb	r2, [r3, #9]
2000bc1c:	e51b3010 	ldr	r3, [fp, #-16]
2000bc20:	e3a02000 	mov	r2, #0
2000bc24:	e5c3200a 	strb	r2, [r3, #10]
2000bc28:	e3a02000 	mov	r2, #0
2000bc2c:	e5c3200b 	strb	r2, [r3, #11]
2000bc30:	e3a01014 	mov	r1, #20
2000bc34:	e51b0010 	ldr	r0, [fp, #-16]
2000bc38:	eb000ca0 	bl	2000eec0 <inet_chksum>
2000bc3c:	e1a03000 	mov	r3, r0
2000bc40:	e1a02003 	mov	r2, r3
2000bc44:	e51b3010 	ldr	r3, [fp, #-16]
2000bc48:	e20210ff 	and	r1, r2, #255	; 0xff
2000bc4c:	e3a00000 	mov	r0, #0
2000bc50:	e1801001 	orr	r1, r0, r1
2000bc54:	e5c3100a 	strb	r1, [r3, #10]
2000bc58:	e1a02422 	lsr	r2, r2, #8
2000bc5c:	e1a02802 	lsl	r2, r2, #16
2000bc60:	e1a02822 	lsr	r2, r2, #16
2000bc64:	e3a01000 	mov	r1, #0
2000bc68:	e1812002 	orr	r2, r1, r2
2000bc6c:	e5c3200b 	strb	r2, [r3, #11]
2000bc70:	e59f313c 	ldr	r3, [pc, #316]	; 2000bdb4 <icmp_input+0x714>
2000bc74:	e1d336b0 	ldrh	r3, [r3, #96]	; 0x60
2000bc78:	e2833001 	add	r3, r3, #1
2000bc7c:	e1a03803 	lsl	r3, r3, #16
2000bc80:	e1a03823 	lsr	r3, r3, #16
2000bc84:	e59f2128 	ldr	r2, [pc, #296]	; 2000bdb4 <icmp_input+0x714>
2000bc88:	e1c236b0 	strh	r3, [r2, #96]	; 0x60
2000bc8c:	e15b31f6 	ldrsh	r3, [fp, #-22]	; 0xffffffea
2000bc90:	e1a01003 	mov	r1, r3
2000bc94:	e51b0030 	ldr	r0, [fp, #-48]	; 0xffffffd0
2000bc98:	ebffd78b 	bl	20001acc <pbuf_header>
2000bc9c:	e1a03000 	mov	r3, r0
2000bca0:	e3530000 	cmp	r3, #0
2000bca4:	1a00001d 	bne	2000bd20 <icmp_input+0x680>
2000bca8:	e51b3010 	ldr	r3, [fp, #-16]
2000bcac:	e283100c 	add	r1, r3, #12
2000bcb0:	e51b3034 	ldr	r3, [fp, #-52]	; 0xffffffcc
2000bcb4:	e58d3008 	str	r3, [sp, #8]
2000bcb8:	e3a03001 	mov	r3, #1
2000bcbc:	e58d3004 	str	r3, [sp, #4]
2000bcc0:	e3a03000 	mov	r3, #0
2000bcc4:	e58d3000 	str	r3, [sp]
2000bcc8:	e3a030ff 	mov	r3, #255	; 0xff
2000bccc:	e3a02000 	mov	r2, #0
2000bcd0:	e51b0030 	ldr	r0, [fp, #-48]	; 0xffffffd0
2000bcd4:	eb000277 	bl	2000c6b8 <ip_output_if>
2000bcd8:	e1a03000 	mov	r3, r0
2000bcdc:	e54b3021 	strb	r3, [fp, #-33]	; 0xffffffdf
2000bce0:	ea00000e 	b	2000bd20 <icmp_input+0x680>
2000bce4:	e59f30c8 	ldr	r3, [pc, #200]	; 2000bdb4 <icmp_input+0x714>
2000bce8:	e1d337b0 	ldrh	r3, [r3, #112]	; 0x70
2000bcec:	e2833001 	add	r3, r3, #1
2000bcf0:	e1a03803 	lsl	r3, r3, #16
2000bcf4:	e1a03823 	lsr	r3, r3, #16
2000bcf8:	e59f20b4 	ldr	r2, [pc, #180]	; 2000bdb4 <icmp_input+0x714>
2000bcfc:	e1c237b0 	strh	r3, [r2, #112]	; 0x70
2000bd00:	e59f30ac 	ldr	r3, [pc, #172]	; 2000bdb4 <icmp_input+0x714>
2000bd04:	e1d336b6 	ldrh	r3, [r3, #102]	; 0x66
2000bd08:	e2833001 	add	r3, r3, #1
2000bd0c:	e1a03803 	lsl	r3, r3, #16
2000bd10:	e1a03823 	lsr	r3, r3, #16
2000bd14:	e59f2098 	ldr	r2, [pc, #152]	; 2000bdb4 <icmp_input+0x714>
2000bd18:	e1c236b6 	strh	r3, [r2, #102]	; 0x66
2000bd1c:	ea000000 	b	2000bd24 <icmp_input+0x684>
2000bd20:	e1a00000 	nop			; (mov r0, r0)
2000bd24:	e51b0030 	ldr	r0, [fp, #-48]	; 0xffffffd0
2000bd28:	ebffd7d1 	bl	20001c74 <pbuf_free>
2000bd2c:	ea00001d 	b	2000bda8 <icmp_input+0x708>
2000bd30:	e1a00000 	nop			; (mov r0, r0)
2000bd34:	e51b0030 	ldr	r0, [fp, #-48]	; 0xffffffd0
2000bd38:	ebffd7cd 	bl	20001c74 <pbuf_free>
2000bd3c:	e59f3070 	ldr	r3, [pc, #112]	; 2000bdb4 <icmp_input+0x714>
2000bd40:	e1d336ba 	ldrh	r3, [r3, #106]	; 0x6a
2000bd44:	e2833001 	add	r3, r3, #1
2000bd48:	e1a03803 	lsl	r3, r3, #16
2000bd4c:	e1a03823 	lsr	r3, r3, #16
2000bd50:	e59f205c 	ldr	r2, [pc, #92]	; 2000bdb4 <icmp_input+0x714>
2000bd54:	e1c236ba 	strh	r3, [r2, #106]	; 0x6a
2000bd58:	ea000012 	b	2000bda8 <icmp_input+0x708>
2000bd5c:	e1a00000 	nop			; (mov r0, r0)
2000bd60:	ea000006 	b	2000bd80 <icmp_input+0x6e0>
2000bd64:	e1a00000 	nop			; (mov r0, r0)
2000bd68:	ea000004 	b	2000bd80 <icmp_input+0x6e0>
2000bd6c:	e1a00000 	nop			; (mov r0, r0)
2000bd70:	ea000002 	b	2000bd80 <icmp_input+0x6e0>
2000bd74:	e1a00000 	nop			; (mov r0, r0)
2000bd78:	ea000000 	b	2000bd80 <icmp_input+0x6e0>
2000bd7c:	e1a00000 	nop			; (mov r0, r0)
2000bd80:	e51b0030 	ldr	r0, [fp, #-48]	; 0xffffffd0
2000bd84:	ebffd7ba 	bl	20001c74 <pbuf_free>
2000bd88:	e59f3024 	ldr	r3, [pc, #36]	; 2000bdb4 <icmp_input+0x714>
2000bd8c:	e1d337b4 	ldrh	r3, [r3, #116]	; 0x74
2000bd90:	e2833001 	add	r3, r3, #1
2000bd94:	e1a03803 	lsl	r3, r3, #16
2000bd98:	e1a03823 	lsr	r3, r3, #16
2000bd9c:	e59f2010 	ldr	r2, [pc, #16]	; 2000bdb4 <icmp_input+0x714>
2000bda0:	e1c237b4 	strh	r3, [r2, #116]	; 0x74
2000bda4:	e1a00000 	nop			; (mov r0, r0)
2000bda8:	e24bd008 	sub	sp, fp, #8
2000bdac:	e8bd4810 	pop	{r4, fp, lr}
2000bdb0:	e12fff1e 	bx	lr
2000bdb4:	20015630 	.word	0x20015630
2000bdb8:	0000f7ff 	.word	0x0000f7ff

2000bdbc <icmp_dest_unreach>:
2000bdbc:	e92d4800 	push	{fp, lr}
2000bdc0:	e28db004 	add	fp, sp, #4
2000bdc4:	e24dd008 	sub	sp, sp, #8
2000bdc8:	e50b0008 	str	r0, [fp, #-8]
2000bdcc:	e1a03001 	mov	r3, r1
2000bdd0:	e54b3009 	strb	r3, [fp, #-9]
2000bdd4:	e55b3009 	ldrb	r3, [fp, #-9]
2000bdd8:	e1a02003 	mov	r2, r3
2000bddc:	e3a01003 	mov	r1, #3
2000bde0:	e51b0008 	ldr	r0, [fp, #-8]
2000bde4:	eb000012 	bl	2000be34 <icmp_send_response>
2000bde8:	e1a00000 	nop			; (mov r0, r0)
2000bdec:	e24bd004 	sub	sp, fp, #4
2000bdf0:	e8bd4800 	pop	{fp, lr}
2000bdf4:	e12fff1e 	bx	lr

2000bdf8 <icmp_time_exceeded>:
2000bdf8:	e92d4800 	push	{fp, lr}
2000bdfc:	e28db004 	add	fp, sp, #4
2000be00:	e24dd008 	sub	sp, sp, #8
2000be04:	e50b0008 	str	r0, [fp, #-8]
2000be08:	e1a03001 	mov	r3, r1
2000be0c:	e54b3009 	strb	r3, [fp, #-9]
2000be10:	e55b3009 	ldrb	r3, [fp, #-9]
2000be14:	e1a02003 	mov	r2, r3
2000be18:	e3a0100b 	mov	r1, #11
2000be1c:	e51b0008 	ldr	r0, [fp, #-8]
2000be20:	eb000003 	bl	2000be34 <icmp_send_response>
2000be24:	e1a00000 	nop			; (mov r0, r0)
2000be28:	e24bd004 	sub	sp, fp, #4
2000be2c:	e8bd4800 	pop	{fp, lr}
2000be30:	e12fff1e 	bx	lr

2000be34 <icmp_send_response>:
2000be34:	e92d4800 	push	{fp, lr}
2000be38:	e28db004 	add	fp, sp, #4
2000be3c:	e24dd020 	sub	sp, sp, #32
2000be40:	e50b0018 	str	r0, [fp, #-24]	; 0xffffffe8
2000be44:	e1a03001 	mov	r3, r1
2000be48:	e54b3019 	strb	r3, [fp, #-25]	; 0xffffffe7
2000be4c:	e1a03002 	mov	r3, r2
2000be50:	e54b301a 	strb	r3, [fp, #-26]	; 0xffffffe6
2000be54:	e3a02000 	mov	r2, #0
2000be58:	e3a01024 	mov	r1, #36	; 0x24
2000be5c:	e3a00001 	mov	r0, #1
2000be60:	ebffd5cb 	bl	20001594 <pbuf_alloc>
2000be64:	e50b0008 	str	r0, [fp, #-8]
2000be68:	e51b3008 	ldr	r3, [fp, #-8]
2000be6c:	e3530000 	cmp	r3, #0
2000be70:	0a000048 	beq	2000bf98 <icmp_send_response+0x164>
2000be74:	e51b3018 	ldr	r3, [fp, #-24]	; 0xffffffe8
2000be78:	e5933004 	ldr	r3, [r3, #4]
2000be7c:	e50b300c 	str	r3, [fp, #-12]
2000be80:	e51b3008 	ldr	r3, [fp, #-8]
2000be84:	e5933004 	ldr	r3, [r3, #4]
2000be88:	e50b3010 	str	r3, [fp, #-16]
2000be8c:	e51b3010 	ldr	r3, [fp, #-16]
2000be90:	e55b2019 	ldrb	r2, [fp, #-25]	; 0xffffffe7
2000be94:	e5c32000 	strb	r2, [r3]
2000be98:	e51b3010 	ldr	r3, [fp, #-16]
2000be9c:	e55b201a 	ldrb	r2, [fp, #-26]	; 0xffffffe6
2000bea0:	e5c32001 	strb	r2, [r3, #1]
2000bea4:	e51b3010 	ldr	r3, [fp, #-16]
2000bea8:	e3a02000 	mov	r2, #0
2000beac:	e5c32004 	strb	r2, [r3, #4]
2000beb0:	e3a02000 	mov	r2, #0
2000beb4:	e5c32005 	strb	r2, [r3, #5]
2000beb8:	e51b3010 	ldr	r3, [fp, #-16]
2000bebc:	e3a02000 	mov	r2, #0
2000bec0:	e5c32006 	strb	r2, [r3, #6]
2000bec4:	e3a02000 	mov	r2, #0
2000bec8:	e5c32007 	strb	r2, [r3, #7]
2000becc:	e51b3008 	ldr	r3, [fp, #-8]
2000bed0:	e5933004 	ldr	r3, [r3, #4]
2000bed4:	e2830008 	add	r0, r3, #8
2000bed8:	e51b3018 	ldr	r3, [fp, #-24]	; 0xffffffe8
2000bedc:	e5933004 	ldr	r3, [r3, #4]
2000bee0:	e3a0201c 	mov	r2, #28
2000bee4:	e1a01003 	mov	r1, r3
2000bee8:	eb001f37 	bl	20013bcc <__rom_data_end>
2000beec:	e51b3010 	ldr	r3, [fp, #-16]
2000bef0:	e3a02000 	mov	r2, #0
2000bef4:	e5c32002 	strb	r2, [r3, #2]
2000bef8:	e3a02000 	mov	r2, #0
2000befc:	e5c32003 	strb	r2, [r3, #3]
2000bf00:	e51b3008 	ldr	r3, [fp, #-8]
2000bf04:	e1d330ba 	ldrh	r3, [r3, #10]
2000bf08:	e1a01003 	mov	r1, r3
2000bf0c:	e51b0010 	ldr	r0, [fp, #-16]
2000bf10:	eb000bea 	bl	2000eec0 <inet_chksum>
2000bf14:	e1a03000 	mov	r3, r0
2000bf18:	e1a02003 	mov	r2, r3
2000bf1c:	e51b3010 	ldr	r3, [fp, #-16]
2000bf20:	e20210ff 	and	r1, r2, #255	; 0xff
2000bf24:	e3a00000 	mov	r0, #0
2000bf28:	e1801001 	orr	r1, r0, r1
2000bf2c:	e5c31002 	strb	r1, [r3, #2]
2000bf30:	e1a02422 	lsr	r2, r2, #8
2000bf34:	e1a02802 	lsl	r2, r2, #16
2000bf38:	e1a02822 	lsr	r2, r2, #16
2000bf3c:	e3a01000 	mov	r1, #0
2000bf40:	e1812002 	orr	r2, r1, r2
2000bf44:	e5c32003 	strb	r2, [r3, #3]
2000bf48:	e59f3058 	ldr	r3, [pc, #88]	; 2000bfa8 <icmp_send_response+0x174>
2000bf4c:	e1d336b0 	ldrh	r3, [r3, #96]	; 0x60
2000bf50:	e2833001 	add	r3, r3, #1
2000bf54:	e1a03803 	lsl	r3, r3, #16
2000bf58:	e1a03823 	lsr	r3, r3, #16
2000bf5c:	e59f2044 	ldr	r2, [pc, #68]	; 2000bfa8 <icmp_send_response+0x174>
2000bf60:	e1c236b0 	strh	r3, [r2, #96]	; 0x60
2000bf64:	e51b300c 	ldr	r3, [fp, #-12]
2000bf68:	e283200c 	add	r2, r3, #12
2000bf6c:	e3a03001 	mov	r3, #1
2000bf70:	e58d3004 	str	r3, [sp, #4]
2000bf74:	e3a03000 	mov	r3, #0
2000bf78:	e58d3000 	str	r3, [sp]
2000bf7c:	e3a030ff 	mov	r3, #255	; 0xff
2000bf80:	e3a01000 	mov	r1, #0
2000bf84:	e51b0008 	ldr	r0, [fp, #-8]
2000bf88:	eb00033e 	bl	2000cc88 <ip_output>
2000bf8c:	e51b0008 	ldr	r0, [fp, #-8]
2000bf90:	ebffd737 	bl	20001c74 <pbuf_free>
2000bf94:	ea000000 	b	2000bf9c <icmp_send_response+0x168>
2000bf98:	e1a00000 	nop			; (mov r0, r0)
2000bf9c:	e24bd004 	sub	sp, fp, #4
2000bfa0:	e8bd4800 	pop	{fp, lr}
2000bfa4:	e12fff1e 	bx	lr
2000bfa8:	20015630 	.word	0x20015630

2000bfac <ip_route>:
2000bfac:	e92d4800 	push	{fp, lr}
2000bfb0:	e28db004 	add	fp, sp, #4
2000bfb4:	e24dd010 	sub	sp, sp, #16
2000bfb8:	e50b0010 	str	r0, [fp, #-16]
2000bfbc:	e59f30f4 	ldr	r3, [pc, #244]	; 2000c0b8 <ip_route+0x10c>
2000bfc0:	e5933000 	ldr	r3, [r3]
2000bfc4:	e50b3008 	str	r3, [fp, #-8]
2000bfc8:	ea00001d 	b	2000c044 <ip_route+0x98>
2000bfcc:	e51b0008 	ldr	r0, [fp, #-8]
2000bfd0:	ebffd560 	bl	20001558 <netif_is_up>
2000bfd4:	e1a03000 	mov	r3, r0
2000bfd8:	e3530000 	cmp	r3, #0
2000bfdc:	0a000015 	beq	2000c038 <ip_route+0x8c>
2000bfe0:	e51b3010 	ldr	r3, [fp, #-16]
2000bfe4:	e5d32000 	ldrb	r2, [r3]
2000bfe8:	e5d31001 	ldrb	r1, [r3, #1]
2000bfec:	e1a01401 	lsl	r1, r1, #8
2000bff0:	e1812002 	orr	r2, r1, r2
2000bff4:	e5d31002 	ldrb	r1, [r3, #2]
2000bff8:	e1a01801 	lsl	r1, r1, #16
2000bffc:	e1812002 	orr	r2, r1, r2
2000c000:	e5d33003 	ldrb	r3, [r3, #3]
2000c004:	e1a03c03 	lsl	r3, r3, #24
2000c008:	e1833002 	orr	r3, r3, r2
2000c00c:	e1a02003 	mov	r2, r3
2000c010:	e51b3008 	ldr	r3, [fp, #-8]
2000c014:	e5933004 	ldr	r3, [r3, #4]
2000c018:	e0222003 	eor	r2, r2, r3
2000c01c:	e51b3008 	ldr	r3, [fp, #-8]
2000c020:	e5933008 	ldr	r3, [r3, #8]
2000c024:	e0033002 	and	r3, r3, r2
2000c028:	e3530000 	cmp	r3, #0
2000c02c:	1a000001 	bne	2000c038 <ip_route+0x8c>
2000c030:	e51b3008 	ldr	r3, [fp, #-8]
2000c034:	ea00001b 	b	2000c0a8 <ip_route+0xfc>
2000c038:	e51b3008 	ldr	r3, [fp, #-8]
2000c03c:	e5933000 	ldr	r3, [r3]
2000c040:	e50b3008 	str	r3, [fp, #-8]
2000c044:	e51b3008 	ldr	r3, [fp, #-8]
2000c048:	e3530000 	cmp	r3, #0
2000c04c:	1affffde 	bne	2000bfcc <ip_route+0x20>
2000c050:	e59f3064 	ldr	r3, [pc, #100]	; 2000c0bc <ip_route+0x110>
2000c054:	e5933000 	ldr	r3, [r3]
2000c058:	e3530000 	cmp	r3, #0
2000c05c:	0a000006 	beq	2000c07c <ip_route+0xd0>
2000c060:	e59f3054 	ldr	r3, [pc, #84]	; 2000c0bc <ip_route+0x110>
2000c064:	e5933000 	ldr	r3, [r3]
2000c068:	e1a00003 	mov	r0, r3
2000c06c:	ebffd539 	bl	20001558 <netif_is_up>
2000c070:	e1a03000 	mov	r3, r0
2000c074:	e3530000 	cmp	r3, #0
2000c078:	1a000008 	bne	2000c0a0 <ip_route+0xf4>
2000c07c:	e59f303c 	ldr	r3, [pc, #60]	; 2000c0c0 <ip_route+0x114>
2000c080:	e1d335b6 	ldrh	r3, [r3, #86]	; 0x56
2000c084:	e2833001 	add	r3, r3, #1
2000c088:	e1a03803 	lsl	r3, r3, #16
2000c08c:	e1a03823 	lsr	r3, r3, #16
2000c090:	e59f2028 	ldr	r2, [pc, #40]	; 2000c0c0 <ip_route+0x114>
2000c094:	e1c235b6 	strh	r3, [r2, #86]	; 0x56
2000c098:	e3a03000 	mov	r3, #0
2000c09c:	ea000001 	b	2000c0a8 <ip_route+0xfc>
2000c0a0:	e59f3014 	ldr	r3, [pc, #20]	; 2000c0bc <ip_route+0x110>
2000c0a4:	e5933000 	ldr	r3, [r3]
2000c0a8:	e1a00003 	mov	r0, r3
2000c0ac:	e24bd004 	sub	sp, fp, #4
2000c0b0:	e8bd4800 	pop	{fp, lr}
2000c0b4:	e12fff1e 	bx	lr
2000c0b8:	20015628 	.word	0x20015628
2000c0bc:	2001562c 	.word	0x2001562c
2000c0c0:	20015630 	.word	0x20015630

2000c0c4 <ip_input>:
2000c0c4:	e92d4810 	push	{r4, fp, lr}
2000c0c8:	e28db008 	add	fp, sp, #8
2000c0cc:	e24dd01c 	sub	sp, sp, #28
2000c0d0:	e50b0020 	str	r0, [fp, #-32]	; 0xffffffe0
2000c0d4:	e50b1024 	str	r1, [fp, #-36]	; 0xffffffdc
2000c0d8:	e59f35c4 	ldr	r3, [pc, #1476]	; 2000c6a4 <ip_input+0x5e0>
2000c0dc:	e1d334ba 	ldrh	r3, [r3, #74]	; 0x4a
2000c0e0:	e2833001 	add	r3, r3, #1
2000c0e4:	e1a03803 	lsl	r3, r3, #16
2000c0e8:	e1a03823 	lsr	r3, r3, #16
2000c0ec:	e59f25b0 	ldr	r2, [pc, #1456]	; 2000c6a4 <ip_input+0x5e0>
2000c0f0:	e1c234ba 	strh	r3, [r2, #74]	; 0x4a
2000c0f4:	e51b3020 	ldr	r3, [fp, #-32]	; 0xffffffe0
2000c0f8:	e5933004 	ldr	r3, [r3, #4]
2000c0fc:	e50b3010 	str	r3, [fp, #-16]
2000c100:	e51b3010 	ldr	r3, [fp, #-16]
2000c104:	e5d32000 	ldrb	r2, [r3]
2000c108:	e5d33001 	ldrb	r3, [r3, #1]
2000c10c:	e1a03403 	lsl	r3, r3, #8
2000c110:	e1833002 	orr	r3, r3, r2
2000c114:	e1a03803 	lsl	r3, r3, #16
2000c118:	e1a03823 	lsr	r3, r3, #16
2000c11c:	e1a00003 	mov	r0, r3
2000c120:	eb000469 	bl	2000d2cc <ntohs>
2000c124:	e1a03000 	mov	r3, r0
2000c128:	e1a03623 	lsr	r3, r3, #12
2000c12c:	e1a03803 	lsl	r3, r3, #16
2000c130:	e1a03823 	lsr	r3, r3, #16
2000c134:	e3530004 	cmp	r3, #4
2000c138:	0a000011 	beq	2000c184 <ip_input+0xc0>
2000c13c:	e51b0020 	ldr	r0, [fp, #-32]	; 0xffffffe0
2000c140:	ebffd6cb 	bl	20001c74 <pbuf_free>
2000c144:	e59f3558 	ldr	r3, [pc, #1368]	; 2000c6a4 <ip_input+0x5e0>
2000c148:	e1d335bc 	ldrh	r3, [r3, #92]	; 0x5c
2000c14c:	e2833001 	add	r3, r3, #1
2000c150:	e1a03803 	lsl	r3, r3, #16
2000c154:	e1a03823 	lsr	r3, r3, #16
2000c158:	e59f2544 	ldr	r2, [pc, #1348]	; 2000c6a4 <ip_input+0x5e0>
2000c15c:	e1c235bc 	strh	r3, [r2, #92]	; 0x5c
2000c160:	e59f353c 	ldr	r3, [pc, #1340]	; 2000c6a4 <ip_input+0x5e0>
2000c164:	e1d334be 	ldrh	r3, [r3, #78]	; 0x4e
2000c168:	e2833001 	add	r3, r3, #1
2000c16c:	e1a03803 	lsl	r3, r3, #16
2000c170:	e1a03823 	lsr	r3, r3, #16
2000c174:	e59f2528 	ldr	r2, [pc, #1320]	; 2000c6a4 <ip_input+0x5e0>
2000c178:	e1c234be 	strh	r3, [r2, #78]	; 0x4e
2000c17c:	e3a03000 	mov	r3, #0
2000c180:	ea000141 	b	2000c68c <ip_input+0x5c8>
2000c184:	e51b3010 	ldr	r3, [fp, #-16]
2000c188:	e5d32000 	ldrb	r2, [r3]
2000c18c:	e5d33001 	ldrb	r3, [r3, #1]
2000c190:	e1a03403 	lsl	r3, r3, #8
2000c194:	e1833002 	orr	r3, r3, r2
2000c198:	e1a03803 	lsl	r3, r3, #16
2000c19c:	e1a03823 	lsr	r3, r3, #16
2000c1a0:	e1a00003 	mov	r0, r3
2000c1a4:	eb000448 	bl	2000d2cc <ntohs>
2000c1a8:	e1a03000 	mov	r3, r0
2000c1ac:	e1a03423 	lsr	r3, r3, #8
2000c1b0:	e1a03803 	lsl	r3, r3, #16
2000c1b4:	e1a03823 	lsr	r3, r3, #16
2000c1b8:	e203300f 	and	r3, r3, #15
2000c1bc:	e14b31ba 	strh	r3, [fp, #-26]	; 0xffffffe6
2000c1c0:	e15b31ba 	ldrh	r3, [fp, #-26]	; 0xffffffe6
2000c1c4:	e1a03103 	lsl	r3, r3, #2
2000c1c8:	e14b31ba 	strh	r3, [fp, #-26]	; 0xffffffe6
2000c1cc:	e51b3010 	ldr	r3, [fp, #-16]
2000c1d0:	e5d32002 	ldrb	r2, [r3, #2]
2000c1d4:	e5d33003 	ldrb	r3, [r3, #3]
2000c1d8:	e1a03403 	lsl	r3, r3, #8
2000c1dc:	e1833002 	orr	r3, r3, r2
2000c1e0:	e1a03803 	lsl	r3, r3, #16
2000c1e4:	e1a03823 	lsr	r3, r3, #16
2000c1e8:	e1a00003 	mov	r0, r3
2000c1ec:	eb000436 	bl	2000d2cc <ntohs>
2000c1f0:	e1a03000 	mov	r3, r0
2000c1f4:	e14b31bc 	strh	r3, [fp, #-28]	; 0xffffffe4
2000c1f8:	e51b3020 	ldr	r3, [fp, #-32]	; 0xffffffe0
2000c1fc:	e1d330ba 	ldrh	r3, [r3, #10]
2000c200:	e15b21ba 	ldrh	r2, [fp, #-26]	; 0xffffffe6
2000c204:	e1520003 	cmp	r2, r3
2000c208:	8a000004 	bhi	2000c220 <ip_input+0x15c>
2000c20c:	e51b3020 	ldr	r3, [fp, #-32]	; 0xffffffe0
2000c210:	e1d330b8 	ldrh	r3, [r3, #8]
2000c214:	e15b21bc 	ldrh	r2, [fp, #-28]	; 0xffffffe4
2000c218:	e1520003 	cmp	r2, r3
2000c21c:	9a000011 	bls	2000c268 <ip_input+0x1a4>
2000c220:	e51b0020 	ldr	r0, [fp, #-32]	; 0xffffffe0
2000c224:	ebffd692 	bl	20001c74 <pbuf_free>
2000c228:	e59f3474 	ldr	r3, [pc, #1140]	; 2000c6a4 <ip_input+0x5e0>
2000c22c:	e1d335b2 	ldrh	r3, [r3, #82]	; 0x52
2000c230:	e2833001 	add	r3, r3, #1
2000c234:	e1a03803 	lsl	r3, r3, #16
2000c238:	e1a03823 	lsr	r3, r3, #16
2000c23c:	e59f2460 	ldr	r2, [pc, #1120]	; 2000c6a4 <ip_input+0x5e0>
2000c240:	e1c235b2 	strh	r3, [r2, #82]	; 0x52
2000c244:	e59f3458 	ldr	r3, [pc, #1112]	; 2000c6a4 <ip_input+0x5e0>
2000c248:	e1d334be 	ldrh	r3, [r3, #78]	; 0x4e
2000c24c:	e2833001 	add	r3, r3, #1
2000c250:	e1a03803 	lsl	r3, r3, #16
2000c254:	e1a03823 	lsr	r3, r3, #16
2000c258:	e59f2444 	ldr	r2, [pc, #1092]	; 2000c6a4 <ip_input+0x5e0>
2000c25c:	e1c234be 	strh	r3, [r2, #78]	; 0x4e
2000c260:	e3a03000 	mov	r3, #0
2000c264:	ea000108 	b	2000c68c <ip_input+0x5c8>
2000c268:	e15b31ba 	ldrh	r3, [fp, #-26]	; 0xffffffe6
2000c26c:	e1a01003 	mov	r1, r3
2000c270:	e51b0010 	ldr	r0, [fp, #-16]
2000c274:	eb000b11 	bl	2000eec0 <inet_chksum>
2000c278:	e1a03000 	mov	r3, r0
2000c27c:	e3530000 	cmp	r3, #0
2000c280:	0a000011 	beq	2000c2cc <ip_input+0x208>
2000c284:	e51b0020 	ldr	r0, [fp, #-32]	; 0xffffffe0
2000c288:	ebffd679 	bl	20001c74 <pbuf_free>
2000c28c:	e59f3410 	ldr	r3, [pc, #1040]	; 2000c6a4 <ip_input+0x5e0>
2000c290:	e1d335b0 	ldrh	r3, [r3, #80]	; 0x50
2000c294:	e2833001 	add	r3, r3, #1
2000c298:	e1a03803 	lsl	r3, r3, #16
2000c29c:	e1a03823 	lsr	r3, r3, #16
2000c2a0:	e59f23fc 	ldr	r2, [pc, #1020]	; 2000c6a4 <ip_input+0x5e0>
2000c2a4:	e1c235b0 	strh	r3, [r2, #80]	; 0x50
2000c2a8:	e59f33f4 	ldr	r3, [pc, #1012]	; 2000c6a4 <ip_input+0x5e0>
2000c2ac:	e1d334be 	ldrh	r3, [r3, #78]	; 0x4e
2000c2b0:	e2833001 	add	r3, r3, #1
2000c2b4:	e1a03803 	lsl	r3, r3, #16
2000c2b8:	e1a03823 	lsr	r3, r3, #16
2000c2bc:	e59f23e0 	ldr	r2, [pc, #992]	; 2000c6a4 <ip_input+0x5e0>
2000c2c0:	e1c234be 	strh	r3, [r2, #78]	; 0x4e
2000c2c4:	e3a03000 	mov	r3, #0
2000c2c8:	ea0000ef 	b	2000c68c <ip_input+0x5c8>
2000c2cc:	e15b31bc 	ldrh	r3, [fp, #-28]	; 0xffffffe4
2000c2d0:	e1a01003 	mov	r1, r3
2000c2d4:	e51b0020 	ldr	r0, [fp, #-32]	; 0xffffffe0
2000c2d8:	ebffd595 	bl	20001934 <pbuf_realloc>
2000c2dc:	e3a03001 	mov	r3, #1
2000c2e0:	e50b3018 	str	r3, [fp, #-24]	; 0xffffffe8
2000c2e4:	e51b3024 	ldr	r3, [fp, #-36]	; 0xffffffdc
2000c2e8:	e50b3014 	str	r3, [fp, #-20]	; 0xffffffec
2000c2ec:	e51b0014 	ldr	r0, [fp, #-20]	; 0xffffffec
2000c2f0:	ebffd498 	bl	20001558 <netif_is_up>
2000c2f4:	e1a03000 	mov	r3, r0
2000c2f8:	e3530000 	cmp	r3, #0
2000c2fc:	0a00001f 	beq	2000c380 <ip_input+0x2bc>
2000c300:	e51b3014 	ldr	r3, [fp, #-20]	; 0xffffffec
2000c304:	e2833004 	add	r3, r3, #4
2000c308:	e3530000 	cmp	r3, #0
2000c30c:	0a00001b 	beq	2000c380 <ip_input+0x2bc>
2000c310:	e51b3014 	ldr	r3, [fp, #-20]	; 0xffffffec
2000c314:	e5933004 	ldr	r3, [r3, #4]
2000c318:	e3530000 	cmp	r3, #0
2000c31c:	0a000017 	beq	2000c380 <ip_input+0x2bc>
2000c320:	e51b3010 	ldr	r3, [fp, #-16]
2000c324:	e5d32010 	ldrb	r2, [r3, #16]
2000c328:	e5d31011 	ldrb	r1, [r3, #17]
2000c32c:	e1a01401 	lsl	r1, r1, #8
2000c330:	e1812002 	orr	r2, r1, r2
2000c334:	e5d31012 	ldrb	r1, [r3, #18]
2000c338:	e1a01801 	lsl	r1, r1, #16
2000c33c:	e1812002 	orr	r2, r1, r2
2000c340:	e5d33013 	ldrb	r3, [r3, #19]
2000c344:	e1a03c03 	lsl	r3, r3, #24
2000c348:	e1833002 	orr	r3, r3, r2
2000c34c:	e1a02003 	mov	r2, r3
2000c350:	e51b3014 	ldr	r3, [fp, #-20]	; 0xffffffec
2000c354:	e5933004 	ldr	r3, [r3, #4]
2000c358:	e1520003 	cmp	r2, r3
2000c35c:	0a00001d 	beq	2000c3d8 <ip_input+0x314>
2000c360:	e51b3010 	ldr	r3, [fp, #-16]
2000c364:	e2833010 	add	r3, r3, #16
2000c368:	e51b1014 	ldr	r1, [fp, #-20]	; 0xffffffec
2000c36c:	e1a00003 	mov	r0, r3
2000c370:	eb000402 	bl	2000d380 <ip_addr_isbroadcast>
2000c374:	e1a03000 	mov	r3, r0
2000c378:	e3530000 	cmp	r3, #0
2000c37c:	1a000015 	bne	2000c3d8 <ip_input+0x314>
2000c380:	e51b3018 	ldr	r3, [fp, #-24]	; 0xffffffe8
2000c384:	e3530000 	cmp	r3, #0
2000c388:	0a000005 	beq	2000c3a4 <ip_input+0x2e0>
2000c38c:	e3a03000 	mov	r3, #0
2000c390:	e50b3018 	str	r3, [fp, #-24]	; 0xffffffe8
2000c394:	e59f330c 	ldr	r3, [pc, #780]	; 2000c6a8 <ip_input+0x5e4>
2000c398:	e5933000 	ldr	r3, [r3]
2000c39c:	e50b3014 	str	r3, [fp, #-20]	; 0xffffffec
2000c3a0:	ea000002 	b	2000c3b0 <ip_input+0x2ec>
2000c3a4:	e51b3014 	ldr	r3, [fp, #-20]	; 0xffffffec
2000c3a8:	e5933000 	ldr	r3, [r3]
2000c3ac:	e50b3014 	str	r3, [fp, #-20]	; 0xffffffec
2000c3b0:	e51b2014 	ldr	r2, [fp, #-20]	; 0xffffffec
2000c3b4:	e51b3024 	ldr	r3, [fp, #-36]	; 0xffffffdc
2000c3b8:	e1520003 	cmp	r2, r3
2000c3bc:	1a000002 	bne	2000c3cc <ip_input+0x308>
2000c3c0:	e51b3014 	ldr	r3, [fp, #-20]	; 0xffffffec
2000c3c4:	e5933000 	ldr	r3, [r3]
2000c3c8:	e50b3014 	str	r3, [fp, #-20]	; 0xffffffec
2000c3cc:	e51b3014 	ldr	r3, [fp, #-20]	; 0xffffffec
2000c3d0:	e3530000 	cmp	r3, #0
2000c3d4:	1affffc4 	bne	2000c2ec <ip_input+0x228>
2000c3d8:	e51b3010 	ldr	r3, [fp, #-16]
2000c3dc:	e283300c 	add	r3, r3, #12
2000c3e0:	e51b1024 	ldr	r1, [fp, #-36]	; 0xffffffdc
2000c3e4:	e1a00003 	mov	r0, r3
2000c3e8:	eb0003e4 	bl	2000d380 <ip_addr_isbroadcast>
2000c3ec:	e1a03000 	mov	r3, r0
2000c3f0:	e3530000 	cmp	r3, #0
2000c3f4:	1a000014 	bne	2000c44c <ip_input+0x388>
2000c3f8:	e51b3010 	ldr	r3, [fp, #-16]
2000c3fc:	e5d3200c 	ldrb	r2, [r3, #12]
2000c400:	e5d3100d 	ldrb	r1, [r3, #13]
2000c404:	e1a01401 	lsl	r1, r1, #8
2000c408:	e1812002 	orr	r2, r1, r2
2000c40c:	e5d3100e 	ldrb	r1, [r3, #14]
2000c410:	e1a01801 	lsl	r1, r1, #16
2000c414:	e1812002 	orr	r2, r1, r2
2000c418:	e5d3300f 	ldrb	r3, [r3, #15]
2000c41c:	e1a03c03 	lsl	r3, r3, #24
2000c420:	e1833002 	orr	r3, r3, r2
2000c424:	e1a04003 	mov	r4, r3
2000c428:	e3a0020f 	mov	r0, #-268435456	; 0xf0000000
2000c42c:	eb0003c8 	bl	2000d354 <ntohl>
2000c430:	e1a03000 	mov	r3, r0
2000c434:	e0044003 	and	r4, r4, r3
2000c438:	e3a0020e 	mov	r0, #-536870912	; 0xe0000000
2000c43c:	eb0003c4 	bl	2000d354 <ntohl>
2000c440:	e1a03000 	mov	r3, r0
2000c444:	e1540003 	cmp	r4, r3
2000c448:	1a00000a 	bne	2000c478 <ip_input+0x3b4>
2000c44c:	e51b0020 	ldr	r0, [fp, #-32]	; 0xffffffe0
2000c450:	ebffd607 	bl	20001c74 <pbuf_free>
2000c454:	e59f3248 	ldr	r3, [pc, #584]	; 2000c6a4 <ip_input+0x5e0>
2000c458:	e1d334be 	ldrh	r3, [r3, #78]	; 0x4e
2000c45c:	e2833001 	add	r3, r3, #1
2000c460:	e1a03803 	lsl	r3, r3, #16
2000c464:	e1a03823 	lsr	r3, r3, #16
2000c468:	e59f2234 	ldr	r2, [pc, #564]	; 2000c6a4 <ip_input+0x5e0>
2000c46c:	e1c234be 	strh	r3, [r2, #78]	; 0x4e
2000c470:	e3a03000 	mov	r3, #0
2000c474:	ea000084 	b	2000c68c <ip_input+0x5c8>
2000c478:	e51b3014 	ldr	r3, [fp, #-20]	; 0xffffffec
2000c47c:	e3530000 	cmp	r3, #0
2000c480:	1a000003 	bne	2000c494 <ip_input+0x3d0>
2000c484:	e51b0020 	ldr	r0, [fp, #-32]	; 0xffffffe0
2000c488:	ebffd5f9 	bl	20001c74 <pbuf_free>
2000c48c:	e3a03000 	mov	r3, #0
2000c490:	ea00007d 	b	2000c68c <ip_input+0x5c8>
2000c494:	e51b3010 	ldr	r3, [fp, #-16]
2000c498:	e5d32006 	ldrb	r2, [r3, #6]
2000c49c:	e5d33007 	ldrb	r3, [r3, #7]
2000c4a0:	e1a03403 	lsl	r3, r3, #8
2000c4a4:	e1833002 	orr	r3, r3, r2
2000c4a8:	e1a03803 	lsl	r3, r3, #16
2000c4ac:	e1a04823 	lsr	r4, r3, #16
2000c4b0:	e59f01f4 	ldr	r0, [pc, #500]	; 2000c6ac <ip_input+0x5e8>
2000c4b4:	eb00036c 	bl	2000d26c <htons>
2000c4b8:	e1a03000 	mov	r3, r0
2000c4bc:	e0033004 	and	r3, r3, r4
2000c4c0:	e1a03803 	lsl	r3, r3, #16
2000c4c4:	e1a03823 	lsr	r3, r3, #16
2000c4c8:	e3530000 	cmp	r3, #0
2000c4cc:	0a00000a 	beq	2000c4fc <ip_input+0x438>
2000c4d0:	e51b0020 	ldr	r0, [fp, #-32]	; 0xffffffe0
2000c4d4:	eb0006f4 	bl	2000e0ac <ip_reass>
2000c4d8:	e50b0020 	str	r0, [fp, #-32]	; 0xffffffe0
2000c4dc:	e51b3020 	ldr	r3, [fp, #-32]	; 0xffffffe0
2000c4e0:	e3530000 	cmp	r3, #0
2000c4e4:	1a000001 	bne	2000c4f0 <ip_input+0x42c>
2000c4e8:	e3a03000 	mov	r3, #0
2000c4ec:	ea000066 	b	2000c68c <ip_input+0x5c8>
2000c4f0:	e51b3020 	ldr	r3, [fp, #-32]	; 0xffffffe0
2000c4f4:	e5933004 	ldr	r3, [r3, #4]
2000c4f8:	e50b3010 	str	r3, [fp, #-16]
2000c4fc:	e59f21ac 	ldr	r2, [pc, #428]	; 2000c6b0 <ip_input+0x5ec>
2000c500:	e51b3024 	ldr	r3, [fp, #-36]	; 0xffffffdc
2000c504:	e5823000 	str	r3, [r2]
2000c508:	e59f21a4 	ldr	r2, [pc, #420]	; 2000c6b4 <ip_input+0x5f0>
2000c50c:	e51b3010 	ldr	r3, [fp, #-16]
2000c510:	e5823000 	str	r3, [r2]
2000c514:	e51b1024 	ldr	r1, [fp, #-36]	; 0xffffffdc
2000c518:	e51b0020 	ldr	r0, [fp, #-32]	; 0xffffffe0
2000c51c:	ebffd7fb 	bl	20002510 <raw_input>
2000c520:	e1a03000 	mov	r3, r0
2000c524:	e3530000 	cmp	r3, #0
2000c528:	1a000050 	bne	2000c670 <ip_input+0x5ac>
2000c52c:	e51b3010 	ldr	r3, [fp, #-16]
2000c530:	e5d32008 	ldrb	r2, [r3, #8]
2000c534:	e5d33009 	ldrb	r3, [r3, #9]
2000c538:	e1a03403 	lsl	r3, r3, #8
2000c53c:	e1833002 	orr	r3, r3, r2
2000c540:	e1a03803 	lsl	r3, r3, #16
2000c544:	e1a03823 	lsr	r3, r3, #16
2000c548:	e1a00003 	mov	r0, r3
2000c54c:	eb00035e 	bl	2000d2cc <ntohs>
2000c550:	e1a03000 	mov	r3, r0
2000c554:	e20330ff 	and	r3, r3, #255	; 0xff
2000c558:	e3530006 	cmp	r3, #6
2000c55c:	0a000008 	beq	2000c584 <ip_input+0x4c0>
2000c560:	e3530011 	cmp	r3, #17
2000c564:	0a000002 	beq	2000c574 <ip_input+0x4b0>
2000c568:	e3530001 	cmp	r3, #1
2000c56c:	0a000008 	beq	2000c594 <ip_input+0x4d0>
2000c570:	ea00000b 	b	2000c5a4 <ip_input+0x4e0>
2000c574:	e51b1024 	ldr	r1, [fp, #-36]	; 0xffffffdc
2000c578:	e51b0020 	ldr	r0, [fp, #-32]	; 0xffffffe0
2000c57c:	ebfff86f 	bl	2000a740 <udp_input>
2000c580:	ea00003a 	b	2000c670 <ip_input+0x5ac>
2000c584:	e51b1024 	ldr	r1, [fp, #-36]	; 0xffffffdc
2000c588:	e51b0020 	ldr	r0, [fp, #-32]	; 0xffffffe0
2000c58c:	ebffe1ac 	bl	20004c44 <tcp_input>
2000c590:	ea000036 	b	2000c670 <ip_input+0x5ac>
2000c594:	e51b1024 	ldr	r1, [fp, #-36]	; 0xffffffdc
2000c598:	e51b0020 	ldr	r0, [fp, #-32]	; 0xffffffe0
2000c59c:	ebfffc3f 	bl	2000b6a0 <icmp_input>
2000c5a0:	ea000032 	b	2000c670 <ip_input+0x5ac>
2000c5a4:	e51b3010 	ldr	r3, [fp, #-16]
2000c5a8:	e2833010 	add	r3, r3, #16
2000c5ac:	e51b1024 	ldr	r1, [fp, #-36]	; 0xffffffdc
2000c5b0:	e1a00003 	mov	r0, r3
2000c5b4:	eb000371 	bl	2000d380 <ip_addr_isbroadcast>
2000c5b8:	e1a03000 	mov	r3, r0
2000c5bc:	e3530000 	cmp	r3, #0
2000c5c0:	1a00001a 	bne	2000c630 <ip_input+0x56c>
2000c5c4:	e51b3010 	ldr	r3, [fp, #-16]
2000c5c8:	e5d32010 	ldrb	r2, [r3, #16]
2000c5cc:	e5d31011 	ldrb	r1, [r3, #17]
2000c5d0:	e1a01401 	lsl	r1, r1, #8
2000c5d4:	e1812002 	orr	r2, r1, r2
2000c5d8:	e5d31012 	ldrb	r1, [r3, #18]
2000c5dc:	e1a01801 	lsl	r1, r1, #16
2000c5e0:	e1812002 	orr	r2, r1, r2
2000c5e4:	e5d33013 	ldrb	r3, [r3, #19]
2000c5e8:	e1a03c03 	lsl	r3, r3, #24
2000c5ec:	e1833002 	orr	r3, r3, r2
2000c5f0:	e1a04003 	mov	r4, r3
2000c5f4:	e3a0020f 	mov	r0, #-268435456	; 0xf0000000
2000c5f8:	eb000355 	bl	2000d354 <ntohl>
2000c5fc:	e1a03000 	mov	r3, r0
2000c600:	e0044003 	and	r4, r4, r3
2000c604:	e3a0020e 	mov	r0, #-536870912	; 0xe0000000
2000c608:	eb000351 	bl	2000d354 <ntohl>
2000c60c:	e1a03000 	mov	r3, r0
2000c610:	e1540003 	cmp	r4, r3
2000c614:	0a000005 	beq	2000c630 <ip_input+0x56c>
2000c618:	e51b3020 	ldr	r3, [fp, #-32]	; 0xffffffe0
2000c61c:	e51b2010 	ldr	r2, [fp, #-16]
2000c620:	e5832004 	str	r2, [r3, #4]
2000c624:	e3a01002 	mov	r1, #2
2000c628:	e51b0020 	ldr	r0, [fp, #-32]	; 0xffffffe0
2000c62c:	ebfffde2 	bl	2000bdbc <icmp_dest_unreach>
2000c630:	e51b0020 	ldr	r0, [fp, #-32]	; 0xffffffe0
2000c634:	ebffd58e 	bl	20001c74 <pbuf_free>
2000c638:	e59f3064 	ldr	r3, [pc, #100]	; 2000c6a4 <ip_input+0x5e0>
2000c63c:	e1d335b8 	ldrh	r3, [r3, #88]	; 0x58
2000c640:	e2833001 	add	r3, r3, #1
2000c644:	e1a03803 	lsl	r3, r3, #16
2000c648:	e1a03823 	lsr	r3, r3, #16
2000c64c:	e59f2050 	ldr	r2, [pc, #80]	; 2000c6a4 <ip_input+0x5e0>
2000c650:	e1c235b8 	strh	r3, [r2, #88]	; 0x58
2000c654:	e59f3048 	ldr	r3, [pc, #72]	; 2000c6a4 <ip_input+0x5e0>
2000c658:	e1d334be 	ldrh	r3, [r3, #78]	; 0x4e
2000c65c:	e2833001 	add	r3, r3, #1
2000c660:	e1a03803 	lsl	r3, r3, #16
2000c664:	e1a03823 	lsr	r3, r3, #16
2000c668:	e59f2034 	ldr	r2, [pc, #52]	; 2000c6a4 <ip_input+0x5e0>
2000c66c:	e1c234be 	strh	r3, [r2, #78]	; 0x4e
2000c670:	e59f3038 	ldr	r3, [pc, #56]	; 2000c6b0 <ip_input+0x5ec>
2000c674:	e3a02000 	mov	r2, #0
2000c678:	e5832000 	str	r2, [r3]
2000c67c:	e59f3030 	ldr	r3, [pc, #48]	; 2000c6b4 <ip_input+0x5f0>
2000c680:	e3a02000 	mov	r2, #0
2000c684:	e5832000 	str	r2, [r3]
2000c688:	e3a03000 	mov	r3, #0
2000c68c:	e1a03c03 	lsl	r3, r3, #24
2000c690:	e1a03c43 	asr	r3, r3, #24
2000c694:	e1a00003 	mov	r0, r3
2000c698:	e24bd008 	sub	sp, fp, #8
2000c69c:	e8bd4810 	pop	{r4, fp, lr}
2000c6a0:	e12fff1e 	bx	lr
2000c6a4:	20015630 	.word	0x20015630
2000c6a8:	20015628 	.word	0x20015628
2000c6ac:	00003fff 	.word	0x00003fff
2000c6b0:	20015768 	.word	0x20015768
2000c6b4:	2001576c 	.word	0x2001576c

2000c6b8 <ip_output_if>:
2000c6b8:	e92d4810 	push	{r4, fp, lr}
2000c6bc:	e28db008 	add	fp, sp, #8
2000c6c0:	e24dd01c 	sub	sp, sp, #28
2000c6c4:	e50b0018 	str	r0, [fp, #-24]	; 0xffffffe8
2000c6c8:	e50b101c 	str	r1, [fp, #-28]	; 0xffffffe4
2000c6cc:	e50b2020 	str	r2, [fp, #-32]	; 0xffffffe0
2000c6d0:	e54b3021 	strb	r3, [fp, #-33]	; 0xffffffdf
2000c6d4:	e51b3020 	ldr	r3, [fp, #-32]	; 0xffffffe0
2000c6d8:	e3530000 	cmp	r3, #0
2000c6dc:	0a00013c 	beq	2000cbd4 <ip_output_if+0x51c>
2000c6e0:	e3a03014 	mov	r3, #20
2000c6e4:	e14b30be 	strh	r3, [fp, #-14]
2000c6e8:	e3a01014 	mov	r1, #20
2000c6ec:	e51b0018 	ldr	r0, [fp, #-24]	; 0xffffffe8
2000c6f0:	ebffd4f5 	bl	20001acc <pbuf_header>
2000c6f4:	e1a03000 	mov	r3, r0
2000c6f8:	e3530000 	cmp	r3, #0
2000c6fc:	0a000008 	beq	2000c724 <ip_output_if+0x6c>
2000c700:	e59f3578 	ldr	r3, [pc, #1400]	; 2000cc80 <ip_output_if+0x5c8>
2000c704:	e1d335bc 	ldrh	r3, [r3, #92]	; 0x5c
2000c708:	e2833001 	add	r3, r3, #1
2000c70c:	e1a03803 	lsl	r3, r3, #16
2000c710:	e1a03823 	lsr	r3, r3, #16
2000c714:	e59f2564 	ldr	r2, [pc, #1380]	; 2000cc80 <ip_output_if+0x5c8>
2000c718:	e1c235bc 	strh	r3, [r2, #92]	; 0x5c
2000c71c:	e3a030fe 	mov	r3, #254	; 0xfe
2000c720:	ea000150 	b	2000cc68 <ip_output_if+0x5b0>
2000c724:	e51b3018 	ldr	r3, [fp, #-24]	; 0xffffffe8
2000c728:	e5933004 	ldr	r3, [r3, #4]
2000c72c:	e50b3014 	str	r3, [fp, #-20]	; 0xffffffec
2000c730:	e51b3014 	ldr	r3, [fp, #-20]	; 0xffffffec
2000c734:	e5d32008 	ldrb	r2, [r3, #8]
2000c738:	e5d33009 	ldrb	r3, [r3, #9]
2000c73c:	e1a03403 	lsl	r3, r3, #8
2000c740:	e1833002 	orr	r3, r3, r2
2000c744:	e1a03803 	lsl	r3, r3, #16
2000c748:	e1a03823 	lsr	r3, r3, #16
2000c74c:	e1a00003 	mov	r0, r3
2000c750:	eb0002dd 	bl	2000d2cc <ntohs>
2000c754:	e1a03000 	mov	r3, r0
2000c758:	e1a03803 	lsl	r3, r3, #16
2000c75c:	e1a03823 	lsr	r3, r3, #16
2000c760:	e20330ff 	and	r3, r3, #255	; 0xff
2000c764:	e1a03803 	lsl	r3, r3, #16
2000c768:	e1a02823 	lsr	r2, r3, #16
2000c76c:	e55b3021 	ldrb	r3, [fp, #-33]	; 0xffffffdf
2000c770:	e1a03403 	lsl	r3, r3, #8
2000c774:	e1a03803 	lsl	r3, r3, #16
2000c778:	e1a03823 	lsr	r3, r3, #16
2000c77c:	e1823003 	orr	r3, r2, r3
2000c780:	e1a03803 	lsl	r3, r3, #16
2000c784:	e1a03823 	lsr	r3, r3, #16
2000c788:	e1a03803 	lsl	r3, r3, #16
2000c78c:	e1a03823 	lsr	r3, r3, #16
2000c790:	e1a00003 	mov	r0, r3
2000c794:	eb0002b4 	bl	2000d26c <htons>
2000c798:	e1a03000 	mov	r3, r0
2000c79c:	e1a02003 	mov	r2, r3
2000c7a0:	e51b3014 	ldr	r3, [fp, #-20]	; 0xffffffec
2000c7a4:	e20210ff 	and	r1, r2, #255	; 0xff
2000c7a8:	e3a00000 	mov	r0, #0
2000c7ac:	e1801001 	orr	r1, r0, r1
2000c7b0:	e5c31008 	strb	r1, [r3, #8]
2000c7b4:	e1a02422 	lsr	r2, r2, #8
2000c7b8:	e1a02802 	lsl	r2, r2, #16
2000c7bc:	e1a02822 	lsr	r2, r2, #16
2000c7c0:	e3a01000 	mov	r1, #0
2000c7c4:	e1812002 	orr	r2, r1, r2
2000c7c8:	e5c32009 	strb	r2, [r3, #9]
2000c7cc:	e5db3008 	ldrb	r3, [fp, #8]
2000c7d0:	e1a03803 	lsl	r3, r3, #16
2000c7d4:	e1a04823 	lsr	r4, r3, #16
2000c7d8:	e51b3014 	ldr	r3, [fp, #-20]	; 0xffffffec
2000c7dc:	e5d32008 	ldrb	r2, [r3, #8]
2000c7e0:	e5d33009 	ldrb	r3, [r3, #9]
2000c7e4:	e1a03403 	lsl	r3, r3, #8
2000c7e8:	e1833002 	orr	r3, r3, r2
2000c7ec:	e1a03803 	lsl	r3, r3, #16
2000c7f0:	e1a03823 	lsr	r3, r3, #16
2000c7f4:	e1a00003 	mov	r0, r3
2000c7f8:	eb0002b3 	bl	2000d2cc <ntohs>
2000c7fc:	e1a03000 	mov	r3, r0
2000c800:	e1a03423 	lsr	r3, r3, #8
2000c804:	e1a03803 	lsl	r3, r3, #16
2000c808:	e1a03823 	lsr	r3, r3, #16
2000c80c:	e1a03403 	lsl	r3, r3, #8
2000c810:	e1a03803 	lsl	r3, r3, #16
2000c814:	e1a03823 	lsr	r3, r3, #16
2000c818:	e1a02004 	mov	r2, r4
2000c81c:	e1823003 	orr	r3, r2, r3
2000c820:	e1a03803 	lsl	r3, r3, #16
2000c824:	e1a03823 	lsr	r3, r3, #16
2000c828:	e1a03803 	lsl	r3, r3, #16
2000c82c:	e1a03823 	lsr	r3, r3, #16
2000c830:	e1a00003 	mov	r0, r3
2000c834:	eb00028c 	bl	2000d26c <htons>
2000c838:	e1a03000 	mov	r3, r0
2000c83c:	e1a02003 	mov	r2, r3
2000c840:	e51b3014 	ldr	r3, [fp, #-20]	; 0xffffffec
2000c844:	e20210ff 	and	r1, r2, #255	; 0xff
2000c848:	e3a00000 	mov	r0, #0
2000c84c:	e1801001 	orr	r1, r0, r1
2000c850:	e5c31008 	strb	r1, [r3, #8]
2000c854:	e1a02422 	lsr	r2, r2, #8
2000c858:	e1a02802 	lsl	r2, r2, #16
2000c85c:	e1a02822 	lsr	r2, r2, #16
2000c860:	e3a01000 	mov	r1, #0
2000c864:	e1812002 	orr	r2, r1, r2
2000c868:	e5c32009 	strb	r2, [r3, #9]
2000c86c:	e51b3020 	ldr	r3, [fp, #-32]	; 0xffffffe0
2000c870:	e3530000 	cmp	r3, #0
2000c874:	0a00000c 	beq	2000c8ac <ip_output_if+0x1f4>
2000c878:	e51b3020 	ldr	r3, [fp, #-32]	; 0xffffffe0
2000c87c:	e5d32000 	ldrb	r2, [r3]
2000c880:	e5d31001 	ldrb	r1, [r3, #1]
2000c884:	e1a01401 	lsl	r1, r1, #8
2000c888:	e1812002 	orr	r2, r1, r2
2000c88c:	e5d31002 	ldrb	r1, [r3, #2]
2000c890:	e1a01801 	lsl	r1, r1, #16
2000c894:	e1812002 	orr	r2, r1, r2
2000c898:	e5d33003 	ldrb	r3, [r3, #3]
2000c89c:	e1a03c03 	lsl	r3, r3, #24
2000c8a0:	e1833002 	orr	r3, r3, r2
2000c8a4:	e1a02003 	mov	r2, r3
2000c8a8:	ea000000 	b	2000c8b0 <ip_output_if+0x1f8>
2000c8ac:	e3a02000 	mov	r2, #0
2000c8b0:	e51b3014 	ldr	r3, [fp, #-20]	; 0xffffffec
2000c8b4:	e20210ff 	and	r1, r2, #255	; 0xff
2000c8b8:	e3a00000 	mov	r0, #0
2000c8bc:	e1801001 	orr	r1, r0, r1
2000c8c0:	e5c31010 	strb	r1, [r3, #16]
2000c8c4:	e1a01422 	lsr	r1, r2, #8
2000c8c8:	e20110ff 	and	r1, r1, #255	; 0xff
2000c8cc:	e3a00000 	mov	r0, #0
2000c8d0:	e1801001 	orr	r1, r0, r1
2000c8d4:	e5c31011 	strb	r1, [r3, #17]
2000c8d8:	e1a01822 	lsr	r1, r2, #16
2000c8dc:	e20110ff 	and	r1, r1, #255	; 0xff
2000c8e0:	e3a00000 	mov	r0, #0
2000c8e4:	e1801001 	orr	r1, r0, r1
2000c8e8:	e5c31012 	strb	r1, [r3, #18]
2000c8ec:	e1a02c22 	lsr	r2, r2, #24
2000c8f0:	e3a01000 	mov	r1, #0
2000c8f4:	e1812002 	orr	r2, r1, r2
2000c8f8:	e5c32013 	strb	r2, [r3, #19]
2000c8fc:	e15b30be 	ldrh	r3, [fp, #-14]
2000c900:	e1a03123 	lsr	r3, r3, #2
2000c904:	e1a03803 	lsl	r3, r3, #16
2000c908:	e1a03823 	lsr	r3, r3, #16
2000c90c:	e1a03403 	lsl	r3, r3, #8
2000c910:	e1a03803 	lsl	r3, r3, #16
2000c914:	e1a03823 	lsr	r3, r3, #16
2000c918:	e3833901 	orr	r3, r3, #16384	; 0x4000
2000c91c:	e1a03803 	lsl	r3, r3, #16
2000c920:	e1a02823 	lsr	r2, r3, #16
2000c924:	e5db3004 	ldrb	r3, [fp, #4]
2000c928:	e1a03803 	lsl	r3, r3, #16
2000c92c:	e1a03823 	lsr	r3, r3, #16
2000c930:	e1823003 	orr	r3, r2, r3
2000c934:	e1a03803 	lsl	r3, r3, #16
2000c938:	e1a03823 	lsr	r3, r3, #16
2000c93c:	e1a03803 	lsl	r3, r3, #16
2000c940:	e1a03823 	lsr	r3, r3, #16
2000c944:	e1a00003 	mov	r0, r3
2000c948:	eb000247 	bl	2000d26c <htons>
2000c94c:	e1a03000 	mov	r3, r0
2000c950:	e1a02003 	mov	r2, r3
2000c954:	e51b3014 	ldr	r3, [fp, #-20]	; 0xffffffec
2000c958:	e20210ff 	and	r1, r2, #255	; 0xff
2000c95c:	e3a00000 	mov	r0, #0
2000c960:	e1801001 	orr	r1, r0, r1
2000c964:	e5c31000 	strb	r1, [r3]
2000c968:	e1a02422 	lsr	r2, r2, #8
2000c96c:	e1a02802 	lsl	r2, r2, #16
2000c970:	e1a02822 	lsr	r2, r2, #16
2000c974:	e3a01000 	mov	r1, #0
2000c978:	e1812002 	orr	r2, r1, r2
2000c97c:	e5c32001 	strb	r2, [r3, #1]
2000c980:	e51b3018 	ldr	r3, [fp, #-24]	; 0xffffffe8
2000c984:	e1d330b8 	ldrh	r3, [r3, #8]
2000c988:	e1a00003 	mov	r0, r3
2000c98c:	eb000236 	bl	2000d26c <htons>
2000c990:	e1a03000 	mov	r3, r0
2000c994:	e1a02003 	mov	r2, r3
2000c998:	e51b3014 	ldr	r3, [fp, #-20]	; 0xffffffec
2000c99c:	e20210ff 	and	r1, r2, #255	; 0xff
2000c9a0:	e3a00000 	mov	r0, #0
2000c9a4:	e1801001 	orr	r1, r0, r1
2000c9a8:	e5c31002 	strb	r1, [r3, #2]
2000c9ac:	e1a02422 	lsr	r2, r2, #8
2000c9b0:	e1a02802 	lsl	r2, r2, #16
2000c9b4:	e1a02822 	lsr	r2, r2, #16
2000c9b8:	e3a01000 	mov	r1, #0
2000c9bc:	e1812002 	orr	r2, r1, r2
2000c9c0:	e5c32003 	strb	r2, [r3, #3]
2000c9c4:	e51b3014 	ldr	r3, [fp, #-20]	; 0xffffffec
2000c9c8:	e3a02000 	mov	r2, #0
2000c9cc:	e5c32006 	strb	r2, [r3, #6]
2000c9d0:	e3a02000 	mov	r2, #0
2000c9d4:	e5c32007 	strb	r2, [r3, #7]
2000c9d8:	e59f32a4 	ldr	r3, [pc, #676]	; 2000cc84 <ip_output_if+0x5cc>
2000c9dc:	e1d330b0 	ldrh	r3, [r3]
2000c9e0:	e1a00003 	mov	r0, r3
2000c9e4:	eb000220 	bl	2000d26c <htons>
2000c9e8:	e1a03000 	mov	r3, r0
2000c9ec:	e1a02003 	mov	r2, r3
2000c9f0:	e51b3014 	ldr	r3, [fp, #-20]	; 0xffffffec
2000c9f4:	e20210ff 	and	r1, r2, #255	; 0xff
2000c9f8:	e3a00000 	mov	r0, #0
2000c9fc:	e1801001 	orr	r1, r0, r1
2000ca00:	e5c31004 	strb	r1, [r3, #4]
2000ca04:	e1a02422 	lsr	r2, r2, #8
2000ca08:	e1a02802 	lsl	r2, r2, #16
2000ca0c:	e1a02822 	lsr	r2, r2, #16
2000ca10:	e3a01000 	mov	r1, #0
2000ca14:	e1812002 	orr	r2, r1, r2
2000ca18:	e5c32005 	strb	r2, [r3, #5]
2000ca1c:	e59f3260 	ldr	r3, [pc, #608]	; 2000cc84 <ip_output_if+0x5cc>
2000ca20:	e1d330b0 	ldrh	r3, [r3]
2000ca24:	e2833001 	add	r3, r3, #1
2000ca28:	e1a03803 	lsl	r3, r3, #16
2000ca2c:	e1a03823 	lsr	r3, r3, #16
2000ca30:	e59f224c 	ldr	r2, [pc, #588]	; 2000cc84 <ip_output_if+0x5cc>
2000ca34:	e1c230b0 	strh	r3, [r2]
2000ca38:	e51b301c 	ldr	r3, [fp, #-28]	; 0xffffffe4
2000ca3c:	e3530000 	cmp	r3, #0
2000ca40:	0a00000c 	beq	2000ca78 <ip_output_if+0x3c0>
2000ca44:	e51b301c 	ldr	r3, [fp, #-28]	; 0xffffffe4
2000ca48:	e5d32000 	ldrb	r2, [r3]
2000ca4c:	e5d31001 	ldrb	r1, [r3, #1]
2000ca50:	e1a01401 	lsl	r1, r1, #8
2000ca54:	e1812002 	orr	r2, r1, r2
2000ca58:	e5d31002 	ldrb	r1, [r3, #2]
2000ca5c:	e1a01801 	lsl	r1, r1, #16
2000ca60:	e1812002 	orr	r2, r1, r2
2000ca64:	e5d33003 	ldrb	r3, [r3, #3]
2000ca68:	e1a03c03 	lsl	r3, r3, #24
2000ca6c:	e1833002 	orr	r3, r3, r2
2000ca70:	e3530000 	cmp	r3, #0
2000ca74:	1a00001b 	bne	2000cae8 <ip_output_if+0x430>
2000ca78:	e59b300c 	ldr	r3, [fp, #12]
2000ca7c:	e2833004 	add	r3, r3, #4
2000ca80:	e3530000 	cmp	r3, #0
2000ca84:	0a000002 	beq	2000ca94 <ip_output_if+0x3dc>
2000ca88:	e59b300c 	ldr	r3, [fp, #12]
2000ca8c:	e5933004 	ldr	r3, [r3, #4]
2000ca90:	ea000000 	b	2000ca98 <ip_output_if+0x3e0>
2000ca94:	e3a03000 	mov	r3, #0
2000ca98:	e51b2014 	ldr	r2, [fp, #-20]	; 0xffffffec
2000ca9c:	e20310ff 	and	r1, r3, #255	; 0xff
2000caa0:	e3a00000 	mov	r0, #0
2000caa4:	e1801001 	orr	r1, r0, r1
2000caa8:	e5c2100c 	strb	r1, [r2, #12]
2000caac:	e1a01423 	lsr	r1, r3, #8
2000cab0:	e20110ff 	and	r1, r1, #255	; 0xff
2000cab4:	e3a00000 	mov	r0, #0
2000cab8:	e1801001 	orr	r1, r0, r1
2000cabc:	e5c2100d 	strb	r1, [r2, #13]
2000cac0:	e1a01823 	lsr	r1, r3, #16
2000cac4:	e20110ff 	and	r1, r1, #255	; 0xff
2000cac8:	e3a00000 	mov	r0, #0
2000cacc:	e1801001 	orr	r1, r0, r1
2000cad0:	e5c2100e 	strb	r1, [r2, #14]
2000cad4:	e1a03c23 	lsr	r3, r3, #24
2000cad8:	e3a01000 	mov	r1, #0
2000cadc:	e1813003 	orr	r3, r1, r3
2000cae0:	e5c2300f 	strb	r3, [r2, #15]
2000cae4:	ea000023 	b	2000cb78 <ip_output_if+0x4c0>
2000cae8:	e51b301c 	ldr	r3, [fp, #-28]	; 0xffffffe4
2000caec:	e3530000 	cmp	r3, #0
2000caf0:	0a00000c 	beq	2000cb28 <ip_output_if+0x470>
2000caf4:	e51b301c 	ldr	r3, [fp, #-28]	; 0xffffffe4
2000caf8:	e5d32000 	ldrb	r2, [r3]
2000cafc:	e5d31001 	ldrb	r1, [r3, #1]
2000cb00:	e1a01401 	lsl	r1, r1, #8
2000cb04:	e1812002 	orr	r2, r1, r2
2000cb08:	e5d31002 	ldrb	r1, [r3, #2]
2000cb0c:	e1a01801 	lsl	r1, r1, #16
2000cb10:	e1812002 	orr	r2, r1, r2
2000cb14:	e5d33003 	ldrb	r3, [r3, #3]
2000cb18:	e1a03c03 	lsl	r3, r3, #24
2000cb1c:	e1833002 	orr	r3, r3, r2
2000cb20:	e1a02003 	mov	r2, r3
2000cb24:	ea000000 	b	2000cb2c <ip_output_if+0x474>
2000cb28:	e3a02000 	mov	r2, #0
2000cb2c:	e51b3014 	ldr	r3, [fp, #-20]	; 0xffffffec
2000cb30:	e20210ff 	and	r1, r2, #255	; 0xff
2000cb34:	e3a00000 	mov	r0, #0
2000cb38:	e1801001 	orr	r1, r0, r1
2000cb3c:	e5c3100c 	strb	r1, [r3, #12]
2000cb40:	e1a01422 	lsr	r1, r2, #8
2000cb44:	e20110ff 	and	r1, r1, #255	; 0xff
2000cb48:	e3a00000 	mov	r0, #0
2000cb4c:	e1801001 	orr	r1, r0, r1
2000cb50:	e5c3100d 	strb	r1, [r3, #13]
2000cb54:	e1a01822 	lsr	r1, r2, #16
2000cb58:	e20110ff 	and	r1, r1, #255	; 0xff
2000cb5c:	e3a00000 	mov	r0, #0
2000cb60:	e1801001 	orr	r1, r0, r1
2000cb64:	e5c3100e 	strb	r1, [r3, #14]
2000cb68:	e1a02c22 	lsr	r2, r2, #24
2000cb6c:	e3a01000 	mov	r1, #0
2000cb70:	e1812002 	orr	r2, r1, r2
2000cb74:	e5c3200f 	strb	r2, [r3, #15]
2000cb78:	e51b3014 	ldr	r3, [fp, #-20]	; 0xffffffec
2000cb7c:	e3a02000 	mov	r2, #0
2000cb80:	e5c3200a 	strb	r2, [r3, #10]
2000cb84:	e3a02000 	mov	r2, #0
2000cb88:	e5c3200b 	strb	r2, [r3, #11]
2000cb8c:	e15b30be 	ldrh	r3, [fp, #-14]
2000cb90:	e1a01003 	mov	r1, r3
2000cb94:	e51b0014 	ldr	r0, [fp, #-20]	; 0xffffffec
2000cb98:	eb0008c8 	bl	2000eec0 <inet_chksum>
2000cb9c:	e1a03000 	mov	r3, r0
2000cba0:	e1a02003 	mov	r2, r3
2000cba4:	e51b3014 	ldr	r3, [fp, #-20]	; 0xffffffec
2000cba8:	e20210ff 	and	r1, r2, #255	; 0xff
2000cbac:	e3a00000 	mov	r0, #0
2000cbb0:	e1801001 	orr	r1, r0, r1
2000cbb4:	e5c3100a 	strb	r1, [r3, #10]
2000cbb8:	e1a02422 	lsr	r2, r2, #8
2000cbbc:	e1a02802 	lsl	r2, r2, #16
2000cbc0:	e1a02822 	lsr	r2, r2, #16
2000cbc4:	e3a01000 	mov	r1, #0
2000cbc8:	e1812002 	orr	r2, r1, r2
2000cbcc:	e5c3200b 	strb	r2, [r3, #11]
2000cbd0:	ea000005 	b	2000cbec <ip_output_if+0x534>
2000cbd4:	e51b3018 	ldr	r3, [fp, #-24]	; 0xffffffe8
2000cbd8:	e5933004 	ldr	r3, [r3, #4]
2000cbdc:	e50b3014 	str	r3, [fp, #-20]	; 0xffffffec
2000cbe0:	e51b3014 	ldr	r3, [fp, #-20]	; 0xffffffec
2000cbe4:	e2833010 	add	r3, r3, #16
2000cbe8:	e50b3020 	str	r3, [fp, #-32]	; 0xffffffe0
2000cbec:	e59f308c 	ldr	r3, [pc, #140]	; 2000cc80 <ip_output_if+0x5c8>
2000cbf0:	e1d334b8 	ldrh	r3, [r3, #72]	; 0x48
2000cbf4:	e2833001 	add	r3, r3, #1
2000cbf8:	e1a03803 	lsl	r3, r3, #16
2000cbfc:	e1a03823 	lsr	r3, r3, #16
2000cc00:	e59f2078 	ldr	r2, [pc, #120]	; 2000cc80 <ip_output_if+0x5c8>
2000cc04:	e1c234b8 	strh	r3, [r2, #72]	; 0x48
2000cc08:	e59b300c 	ldr	r3, [fp, #12]
2000cc0c:	e1d332b0 	ldrh	r3, [r3, #32]
2000cc10:	e3530000 	cmp	r3, #0
2000cc14:	0a00000b 	beq	2000cc48 <ip_output_if+0x590>
2000cc18:	e51b3018 	ldr	r3, [fp, #-24]	; 0xffffffe8
2000cc1c:	e1d320b8 	ldrh	r2, [r3, #8]
2000cc20:	e59b300c 	ldr	r3, [fp, #12]
2000cc24:	e1d332b0 	ldrh	r3, [r3, #32]
2000cc28:	e1520003 	cmp	r2, r3
2000cc2c:	9a000005 	bls	2000cc48 <ip_output_if+0x590>
2000cc30:	e51b2020 	ldr	r2, [fp, #-32]	; 0xffffffe0
2000cc34:	e59b100c 	ldr	r1, [fp, #12]
2000cc38:	e51b0018 	ldr	r0, [fp, #-24]	; 0xffffffe8
2000cc3c:	eb0006b2 	bl	2000e70c <ip_frag>
2000cc40:	e1a03000 	mov	r3, r0
2000cc44:	ea000007 	b	2000cc68 <ip_output_if+0x5b0>
2000cc48:	e59b300c 	ldr	r3, [fp, #12]
2000cc4c:	e5933014 	ldr	r3, [r3, #20]
2000cc50:	e51b2020 	ldr	r2, [fp, #-32]	; 0xffffffe0
2000cc54:	e51b1018 	ldr	r1, [fp, #-24]	; 0xffffffe8
2000cc58:	e59b000c 	ldr	r0, [fp, #12]
2000cc5c:	e1a0e00f 	mov	lr, pc
2000cc60:	e12fff13 	bx	r3
2000cc64:	e1a03000 	mov	r3, r0
2000cc68:	e1a03c03 	lsl	r3, r3, #24
2000cc6c:	e1a03c43 	asr	r3, r3, #24
2000cc70:	e1a00003 	mov	r0, r3
2000cc74:	e24bd008 	sub	sp, fp, #8
2000cc78:	e8bd4810 	pop	{r4, fp, lr}
2000cc7c:	e12fff1e 	bx	lr
2000cc80:	20015630 	.word	0x20015630
2000cc84:	20014bc8 	.word	0x20014bc8

2000cc88 <ip_output>:
2000cc88:	e92d4800 	push	{fp, lr}
2000cc8c:	e28db004 	add	fp, sp, #4
2000cc90:	e24dd028 	sub	sp, sp, #40	; 0x28
2000cc94:	e50b0010 	str	r0, [fp, #-16]
2000cc98:	e50b1014 	str	r1, [fp, #-20]	; 0xffffffec
2000cc9c:	e50b2018 	str	r2, [fp, #-24]	; 0xffffffe8
2000cca0:	e54b3019 	strb	r3, [fp, #-25]	; 0xffffffe7
2000cca4:	e51b0018 	ldr	r0, [fp, #-24]	; 0xffffffe8
2000cca8:	ebfffcbf 	bl	2000bfac <ip_route>
2000ccac:	e50b0008 	str	r0, [fp, #-8]
2000ccb0:	e51b3008 	ldr	r3, [fp, #-8]
2000ccb4:	e3530000 	cmp	r3, #0
2000ccb8:	1a000008 	bne	2000cce0 <ip_output+0x58>
2000ccbc:	e59f3068 	ldr	r3, [pc, #104]	; 2000cd2c <ip_output+0xa4>
2000ccc0:	e1d335b6 	ldrh	r3, [r3, #86]	; 0x56
2000ccc4:	e2833001 	add	r3, r3, #1
2000ccc8:	e1a03803 	lsl	r3, r3, #16
2000cccc:	e1a03823 	lsr	r3, r3, #16
2000ccd0:	e59f2054 	ldr	r2, [pc, #84]	; 2000cd2c <ip_output+0xa4>
2000ccd4:	e1c235b6 	strh	r3, [r2, #86]	; 0x56
2000ccd8:	e3a030fc 	mov	r3, #252	; 0xfc
2000ccdc:	ea00000c 	b	2000cd14 <ip_output+0x8c>
2000cce0:	e55b2019 	ldrb	r2, [fp, #-25]	; 0xffffffe7
2000cce4:	e51b3008 	ldr	r3, [fp, #-8]
2000cce8:	e58d3008 	str	r3, [sp, #8]
2000ccec:	e5db3008 	ldrb	r3, [fp, #8]
2000ccf0:	e58d3004 	str	r3, [sp, #4]
2000ccf4:	e5db3004 	ldrb	r3, [fp, #4]
2000ccf8:	e58d3000 	str	r3, [sp]
2000ccfc:	e1a03002 	mov	r3, r2
2000cd00:	e51b2018 	ldr	r2, [fp, #-24]	; 0xffffffe8
2000cd04:	e51b1014 	ldr	r1, [fp, #-20]	; 0xffffffec
2000cd08:	e51b0010 	ldr	r0, [fp, #-16]
2000cd0c:	ebfffe69 	bl	2000c6b8 <ip_output_if>
2000cd10:	e1a03000 	mov	r3, r0
2000cd14:	e1a03c03 	lsl	r3, r3, #24
2000cd18:	e1a03c43 	asr	r3, r3, #24
2000cd1c:	e1a00003 	mov	r0, r3
2000cd20:	e24bd004 	sub	sp, fp, #4
2000cd24:	e8bd4800 	pop	{fp, lr}
2000cd28:	e12fff1e 	bx	lr
2000cd2c:	20015630 	.word	0x20015630

2000cd30 <inet_addr>:
2000cd30:	e92d4800 	push	{fp, lr}
2000cd34:	e28db004 	add	fp, sp, #4
2000cd38:	e24dd010 	sub	sp, sp, #16
2000cd3c:	e50b0010 	str	r0, [fp, #-16]
2000cd40:	e24b3008 	sub	r3, fp, #8
2000cd44:	e1a01003 	mov	r1, r3
2000cd48:	e51b0010 	ldr	r0, [fp, #-16]
2000cd4c:	eb000009 	bl	2000cd78 <inet_aton>
2000cd50:	e1a03000 	mov	r3, r0
2000cd54:	e3530000 	cmp	r3, #0
2000cd58:	0a000001 	beq	2000cd64 <inet_addr+0x34>
2000cd5c:	e51b3008 	ldr	r3, [fp, #-8]
2000cd60:	ea000000 	b	2000cd68 <inet_addr+0x38>
2000cd64:	e3e03000 	mvn	r3, #0
2000cd68:	e1a00003 	mov	r0, r3
2000cd6c:	e24bd004 	sub	sp, fp, #4
2000cd70:	e8bd4800 	pop	{fp, lr}
2000cd74:	e12fff1e 	bx	lr

2000cd78 <inet_aton>:
2000cd78:	e92d4800 	push	{fp, lr}
2000cd7c:	e28db004 	add	fp, sp, #4
2000cd80:	e24dd028 	sub	sp, sp, #40	; 0x28
2000cd84:	e50b0028 	str	r0, [fp, #-40]	; 0xffffffd8
2000cd88:	e50b102c 	str	r1, [fp, #-44]	; 0xffffffd4
2000cd8c:	e24b3020 	sub	r3, fp, #32
2000cd90:	e50b3010 	str	r3, [fp, #-16]
2000cd94:	e51b3028 	ldr	r3, [fp, #-40]	; 0xffffffd8
2000cd98:	e5d33000 	ldrb	r3, [r3]
2000cd9c:	e54b300a 	strb	r3, [fp, #-10]
2000cda0:	e55b300a 	ldrb	r3, [fp, #-10]
2000cda4:	e353002f 	cmp	r3, #47	; 0x2f
2000cda8:	9a000002 	bls	2000cdb8 <inet_aton+0x40>
2000cdac:	e55b300a 	ldrb	r3, [fp, #-10]
2000cdb0:	e3530039 	cmp	r3, #57	; 0x39
2000cdb4:	9a000001 	bls	2000cdc0 <inet_aton+0x48>
2000cdb8:	e3a03000 	mov	r3, #0
2000cdbc:	ea0000cd 	b	2000d0f8 <inet_aton+0x380>
2000cdc0:	e3a03000 	mov	r3, #0
2000cdc4:	e50b3008 	str	r3, [fp, #-8]
2000cdc8:	e3a0300a 	mov	r3, #10
2000cdcc:	e54b3009 	strb	r3, [fp, #-9]
2000cdd0:	e55b300a 	ldrb	r3, [fp, #-10]
2000cdd4:	e3530030 	cmp	r3, #48	; 0x30
2000cdd8:	1a000016 	bne	2000ce38 <inet_aton+0xc0>
2000cddc:	e51b3028 	ldr	r3, [fp, #-40]	; 0xffffffd8
2000cde0:	e2833001 	add	r3, r3, #1
2000cde4:	e50b3028 	str	r3, [fp, #-40]	; 0xffffffd8
2000cde8:	e51b3028 	ldr	r3, [fp, #-40]	; 0xffffffd8
2000cdec:	e5d33000 	ldrb	r3, [r3]
2000cdf0:	e54b300a 	strb	r3, [fp, #-10]
2000cdf4:	e55b300a 	ldrb	r3, [fp, #-10]
2000cdf8:	e3530078 	cmp	r3, #120	; 0x78
2000cdfc:	0a000002 	beq	2000ce0c <inet_aton+0x94>
2000ce00:	e55b300a 	ldrb	r3, [fp, #-10]
2000ce04:	e3530058 	cmp	r3, #88	; 0x58
2000ce08:	1a000008 	bne	2000ce30 <inet_aton+0xb8>
2000ce0c:	e3a03010 	mov	r3, #16
2000ce10:	e54b3009 	strb	r3, [fp, #-9]
2000ce14:	e51b3028 	ldr	r3, [fp, #-40]	; 0xffffffd8
2000ce18:	e2833001 	add	r3, r3, #1
2000ce1c:	e50b3028 	str	r3, [fp, #-40]	; 0xffffffd8
2000ce20:	e51b3028 	ldr	r3, [fp, #-40]	; 0xffffffd8
2000ce24:	e5d33000 	ldrb	r3, [r3]
2000ce28:	e54b300a 	strb	r3, [fp, #-10]
2000ce2c:	ea000001 	b	2000ce38 <inet_aton+0xc0>
2000ce30:	e3a03008 	mov	r3, #8
2000ce34:	e54b3009 	strb	r3, [fp, #-9]
2000ce38:	e55b300a 	ldrb	r3, [fp, #-10]
2000ce3c:	e353002f 	cmp	r3, #47	; 0x2f
2000ce40:	9a000010 	bls	2000ce88 <inet_aton+0x110>
2000ce44:	e55b300a 	ldrb	r3, [fp, #-10]
2000ce48:	e3530039 	cmp	r3, #57	; 0x39
2000ce4c:	8a00000d 	bhi	2000ce88 <inet_aton+0x110>
2000ce50:	e55b3009 	ldrb	r3, [fp, #-9]
2000ce54:	e51b2008 	ldr	r2, [fp, #-8]
2000ce58:	e0020293 	mul	r2, r3, r2
2000ce5c:	e55b300a 	ldrb	r3, [fp, #-10]
2000ce60:	e0823003 	add	r3, r2, r3
2000ce64:	e2433030 	sub	r3, r3, #48	; 0x30
2000ce68:	e50b3008 	str	r3, [fp, #-8]
2000ce6c:	e51b3028 	ldr	r3, [fp, #-40]	; 0xffffffd8
2000ce70:	e2833001 	add	r3, r3, #1
2000ce74:	e50b3028 	str	r3, [fp, #-40]	; 0xffffffd8
2000ce78:	e51b3028 	ldr	r3, [fp, #-40]	; 0xffffffd8
2000ce7c:	e5d33000 	ldrb	r3, [r3]
2000ce80:	e54b300a 	strb	r3, [fp, #-10]
2000ce84:	ea00002a 	b	2000cf34 <inet_aton+0x1bc>
2000ce88:	e55b3009 	ldrb	r3, [fp, #-9]
2000ce8c:	e3530010 	cmp	r3, #16
2000ce90:	1a000028 	bne	2000cf38 <inet_aton+0x1c0>
2000ce94:	e55b300a 	ldrb	r3, [fp, #-10]
2000ce98:	e353002f 	cmp	r3, #47	; 0x2f
2000ce9c:	9a000002 	bls	2000ceac <inet_aton+0x134>
2000cea0:	e55b300a 	ldrb	r3, [fp, #-10]
2000cea4:	e3530039 	cmp	r3, #57	; 0x39
2000cea8:	9a00000b 	bls	2000cedc <inet_aton+0x164>
2000ceac:	e55b300a 	ldrb	r3, [fp, #-10]
2000ceb0:	e3530060 	cmp	r3, #96	; 0x60
2000ceb4:	9a000002 	bls	2000cec4 <inet_aton+0x14c>
2000ceb8:	e55b300a 	ldrb	r3, [fp, #-10]
2000cebc:	e3530066 	cmp	r3, #102	; 0x66
2000cec0:	9a000005 	bls	2000cedc <inet_aton+0x164>
2000cec4:	e55b300a 	ldrb	r3, [fp, #-10]
2000cec8:	e3530040 	cmp	r3, #64	; 0x40
2000cecc:	9a000019 	bls	2000cf38 <inet_aton+0x1c0>
2000ced0:	e55b300a 	ldrb	r3, [fp, #-10]
2000ced4:	e3530046 	cmp	r3, #70	; 0x46
2000ced8:	8a000016 	bhi	2000cf38 <inet_aton+0x1c0>
2000cedc:	e51b3008 	ldr	r3, [fp, #-8]
2000cee0:	e1a03203 	lsl	r3, r3, #4
2000cee4:	e55b200a 	ldrb	r2, [fp, #-10]
2000cee8:	e282100a 	add	r1, r2, #10
2000ceec:	e55b200a 	ldrb	r2, [fp, #-10]
2000cef0:	e3520060 	cmp	r2, #96	; 0x60
2000cef4:	9a000004 	bls	2000cf0c <inet_aton+0x194>
2000cef8:	e55b200a 	ldrb	r2, [fp, #-10]
2000cefc:	e352007a 	cmp	r2, #122	; 0x7a
2000cf00:	8a000001 	bhi	2000cf0c <inet_aton+0x194>
2000cf04:	e3a02061 	mov	r2, #97	; 0x61
2000cf08:	ea000000 	b	2000cf10 <inet_aton+0x198>
2000cf0c:	e3a02041 	mov	r2, #65	; 0x41
2000cf10:	e0622001 	rsb	r2, r2, r1
2000cf14:	e1833002 	orr	r3, r3, r2
2000cf18:	e50b3008 	str	r3, [fp, #-8]
2000cf1c:	e51b3028 	ldr	r3, [fp, #-40]	; 0xffffffd8
2000cf20:	e2833001 	add	r3, r3, #1
2000cf24:	e50b3028 	str	r3, [fp, #-40]	; 0xffffffd8
2000cf28:	e51b3028 	ldr	r3, [fp, #-40]	; 0xffffffd8
2000cf2c:	e5d33000 	ldrb	r3, [r3]
2000cf30:	e54b300a 	strb	r3, [fp, #-10]
2000cf34:	eaffffbf 	b	2000ce38 <inet_aton+0xc0>
2000cf38:	e55b300a 	ldrb	r3, [fp, #-10]
2000cf3c:	e353002e 	cmp	r3, #46	; 0x2e
2000cf40:	1a000012 	bne	2000cf90 <inet_aton+0x218>
2000cf44:	e24b3020 	sub	r3, fp, #32
2000cf48:	e283300c 	add	r3, r3, #12
2000cf4c:	e51b2010 	ldr	r2, [fp, #-16]
2000cf50:	e1530002 	cmp	r3, r2
2000cf54:	8a000001 	bhi	2000cf60 <inet_aton+0x1e8>
2000cf58:	e3a03000 	mov	r3, #0
2000cf5c:	ea000065 	b	2000d0f8 <inet_aton+0x380>
2000cf60:	e51b3010 	ldr	r3, [fp, #-16]
2000cf64:	e2832004 	add	r2, r3, #4
2000cf68:	e50b2010 	str	r2, [fp, #-16]
2000cf6c:	e51b2008 	ldr	r2, [fp, #-8]
2000cf70:	e5832000 	str	r2, [r3]
2000cf74:	e51b3028 	ldr	r3, [fp, #-40]	; 0xffffffd8
2000cf78:	e2833001 	add	r3, r3, #1
2000cf7c:	e50b3028 	str	r3, [fp, #-40]	; 0xffffffd8
2000cf80:	e51b3028 	ldr	r3, [fp, #-40]	; 0xffffffd8
2000cf84:	e5d33000 	ldrb	r3, [r3]
2000cf88:	e54b300a 	strb	r3, [fp, #-10]
2000cf8c:	eaffff83 	b	2000cda0 <inet_aton+0x28>
2000cf90:	e1a00000 	nop			; (mov r0, r0)
2000cf94:	e55b300a 	ldrb	r3, [fp, #-10]
2000cf98:	e3530000 	cmp	r3, #0
2000cf9c:	0a000013 	beq	2000cff0 <inet_aton+0x278>
2000cfa0:	e55b300a 	ldrb	r3, [fp, #-10]
2000cfa4:	e3530020 	cmp	r3, #32
2000cfa8:	0a000010 	beq	2000cff0 <inet_aton+0x278>
2000cfac:	e55b300a 	ldrb	r3, [fp, #-10]
2000cfb0:	e353000c 	cmp	r3, #12
2000cfb4:	0a00000d 	beq	2000cff0 <inet_aton+0x278>
2000cfb8:	e55b300a 	ldrb	r3, [fp, #-10]
2000cfbc:	e353000a 	cmp	r3, #10
2000cfc0:	0a00000a 	beq	2000cff0 <inet_aton+0x278>
2000cfc4:	e55b300a 	ldrb	r3, [fp, #-10]
2000cfc8:	e353000d 	cmp	r3, #13
2000cfcc:	0a000007 	beq	2000cff0 <inet_aton+0x278>
2000cfd0:	e55b300a 	ldrb	r3, [fp, #-10]
2000cfd4:	e3530009 	cmp	r3, #9
2000cfd8:	0a000004 	beq	2000cff0 <inet_aton+0x278>
2000cfdc:	e55b300a 	ldrb	r3, [fp, #-10]
2000cfe0:	e353000b 	cmp	r3, #11
2000cfe4:	0a000001 	beq	2000cff0 <inet_aton+0x278>
2000cfe8:	e3a03000 	mov	r3, #0
2000cfec:	ea000041 	b	2000d0f8 <inet_aton+0x380>
2000cff0:	e51b2010 	ldr	r2, [fp, #-16]
2000cff4:	e24b3020 	sub	r3, fp, #32
2000cff8:	e0633002 	rsb	r3, r3, r2
2000cffc:	e1a03143 	asr	r3, r3, #2
2000d000:	e2833001 	add	r3, r3, #1
2000d004:	e3530004 	cmp	r3, #4
2000d008:	979ff103 	ldrls	pc, [pc, r3, lsl #2]
2000d00c:	ea000030 	b	2000d0d4 <inet_aton+0x35c>
2000d010:	2000d024 	.word	0x2000d024
2000d014:	2000d0d4 	.word	0x2000d0d4
2000d018:	2000d02c 	.word	0x2000d02c
2000d01c:	2000d058 	.word	0x2000d058
2000d020:	2000d090 	.word	0x2000d090
2000d024:	e3a03000 	mov	r3, #0
2000d028:	ea000032 	b	2000d0f8 <inet_aton+0x380>
2000d02c:	e51b3008 	ldr	r3, [fp, #-8]
2000d030:	e3530401 	cmp	r3, #16777216	; 0x1000000
2000d034:	3a000001 	bcc	2000d040 <inet_aton+0x2c8>
2000d038:	e3a03000 	mov	r3, #0
2000d03c:	ea00002d 	b	2000d0f8 <inet_aton+0x380>
2000d040:	e51b3020 	ldr	r3, [fp, #-32]	; 0xffffffe0
2000d044:	e1a03c03 	lsl	r3, r3, #24
2000d048:	e51b2008 	ldr	r2, [fp, #-8]
2000d04c:	e1823003 	orr	r3, r2, r3
2000d050:	e50b3008 	str	r3, [fp, #-8]
2000d054:	ea00001e 	b	2000d0d4 <inet_aton+0x35c>
2000d058:	e51b3008 	ldr	r3, [fp, #-8]
2000d05c:	e3530801 	cmp	r3, #65536	; 0x10000
2000d060:	3a000001 	bcc	2000d06c <inet_aton+0x2f4>
2000d064:	e3a03000 	mov	r3, #0
2000d068:	ea000022 	b	2000d0f8 <inet_aton+0x380>
2000d06c:	e51b3020 	ldr	r3, [fp, #-32]	; 0xffffffe0
2000d070:	e1a02c03 	lsl	r2, r3, #24
2000d074:	e51b301c 	ldr	r3, [fp, #-28]	; 0xffffffe4
2000d078:	e1a03803 	lsl	r3, r3, #16
2000d07c:	e1823003 	orr	r3, r2, r3
2000d080:	e51b2008 	ldr	r2, [fp, #-8]
2000d084:	e1823003 	orr	r3, r2, r3
2000d088:	e50b3008 	str	r3, [fp, #-8]
2000d08c:	ea000010 	b	2000d0d4 <inet_aton+0x35c>
2000d090:	e51b3008 	ldr	r3, [fp, #-8]
2000d094:	e35300ff 	cmp	r3, #255	; 0xff
2000d098:	9a000001 	bls	2000d0a4 <inet_aton+0x32c>
2000d09c:	e3a03000 	mov	r3, #0
2000d0a0:	ea000014 	b	2000d0f8 <inet_aton+0x380>
2000d0a4:	e51b3020 	ldr	r3, [fp, #-32]	; 0xffffffe0
2000d0a8:	e1a02c03 	lsl	r2, r3, #24
2000d0ac:	e51b301c 	ldr	r3, [fp, #-28]	; 0xffffffe4
2000d0b0:	e1a03803 	lsl	r3, r3, #16
2000d0b4:	e1822003 	orr	r2, r2, r3
2000d0b8:	e51b3018 	ldr	r3, [fp, #-24]	; 0xffffffe8
2000d0bc:	e1a03403 	lsl	r3, r3, #8
2000d0c0:	e1823003 	orr	r3, r2, r3
2000d0c4:	e51b2008 	ldr	r2, [fp, #-8]
2000d0c8:	e1823003 	orr	r3, r2, r3
2000d0cc:	e50b3008 	str	r3, [fp, #-8]
2000d0d0:	e1a00000 	nop			; (mov r0, r0)
2000d0d4:	e51b302c 	ldr	r3, [fp, #-44]	; 0xffffffd4
2000d0d8:	e3530000 	cmp	r3, #0
2000d0dc:	0a000004 	beq	2000d0f4 <inet_aton+0x37c>
2000d0e0:	e51b0008 	ldr	r0, [fp, #-8]
2000d0e4:	eb000085 	bl	2000d300 <htonl>
2000d0e8:	e1a02000 	mov	r2, r0
2000d0ec:	e51b302c 	ldr	r3, [fp, #-44]	; 0xffffffd4
2000d0f0:	e5832000 	str	r2, [r3]
2000d0f4:	e3a03001 	mov	r3, #1
2000d0f8:	e1a00003 	mov	r0, r3
2000d0fc:	e24bd004 	sub	sp, fp, #4
2000d100:	e8bd4800 	pop	{fp, lr}
2000d104:	e12fff1e 	bx	lr

2000d108 <inet_ntoa>:
2000d108:	e52db004 	push	{fp}		; (str fp, [sp, #-4]!)
2000d10c:	e28db000 	add	fp, sp, #0
2000d110:	e24dd024 	sub	sp, sp, #36	; 0x24
2000d114:	e50b0020 	str	r0, [fp, #-32]	; 0xffffffe0
2000d118:	e51b3020 	ldr	r3, [fp, #-32]	; 0xffffffe0
2000d11c:	e50b3014 	str	r3, [fp, #-20]	; 0xffffffec
2000d120:	e59f313c 	ldr	r3, [pc, #316]	; 2000d264 <inet_ntoa+0x15c>
2000d124:	e50b3008 	str	r3, [fp, #-8]
2000d128:	e24b3014 	sub	r3, fp, #20
2000d12c:	e50b300c 	str	r3, [fp, #-12]
2000d130:	e3a03000 	mov	r3, #0
2000d134:	e54b300d 	strb	r3, [fp, #-13]
2000d138:	ea00003b 	b	2000d22c <inet_ntoa+0x124>
2000d13c:	e3a03000 	mov	r3, #0
2000d140:	e54b300e 	strb	r3, [fp, #-14]
2000d144:	e51b300c 	ldr	r3, [fp, #-12]
2000d148:	e5d32000 	ldrb	r2, [r3]
2000d14c:	e59f3114 	ldr	r3, [pc, #276]	; 2000d268 <inet_ntoa+0x160>
2000d150:	e0831392 	umull	r1, r3, r2, r3
2000d154:	e1a011a3 	lsr	r1, r3, #3
2000d158:	e1a03001 	mov	r3, r1
2000d15c:	e1a03103 	lsl	r3, r3, #2
2000d160:	e0833001 	add	r3, r3, r1
2000d164:	e1a03083 	lsl	r3, r3, #1
2000d168:	e0633002 	rsb	r3, r3, r2
2000d16c:	e54b300f 	strb	r3, [fp, #-15]
2000d170:	e51b300c 	ldr	r3, [fp, #-12]
2000d174:	e5d33000 	ldrb	r3, [r3]
2000d178:	e59f20e8 	ldr	r2, [pc, #232]	; 2000d268 <inet_ntoa+0x160>
2000d17c:	e0831392 	umull	r1, r3, r2, r3
2000d180:	e1a031a3 	lsr	r3, r3, #3
2000d184:	e20320ff 	and	r2, r3, #255	; 0xff
2000d188:	e51b300c 	ldr	r3, [fp, #-12]
2000d18c:	e5c32000 	strb	r2, [r3]
2000d190:	e55b300e 	ldrb	r3, [fp, #-14]
2000d194:	e2832001 	add	r2, r3, #1
2000d198:	e54b200e 	strb	r2, [fp, #-14]
2000d19c:	e1a01003 	mov	r1, r3
2000d1a0:	e55b300f 	ldrb	r3, [fp, #-15]
2000d1a4:	e2833030 	add	r3, r3, #48	; 0x30
2000d1a8:	e20320ff 	and	r2, r3, #255	; 0xff
2000d1ac:	e24b3004 	sub	r3, fp, #4
2000d1b0:	e0833001 	add	r3, r3, r1
2000d1b4:	e5432014 	strb	r2, [r3, #-20]	; 0xffffffec
2000d1b8:	e51b300c 	ldr	r3, [fp, #-12]
2000d1bc:	e5d33000 	ldrb	r3, [r3]
2000d1c0:	e3530000 	cmp	r3, #0
2000d1c4:	1affffde 	bne	2000d144 <inet_ntoa+0x3c>
2000d1c8:	ea000007 	b	2000d1ec <inet_ntoa+0xe4>
2000d1cc:	e51b3008 	ldr	r3, [fp, #-8]
2000d1d0:	e2832001 	add	r2, r3, #1
2000d1d4:	e50b2008 	str	r2, [fp, #-8]
2000d1d8:	e55b200e 	ldrb	r2, [fp, #-14]
2000d1dc:	e24b1004 	sub	r1, fp, #4
2000d1e0:	e0812002 	add	r2, r1, r2
2000d1e4:	e5522014 	ldrb	r2, [r2, #-20]	; 0xffffffec
2000d1e8:	e5c32000 	strb	r2, [r3]
2000d1ec:	e55b300e 	ldrb	r3, [fp, #-14]
2000d1f0:	e2432001 	sub	r2, r3, #1
2000d1f4:	e54b200e 	strb	r2, [fp, #-14]
2000d1f8:	e3530000 	cmp	r3, #0
2000d1fc:	1afffff2 	bne	2000d1cc <inet_ntoa+0xc4>
2000d200:	e51b3008 	ldr	r3, [fp, #-8]
2000d204:	e2832001 	add	r2, r3, #1
2000d208:	e50b2008 	str	r2, [fp, #-8]
2000d20c:	e3a0202e 	mov	r2, #46	; 0x2e
2000d210:	e5c32000 	strb	r2, [r3]
2000d214:	e51b300c 	ldr	r3, [fp, #-12]
2000d218:	e2833001 	add	r3, r3, #1
2000d21c:	e50b300c 	str	r3, [fp, #-12]
2000d220:	e55b300d 	ldrb	r3, [fp, #-13]
2000d224:	e2833001 	add	r3, r3, #1
2000d228:	e54b300d 	strb	r3, [fp, #-13]
2000d22c:	e55b300d 	ldrb	r3, [fp, #-13]
2000d230:	e3530003 	cmp	r3, #3
2000d234:	9affffc0 	bls	2000d13c <inet_ntoa+0x34>
2000d238:	e51b3008 	ldr	r3, [fp, #-8]
2000d23c:	e2433001 	sub	r3, r3, #1
2000d240:	e50b3008 	str	r3, [fp, #-8]
2000d244:	e51b3008 	ldr	r3, [fp, #-8]
2000d248:	e3a02000 	mov	r2, #0
2000d24c:	e5c32000 	strb	r2, [r3]
2000d250:	e59f300c 	ldr	r3, [pc, #12]	; 2000d264 <inet_ntoa+0x15c>
2000d254:	e1a00003 	mov	r0, r3
2000d258:	e24bd000 	sub	sp, fp, #0
2000d25c:	e49db004 	pop	{fp}		; (ldr fp, [sp], #4)
2000d260:	e12fff1e 	bx	lr
2000d264:	20014bcc 	.word	0x20014bcc
2000d268:	cccccccd 	.word	0xcccccccd

2000d26c <htons>:
2000d26c:	e52db004 	push	{fp}		; (str fp, [sp, #-4]!)
2000d270:	e28db000 	add	fp, sp, #0
2000d274:	e24dd00c 	sub	sp, sp, #12
2000d278:	e1a03000 	mov	r3, r0
2000d27c:	e14b30b6 	strh	r3, [fp, #-6]
2000d280:	e15b30b6 	ldrh	r3, [fp, #-6]
2000d284:	e1a03403 	lsl	r3, r3, #8
2000d288:	e1a03803 	lsl	r3, r3, #16
2000d28c:	e1a02823 	lsr	r2, r3, #16
2000d290:	e15b30b6 	ldrh	r3, [fp, #-6]
2000d294:	e1a03423 	lsr	r3, r3, #8
2000d298:	e1a03803 	lsl	r3, r3, #16
2000d29c:	e1a03823 	lsr	r3, r3, #16
2000d2a0:	e1a03803 	lsl	r3, r3, #16
2000d2a4:	e1a03823 	lsr	r3, r3, #16
2000d2a8:	e1823003 	orr	r3, r2, r3
2000d2ac:	e1a03803 	lsl	r3, r3, #16
2000d2b0:	e1a03823 	lsr	r3, r3, #16
2000d2b4:	e1a03803 	lsl	r3, r3, #16
2000d2b8:	e1a03823 	lsr	r3, r3, #16
2000d2bc:	e1a00003 	mov	r0, r3
2000d2c0:	e24bd000 	sub	sp, fp, #0
2000d2c4:	e49db004 	pop	{fp}		; (ldr fp, [sp], #4)
2000d2c8:	e12fff1e 	bx	lr

2000d2cc <ntohs>:
2000d2cc:	e92d4800 	push	{fp, lr}
2000d2d0:	e28db004 	add	fp, sp, #4
2000d2d4:	e24dd008 	sub	sp, sp, #8
2000d2d8:	e1a03000 	mov	r3, r0
2000d2dc:	e14b30b6 	strh	r3, [fp, #-6]
2000d2e0:	e15b30b6 	ldrh	r3, [fp, #-6]
2000d2e4:	e1a00003 	mov	r0, r3
2000d2e8:	ebffffdf 	bl	2000d26c <htons>
2000d2ec:	e1a03000 	mov	r3, r0
2000d2f0:	e1a00003 	mov	r0, r3
2000d2f4:	e24bd004 	sub	sp, fp, #4
2000d2f8:	e8bd4800 	pop	{fp, lr}
2000d2fc:	e12fff1e 	bx	lr

2000d300 <htonl>:
2000d300:	e52db004 	push	{fp}		; (str fp, [sp, #-4]!)
2000d304:	e28db000 	add	fp, sp, #0
2000d308:	e24dd00c 	sub	sp, sp, #12
2000d30c:	e50b0008 	str	r0, [fp, #-8]
2000d310:	e51b3008 	ldr	r3, [fp, #-8]
2000d314:	e1a02c03 	lsl	r2, r3, #24
2000d318:	e51b3008 	ldr	r3, [fp, #-8]
2000d31c:	e2033cff 	and	r3, r3, #65280	; 0xff00
2000d320:	e1a03403 	lsl	r3, r3, #8
2000d324:	e1822003 	orr	r2, r2, r3
2000d328:	e51b3008 	ldr	r3, [fp, #-8]
2000d32c:	e20338ff 	and	r3, r3, #16711680	; 0xff0000
2000d330:	e1a03423 	lsr	r3, r3, #8
2000d334:	e1822003 	orr	r2, r2, r3
2000d338:	e51b3008 	ldr	r3, [fp, #-8]
2000d33c:	e1a03c23 	lsr	r3, r3, #24
2000d340:	e1823003 	orr	r3, r2, r3
2000d344:	e1a00003 	mov	r0, r3
2000d348:	e24bd000 	sub	sp, fp, #0
2000d34c:	e49db004 	pop	{fp}		; (ldr fp, [sp], #4)
2000d350:	e12fff1e 	bx	lr

2000d354 <ntohl>:
2000d354:	e92d4800 	push	{fp, lr}
2000d358:	e28db004 	add	fp, sp, #4
2000d35c:	e24dd008 	sub	sp, sp, #8
2000d360:	e50b0008 	str	r0, [fp, #-8]
2000d364:	e51b0008 	ldr	r0, [fp, #-8]
2000d368:	ebffffe4 	bl	2000d300 <htonl>
2000d36c:	e1a03000 	mov	r3, r0
2000d370:	e1a00003 	mov	r0, r3
2000d374:	e24bd004 	sub	sp, fp, #4
2000d378:	e8bd4800 	pop	{fp, lr}
2000d37c:	e12fff1e 	bx	lr

2000d380 <ip_addr_isbroadcast>:
2000d380:	e52db004 	push	{fp}		; (str fp, [sp, #-4]!)
2000d384:	e28db000 	add	fp, sp, #0
2000d388:	e24dd014 	sub	sp, sp, #20
2000d38c:	e50b0010 	str	r0, [fp, #-16]
2000d390:	e50b1014 	str	r1, [fp, #-20]	; 0xffffffec
2000d394:	e51b3010 	ldr	r3, [fp, #-16]
2000d398:	e5d32000 	ldrb	r2, [r3]
2000d39c:	e5d31001 	ldrb	r1, [r3, #1]
2000d3a0:	e1a01401 	lsl	r1, r1, #8
2000d3a4:	e1812002 	orr	r2, r1, r2
2000d3a8:	e5d31002 	ldrb	r1, [r3, #2]
2000d3ac:	e1a01801 	lsl	r1, r1, #16
2000d3b0:	e1812002 	orr	r2, r1, r2
2000d3b4:	e5d33003 	ldrb	r3, [r3, #3]
2000d3b8:	e1a03c03 	lsl	r3, r3, #24
2000d3bc:	e1833002 	orr	r3, r3, r2
2000d3c0:	e50b3008 	str	r3, [fp, #-8]
2000d3c4:	e51b3008 	ldr	r3, [fp, #-8]
2000d3c8:	e3730001 	cmn	r3, #1
2000d3cc:	0a000002 	beq	2000d3dc <ip_addr_isbroadcast+0x5c>
2000d3d0:	e51b3008 	ldr	r3, [fp, #-8]
2000d3d4:	e3530000 	cmp	r3, #0
2000d3d8:	1a000001 	bne	2000d3e4 <ip_addr_isbroadcast+0x64>
2000d3dc:	e3a03001 	mov	r3, #1
2000d3e0:	ea00002e 	b	2000d4a0 <ip_addr_isbroadcast+0x120>
2000d3e4:	e51b3014 	ldr	r3, [fp, #-20]	; 0xffffffec
2000d3e8:	e5d33029 	ldrb	r3, [r3, #41]	; 0x29
2000d3ec:	e2033002 	and	r3, r3, #2
2000d3f0:	e3530000 	cmp	r3, #0
2000d3f4:	1a000001 	bne	2000d400 <ip_addr_isbroadcast+0x80>
2000d3f8:	e3a03000 	mov	r3, #0
2000d3fc:	ea000027 	b	2000d4a0 <ip_addr_isbroadcast+0x120>
2000d400:	e51b3014 	ldr	r3, [fp, #-20]	; 0xffffffec
2000d404:	e5932004 	ldr	r2, [r3, #4]
2000d408:	e51b3008 	ldr	r3, [fp, #-8]
2000d40c:	e1520003 	cmp	r2, r3
2000d410:	1a000001 	bne	2000d41c <ip_addr_isbroadcast+0x9c>
2000d414:	e3a03000 	mov	r3, #0
2000d418:	ea000020 	b	2000d4a0 <ip_addr_isbroadcast+0x120>
2000d41c:	e51b3010 	ldr	r3, [fp, #-16]
2000d420:	e5d32000 	ldrb	r2, [r3]
2000d424:	e5d31001 	ldrb	r1, [r3, #1]
2000d428:	e1a01401 	lsl	r1, r1, #8
2000d42c:	e1812002 	orr	r2, r1, r2
2000d430:	e5d31002 	ldrb	r1, [r3, #2]
2000d434:	e1a01801 	lsl	r1, r1, #16
2000d438:	e1812002 	orr	r2, r1, r2
2000d43c:	e5d33003 	ldrb	r3, [r3, #3]
2000d440:	e1a03c03 	lsl	r3, r3, #24
2000d444:	e1833002 	orr	r3, r3, r2
2000d448:	e1a02003 	mov	r2, r3
2000d44c:	e51b3014 	ldr	r3, [fp, #-20]	; 0xffffffec
2000d450:	e5933004 	ldr	r3, [r3, #4]
2000d454:	e0222003 	eor	r2, r2, r3
2000d458:	e51b3014 	ldr	r3, [fp, #-20]	; 0xffffffec
2000d45c:	e5933008 	ldr	r3, [r3, #8]
2000d460:	e0033002 	and	r3, r3, r2
2000d464:	e3530000 	cmp	r3, #0
2000d468:	1a00000b 	bne	2000d49c <ip_addr_isbroadcast+0x11c>
2000d46c:	e51b3014 	ldr	r3, [fp, #-20]	; 0xffffffec
2000d470:	e5933008 	ldr	r3, [r3, #8]
2000d474:	e1e02003 	mvn	r2, r3
2000d478:	e51b3008 	ldr	r3, [fp, #-8]
2000d47c:	e0022003 	and	r2, r2, r3
2000d480:	e51b3014 	ldr	r3, [fp, #-20]	; 0xffffffec
2000d484:	e5933008 	ldr	r3, [r3, #8]
2000d488:	e1e03003 	mvn	r3, r3
2000d48c:	e1520003 	cmp	r2, r3
2000d490:	1a000001 	bne	2000d49c <ip_addr_isbroadcast+0x11c>
2000d494:	e3a03001 	mov	r3, #1
2000d498:	ea000000 	b	2000d4a0 <ip_addr_isbroadcast+0x120>
2000d49c:	e3a03000 	mov	r3, #0
2000d4a0:	e1a00003 	mov	r0, r3
2000d4a4:	e24bd000 	sub	sp, fp, #0
2000d4a8:	e49db004 	pop	{fp}		; (ldr fp, [sp], #4)
2000d4ac:	e12fff1e 	bx	lr

2000d4b0 <ip_reass_tmr>:
2000d4b0:	e92d4800 	push	{fp, lr}
2000d4b4:	e28db004 	add	fp, sp, #4
2000d4b8:	e24dd010 	sub	sp, sp, #16
2000d4bc:	e3a03000 	mov	r3, #0
2000d4c0:	e50b300c 	str	r3, [fp, #-12]
2000d4c4:	e59f3084 	ldr	r3, [pc, #132]	; 2000d550 <ip_reass_tmr+0xa0>
2000d4c8:	e5933000 	ldr	r3, [r3]
2000d4cc:	e50b3008 	str	r3, [fp, #-8]
2000d4d0:	ea000017 	b	2000d534 <ip_reass_tmr+0x84>
2000d4d4:	e51b3008 	ldr	r3, [fp, #-8]
2000d4d8:	e5d3301f 	ldrb	r3, [r3, #31]
2000d4dc:	e3530000 	cmp	r3, #0
2000d4e0:	0a00000b 	beq	2000d514 <ip_reass_tmr+0x64>
2000d4e4:	e51b3008 	ldr	r3, [fp, #-8]
2000d4e8:	e5d3301f 	ldrb	r3, [r3, #31]
2000d4ec:	e2433001 	sub	r3, r3, #1
2000d4f0:	e20320ff 	and	r2, r3, #255	; 0xff
2000d4f4:	e51b3008 	ldr	r3, [fp, #-8]
2000d4f8:	e5c3201f 	strb	r2, [r3, #31]
2000d4fc:	e51b3008 	ldr	r3, [fp, #-8]
2000d500:	e50b300c 	str	r3, [fp, #-12]
2000d504:	e51b3008 	ldr	r3, [fp, #-8]
2000d508:	e5933000 	ldr	r3, [r3]
2000d50c:	e50b3008 	str	r3, [fp, #-8]
2000d510:	ea000007 	b	2000d534 <ip_reass_tmr+0x84>
2000d514:	e51b3008 	ldr	r3, [fp, #-8]
2000d518:	e50b3010 	str	r3, [fp, #-16]
2000d51c:	e51b3008 	ldr	r3, [fp, #-8]
2000d520:	e5933000 	ldr	r3, [r3]
2000d524:	e50b3008 	str	r3, [fp, #-8]
2000d528:	e51b100c 	ldr	r1, [fp, #-12]
2000d52c:	e51b0010 	ldr	r0, [fp, #-16]
2000d530:	eb000007 	bl	2000d554 <ip_reass_free_complete_datagram>
2000d534:	e51b3008 	ldr	r3, [fp, #-8]
2000d538:	e3530000 	cmp	r3, #0
2000d53c:	1affffe4 	bne	2000d4d4 <ip_reass_tmr+0x24>
2000d540:	e1a00000 	nop			; (mov r0, r0)
2000d544:	e24bd004 	sub	sp, fp, #4
2000d548:	e8bd4800 	pop	{fp, lr}
2000d54c:	e12fff1e 	bx	lr
2000d550:	20014bdc 	.word	0x20014bdc

2000d554 <ip_reass_free_complete_datagram>:
2000d554:	e92d4800 	push	{fp, lr}
2000d558:	e28db004 	add	fp, sp, #4
2000d55c:	e24dd018 	sub	sp, sp, #24
2000d560:	e50b0018 	str	r0, [fp, #-24]	; 0xffffffe8
2000d564:	e50b101c 	str	r1, [fp, #-28]	; 0xffffffe4
2000d568:	e3a03000 	mov	r3, #0
2000d56c:	e50b3008 	str	r3, [fp, #-8]
2000d570:	e51b301c 	ldr	r3, [fp, #-28]	; 0xffffffe4
2000d574:	e3530000 	cmp	r3, #0
2000d578:	e51b3018 	ldr	r3, [fp, #-24]	; 0xffffffe8
2000d57c:	e5933004 	ldr	r3, [r3, #4]
2000d580:	e5933004 	ldr	r3, [r3, #4]
2000d584:	e50b3010 	str	r3, [fp, #-16]
2000d588:	e51b3010 	ldr	r3, [fp, #-16]
2000d58c:	e5d32004 	ldrb	r2, [r3, #4]
2000d590:	e5d33005 	ldrb	r3, [r3, #5]
2000d594:	e1a03403 	lsl	r3, r3, #8
2000d598:	e1833002 	orr	r3, r3, r2
2000d59c:	e1a03803 	lsl	r3, r3, #16
2000d5a0:	e1a03823 	lsr	r3, r3, #16
2000d5a4:	e3530000 	cmp	r3, #0
2000d5a8:	1a000023 	bne	2000d63c <ip_reass_free_complete_datagram+0xe8>
2000d5ac:	e51b3018 	ldr	r3, [fp, #-24]	; 0xffffffe8
2000d5b0:	e5933004 	ldr	r3, [r3, #4]
2000d5b4:	e50b300c 	str	r3, [fp, #-12]
2000d5b8:	e51b3010 	ldr	r3, [fp, #-16]
2000d5bc:	e5d32000 	ldrb	r2, [r3]
2000d5c0:	e5d31001 	ldrb	r1, [r3, #1]
2000d5c4:	e1a01401 	lsl	r1, r1, #8
2000d5c8:	e1812002 	orr	r2, r1, r2
2000d5cc:	e5d31002 	ldrb	r1, [r3, #2]
2000d5d0:	e1a01801 	lsl	r1, r1, #16
2000d5d4:	e1812002 	orr	r2, r1, r2
2000d5d8:	e5d33003 	ldrb	r3, [r3, #3]
2000d5dc:	e1a03c03 	lsl	r3, r3, #24
2000d5e0:	e1833002 	orr	r3, r3, r2
2000d5e4:	e1a02003 	mov	r2, r3
2000d5e8:	e51b3018 	ldr	r3, [fp, #-24]	; 0xffffffe8
2000d5ec:	e5832004 	str	r2, [r3, #4]
2000d5f0:	e51b300c 	ldr	r3, [fp, #-12]
2000d5f4:	e5930004 	ldr	r0, [r3, #4]
2000d5f8:	e51b3018 	ldr	r3, [fp, #-24]	; 0xffffffe8
2000d5fc:	e2833008 	add	r3, r3, #8
2000d600:	e3a02014 	mov	r2, #20
2000d604:	e1a01003 	mov	r1, r3
2000d608:	eb00196f 	bl	20013bcc <__rom_data_end>
2000d60c:	e3a01001 	mov	r1, #1
2000d610:	e51b000c 	ldr	r0, [fp, #-12]
2000d614:	ebfff9f7 	bl	2000bdf8 <icmp_time_exceeded>
2000d618:	e51b000c 	ldr	r0, [fp, #-12]
2000d61c:	ebffd1e1 	bl	20001da8 <pbuf_clen>
2000d620:	e1a03000 	mov	r3, r0
2000d624:	e1a02003 	mov	r2, r3
2000d628:	e51b3008 	ldr	r3, [fp, #-8]
2000d62c:	e0833002 	add	r3, r3, r2
2000d630:	e50b3008 	str	r3, [fp, #-8]
2000d634:	e51b000c 	ldr	r0, [fp, #-12]
2000d638:	ebffd18d 	bl	20001c74 <pbuf_free>
2000d63c:	e51b3018 	ldr	r3, [fp, #-24]	; 0xffffffe8
2000d640:	e5933004 	ldr	r3, [r3, #4]
2000d644:	e50b300c 	str	r3, [fp, #-12]
2000d648:	ea000019 	b	2000d6b4 <ip_reass_free_complete_datagram+0x160>
2000d64c:	e51b300c 	ldr	r3, [fp, #-12]
2000d650:	e5933004 	ldr	r3, [r3, #4]
2000d654:	e50b3010 	str	r3, [fp, #-16]
2000d658:	e51b300c 	ldr	r3, [fp, #-12]
2000d65c:	e50b3014 	str	r3, [fp, #-20]	; 0xffffffec
2000d660:	e51b3010 	ldr	r3, [fp, #-16]
2000d664:	e5d32000 	ldrb	r2, [r3]
2000d668:	e5d31001 	ldrb	r1, [r3, #1]
2000d66c:	e1a01401 	lsl	r1, r1, #8
2000d670:	e1812002 	orr	r2, r1, r2
2000d674:	e5d31002 	ldrb	r1, [r3, #2]
2000d678:	e1a01801 	lsl	r1, r1, #16
2000d67c:	e1812002 	orr	r2, r1, r2
2000d680:	e5d33003 	ldrb	r3, [r3, #3]
2000d684:	e1a03c03 	lsl	r3, r3, #24
2000d688:	e1833002 	orr	r3, r3, r2
2000d68c:	e50b300c 	str	r3, [fp, #-12]
2000d690:	e51b0014 	ldr	r0, [fp, #-20]	; 0xffffffec
2000d694:	ebffd1c3 	bl	20001da8 <pbuf_clen>
2000d698:	e1a03000 	mov	r3, r0
2000d69c:	e1a02003 	mov	r2, r3
2000d6a0:	e51b3008 	ldr	r3, [fp, #-8]
2000d6a4:	e0833002 	add	r3, r3, r2
2000d6a8:	e50b3008 	str	r3, [fp, #-8]
2000d6ac:	e51b0014 	ldr	r0, [fp, #-20]	; 0xffffffec
2000d6b0:	ebffd16f 	bl	20001c74 <pbuf_free>
2000d6b4:	e51b300c 	ldr	r3, [fp, #-12]
2000d6b8:	e3530000 	cmp	r3, #0
2000d6bc:	1affffe2 	bne	2000d64c <ip_reass_free_complete_datagram+0xf8>
2000d6c0:	e51b101c 	ldr	r1, [fp, #-28]	; 0xffffffe4
2000d6c4:	e51b0018 	ldr	r0, [fp, #-24]	; 0xffffffe8
2000d6c8:	eb0000ba 	bl	2000d9b8 <ip_reass_dequeue_datagram>
2000d6cc:	e59f3034 	ldr	r3, [pc, #52]	; 2000d708 <ip_reass_free_complete_datagram+0x1b4>
2000d6d0:	e1d320b0 	ldrh	r2, [r3]
2000d6d4:	e51b3008 	ldr	r3, [fp, #-8]
2000d6d8:	e1a03803 	lsl	r3, r3, #16
2000d6dc:	e1a03823 	lsr	r3, r3, #16
2000d6e0:	e0633002 	rsb	r3, r3, r2
2000d6e4:	e1a03803 	lsl	r3, r3, #16
2000d6e8:	e1a03823 	lsr	r3, r3, #16
2000d6ec:	e59f2014 	ldr	r2, [pc, #20]	; 2000d708 <ip_reass_free_complete_datagram+0x1b4>
2000d6f0:	e1c230b0 	strh	r3, [r2]
2000d6f4:	e51b3008 	ldr	r3, [fp, #-8]
2000d6f8:	e1a00003 	mov	r0, r3
2000d6fc:	e24bd004 	sub	sp, fp, #4
2000d700:	e8bd4800 	pop	{fp, lr}
2000d704:	e12fff1e 	bx	lr
2000d708:	20014be0 	.word	0x20014be0

2000d70c <ip_reass_remove_oldest_datagram>:
2000d70c:	e92d4800 	push	{fp, lr}
2000d710:	e28db004 	add	fp, sp, #4
2000d714:	e24dd020 	sub	sp, sp, #32
2000d718:	e50b0020 	str	r0, [fp, #-32]	; 0xffffffe0
2000d71c:	e50b1024 	str	r1, [fp, #-36]	; 0xffffffdc
2000d720:	e3a03000 	mov	r3, #0
2000d724:	e50b3014 	str	r3, [fp, #-20]	; 0xffffffec
2000d728:	e3a03000 	mov	r3, #0
2000d72c:	e50b300c 	str	r3, [fp, #-12]
2000d730:	e3a03000 	mov	r3, #0
2000d734:	e50b3010 	str	r3, [fp, #-16]
2000d738:	e3a03000 	mov	r3, #0
2000d73c:	e50b3018 	str	r3, [fp, #-24]	; 0xffffffe8
2000d740:	e59f317c 	ldr	r3, [pc, #380]	; 2000d8c4 <ip_reass_remove_oldest_datagram+0x1b8>
2000d744:	e5933000 	ldr	r3, [r3]
2000d748:	e50b3008 	str	r3, [fp, #-8]
2000d74c:	ea000042 	b	2000d85c <ip_reass_remove_oldest_datagram+0x150>
2000d750:	e51b3008 	ldr	r3, [fp, #-8]
2000d754:	e5932014 	ldr	r2, [r3, #20]
2000d758:	e51b3020 	ldr	r3, [fp, #-32]	; 0xffffffe0
2000d75c:	e5d3100c 	ldrb	r1, [r3, #12]
2000d760:	e5d3000d 	ldrb	r0, [r3, #13]
2000d764:	e1a00400 	lsl	r0, r0, #8
2000d768:	e1801001 	orr	r1, r0, r1
2000d76c:	e5d3000e 	ldrb	r0, [r3, #14]
2000d770:	e1a00800 	lsl	r0, r0, #16
2000d774:	e1801001 	orr	r1, r0, r1
2000d778:	e5d3300f 	ldrb	r3, [r3, #15]
2000d77c:	e1a03c03 	lsl	r3, r3, #24
2000d780:	e1833001 	orr	r3, r3, r1
2000d784:	e1520003 	cmp	r2, r3
2000d788:	1a000019 	bne	2000d7f4 <ip_reass_remove_oldest_datagram+0xe8>
2000d78c:	e51b3008 	ldr	r3, [fp, #-8]
2000d790:	e5932018 	ldr	r2, [r3, #24]
2000d794:	e51b3020 	ldr	r3, [fp, #-32]	; 0xffffffe0
2000d798:	e5d31010 	ldrb	r1, [r3, #16]
2000d79c:	e5d30011 	ldrb	r0, [r3, #17]
2000d7a0:	e1a00400 	lsl	r0, r0, #8
2000d7a4:	e1801001 	orr	r1, r0, r1
2000d7a8:	e5d30012 	ldrb	r0, [r3, #18]
2000d7ac:	e1a00800 	lsl	r0, r0, #16
2000d7b0:	e1801001 	orr	r1, r0, r1
2000d7b4:	e5d33013 	ldrb	r3, [r3, #19]
2000d7b8:	e1a03c03 	lsl	r3, r3, #24
2000d7bc:	e1833001 	orr	r3, r3, r1
2000d7c0:	e1520003 	cmp	r2, r3
2000d7c4:	1a00000a 	bne	2000d7f4 <ip_reass_remove_oldest_datagram+0xe8>
2000d7c8:	e51b3008 	ldr	r3, [fp, #-8]
2000d7cc:	e1d320bc 	ldrh	r2, [r3, #12]
2000d7d0:	e51b3020 	ldr	r3, [fp, #-32]	; 0xffffffe0
2000d7d4:	e5d31004 	ldrb	r1, [r3, #4]
2000d7d8:	e5d33005 	ldrb	r3, [r3, #5]
2000d7dc:	e1a03403 	lsl	r3, r3, #8
2000d7e0:	e1833001 	orr	r3, r3, r1
2000d7e4:	e1a03803 	lsl	r3, r3, #16
2000d7e8:	e1a03823 	lsr	r3, r3, #16
2000d7ec:	e1520003 	cmp	r2, r3
2000d7f0:	0a000010 	beq	2000d838 <ip_reass_remove_oldest_datagram+0x12c>
2000d7f4:	e51b3018 	ldr	r3, [fp, #-24]	; 0xffffffe8
2000d7f8:	e2833001 	add	r3, r3, #1
2000d7fc:	e50b3018 	str	r3, [fp, #-24]	; 0xffffffe8
2000d800:	e51b300c 	ldr	r3, [fp, #-12]
2000d804:	e3530000 	cmp	r3, #0
2000d808:	1a000002 	bne	2000d818 <ip_reass_remove_oldest_datagram+0x10c>
2000d80c:	e51b3008 	ldr	r3, [fp, #-8]
2000d810:	e50b300c 	str	r3, [fp, #-12]
2000d814:	ea000007 	b	2000d838 <ip_reass_remove_oldest_datagram+0x12c>
2000d818:	e51b3008 	ldr	r3, [fp, #-8]
2000d81c:	e5d3201f 	ldrb	r2, [r3, #31]
2000d820:	e51b300c 	ldr	r3, [fp, #-12]
2000d824:	e5d3301f 	ldrb	r3, [r3, #31]
2000d828:	e1520003 	cmp	r2, r3
2000d82c:	8a000001 	bhi	2000d838 <ip_reass_remove_oldest_datagram+0x12c>
2000d830:	e51b3008 	ldr	r3, [fp, #-8]
2000d834:	e50b300c 	str	r3, [fp, #-12]
2000d838:	e51b3008 	ldr	r3, [fp, #-8]
2000d83c:	e5933000 	ldr	r3, [r3]
2000d840:	e3530000 	cmp	r3, #0
2000d844:	0a000001 	beq	2000d850 <ip_reass_remove_oldest_datagram+0x144>
2000d848:	e51b3008 	ldr	r3, [fp, #-8]
2000d84c:	e50b3010 	str	r3, [fp, #-16]
2000d850:	e51b3008 	ldr	r3, [fp, #-8]
2000d854:	e5933000 	ldr	r3, [r3]
2000d858:	e50b3008 	str	r3, [fp, #-8]
2000d85c:	e51b3008 	ldr	r3, [fp, #-8]
2000d860:	e3530000 	cmp	r3, #0
2000d864:	1affffb9 	bne	2000d750 <ip_reass_remove_oldest_datagram+0x44>
2000d868:	e51b300c 	ldr	r3, [fp, #-12]
2000d86c:	e3530000 	cmp	r3, #0
2000d870:	0a000007 	beq	2000d894 <ip_reass_remove_oldest_datagram+0x188>
2000d874:	e51b1010 	ldr	r1, [fp, #-16]
2000d878:	e51b000c 	ldr	r0, [fp, #-12]
2000d87c:	ebffff34 	bl	2000d554 <ip_reass_free_complete_datagram>
2000d880:	e50b001c 	str	r0, [fp, #-28]	; 0xffffffe4
2000d884:	e51b2014 	ldr	r2, [fp, #-20]	; 0xffffffec
2000d888:	e51b301c 	ldr	r3, [fp, #-28]	; 0xffffffe4
2000d88c:	e0823003 	add	r3, r2, r3
2000d890:	e50b3014 	str	r3, [fp, #-20]	; 0xffffffec
2000d894:	e51b2014 	ldr	r2, [fp, #-20]	; 0xffffffec
2000d898:	e51b3024 	ldr	r3, [fp, #-36]	; 0xffffffdc
2000d89c:	e1520003 	cmp	r2, r3
2000d8a0:	aa000002 	bge	2000d8b0 <ip_reass_remove_oldest_datagram+0x1a4>
2000d8a4:	e51b3018 	ldr	r3, [fp, #-24]	; 0xffffffe8
2000d8a8:	e3530001 	cmp	r3, #1
2000d8ac:	caffff9d 	bgt	2000d728 <ip_reass_remove_oldest_datagram+0x1c>
2000d8b0:	e51b3014 	ldr	r3, [fp, #-20]	; 0xffffffec
2000d8b4:	e1a00003 	mov	r0, r3
2000d8b8:	e24bd004 	sub	sp, fp, #4
2000d8bc:	e8bd4800 	pop	{fp, lr}
2000d8c0:	e12fff1e 	bx	lr
2000d8c4:	20014bdc 	.word	0x20014bdc

2000d8c8 <ip_reass_enqueue_new_datagram>:
2000d8c8:	e92d4800 	push	{fp, lr}
2000d8cc:	e28db004 	add	fp, sp, #4
2000d8d0:	e24dd010 	sub	sp, sp, #16
2000d8d4:	e50b0010 	str	r0, [fp, #-16]
2000d8d8:	e50b1014 	str	r1, [fp, #-20]	; 0xffffffec
2000d8dc:	e3a00005 	mov	r0, #5
2000d8e0:	ebffcce1 	bl	20000c6c <memp_malloc>
2000d8e4:	e50b0008 	str	r0, [fp, #-8]
2000d8e8:	e51b3008 	ldr	r3, [fp, #-8]
2000d8ec:	e3530000 	cmp	r3, #0
2000d8f0:	1a000015 	bne	2000d94c <ip_reass_enqueue_new_datagram+0x84>
2000d8f4:	e51b1014 	ldr	r1, [fp, #-20]	; 0xffffffec
2000d8f8:	e51b0010 	ldr	r0, [fp, #-16]
2000d8fc:	ebffff82 	bl	2000d70c <ip_reass_remove_oldest_datagram>
2000d900:	e1a02000 	mov	r2, r0
2000d904:	e51b3014 	ldr	r3, [fp, #-20]	; 0xffffffec
2000d908:	e1520003 	cmp	r2, r3
2000d90c:	ba000002 	blt	2000d91c <ip_reass_enqueue_new_datagram+0x54>
2000d910:	e3a00005 	mov	r0, #5
2000d914:	ebffccd4 	bl	20000c6c <memp_malloc>
2000d918:	e50b0008 	str	r0, [fp, #-8]
2000d91c:	e51b3008 	ldr	r3, [fp, #-8]
2000d920:	e3530000 	cmp	r3, #0
2000d924:	1a000008 	bne	2000d94c <ip_reass_enqueue_new_datagram+0x84>
2000d928:	e59f3080 	ldr	r3, [pc, #128]	; 2000d9b0 <ip_reass_enqueue_new_datagram+0xe8>
2000d92c:	e1d333bc 	ldrh	r3, [r3, #60]	; 0x3c
2000d930:	e2833001 	add	r3, r3, #1
2000d934:	e1a03803 	lsl	r3, r3, #16
2000d938:	e1a03823 	lsr	r3, r3, #16
2000d93c:	e59f206c 	ldr	r2, [pc, #108]	; 2000d9b0 <ip_reass_enqueue_new_datagram+0xe8>
2000d940:	e1c233bc 	strh	r3, [r2, #60]	; 0x3c
2000d944:	e3a03000 	mov	r3, #0
2000d948:	ea000014 	b	2000d9a0 <ip_reass_enqueue_new_datagram+0xd8>
2000d94c:	e3a02020 	mov	r2, #32
2000d950:	e3a01000 	mov	r1, #0
2000d954:	e51b0008 	ldr	r0, [fp, #-8]
2000d958:	eb0018d7 	bl	20013cbc <memset>
2000d95c:	e51b3008 	ldr	r3, [fp, #-8]
2000d960:	e3a02003 	mov	r2, #3
2000d964:	e5c3201f 	strb	r2, [r3, #31]
2000d968:	e59f3044 	ldr	r3, [pc, #68]	; 2000d9b4 <ip_reass_enqueue_new_datagram+0xec>
2000d96c:	e5932000 	ldr	r2, [r3]
2000d970:	e51b3008 	ldr	r3, [fp, #-8]
2000d974:	e5832000 	str	r2, [r3]
2000d978:	e59f2034 	ldr	r2, [pc, #52]	; 2000d9b4 <ip_reass_enqueue_new_datagram+0xec>
2000d97c:	e51b3008 	ldr	r3, [fp, #-8]
2000d980:	e5823000 	str	r3, [r2]
2000d984:	e51b3008 	ldr	r3, [fp, #-8]
2000d988:	e2833008 	add	r3, r3, #8
2000d98c:	e3a02014 	mov	r2, #20
2000d990:	e51b1010 	ldr	r1, [fp, #-16]
2000d994:	e1a00003 	mov	r0, r3
2000d998:	eb00188b 	bl	20013bcc <__rom_data_end>
2000d99c:	e51b3008 	ldr	r3, [fp, #-8]
2000d9a0:	e1a00003 	mov	r0, r3
2000d9a4:	e24bd004 	sub	sp, fp, #4
2000d9a8:	e8bd4800 	pop	{fp, lr}
2000d9ac:	e12fff1e 	bx	lr
2000d9b0:	20015630 	.word	0x20015630
2000d9b4:	20014bdc 	.word	0x20014bdc

2000d9b8 <ip_reass_dequeue_datagram>:
2000d9b8:	e92d4800 	push	{fp, lr}
2000d9bc:	e28db004 	add	fp, sp, #4
2000d9c0:	e24dd008 	sub	sp, sp, #8
2000d9c4:	e50b0008 	str	r0, [fp, #-8]
2000d9c8:	e50b100c 	str	r1, [fp, #-12]
2000d9cc:	e59f304c 	ldr	r3, [pc, #76]	; 2000da20 <ip_reass_dequeue_datagram+0x68>
2000d9d0:	e5932000 	ldr	r2, [r3]
2000d9d4:	e51b3008 	ldr	r3, [fp, #-8]
2000d9d8:	e1520003 	cmp	r2, r3
2000d9dc:	1a000004 	bne	2000d9f4 <ip_reass_dequeue_datagram+0x3c>
2000d9e0:	e51b3008 	ldr	r3, [fp, #-8]
2000d9e4:	e5933000 	ldr	r3, [r3]
2000d9e8:	e59f2030 	ldr	r2, [pc, #48]	; 2000da20 <ip_reass_dequeue_datagram+0x68>
2000d9ec:	e5823000 	str	r3, [r2]
2000d9f0:	ea000003 	b	2000da04 <ip_reass_dequeue_datagram+0x4c>
2000d9f4:	e51b3008 	ldr	r3, [fp, #-8]
2000d9f8:	e5932000 	ldr	r2, [r3]
2000d9fc:	e51b300c 	ldr	r3, [fp, #-12]
2000da00:	e5832000 	str	r2, [r3]
2000da04:	e51b1008 	ldr	r1, [fp, #-8]
2000da08:	e3a00005 	mov	r0, #5
2000da0c:	ebffcd02 	bl	20000e1c <memp_free>
2000da10:	e1a00000 	nop			; (mov r0, r0)
2000da14:	e24bd004 	sub	sp, fp, #4
2000da18:	e8bd4800 	pop	{fp, lr}
2000da1c:	e12fff1e 	bx	lr
2000da20:	20014bdc 	.word	0x20014bdc

2000da24 <ip_reass_chain_frag_into_datagram_and_validate>:
2000da24:	e92d4810 	push	{r4, fp, lr}
2000da28:	e28db008 	add	fp, sp, #8
2000da2c:	e24dd02c 	sub	sp, sp, #44	; 0x2c
2000da30:	e50b0030 	str	r0, [fp, #-48]	; 0xffffffd0
2000da34:	e50b1034 	str	r1, [fp, #-52]	; 0xffffffcc
2000da38:	e3a03000 	mov	r3, #0
2000da3c:	e50b3014 	str	r3, [fp, #-20]	; 0xffffffec
2000da40:	e3a03001 	mov	r3, #1
2000da44:	e50b301c 	str	r3, [fp, #-28]	; 0xffffffe4
2000da48:	e51b3034 	ldr	r3, [fp, #-52]	; 0xffffffcc
2000da4c:	e5933004 	ldr	r3, [r3, #4]
2000da50:	e50b3020 	str	r3, [fp, #-32]	; 0xffffffe0
2000da54:	e51b3020 	ldr	r3, [fp, #-32]	; 0xffffffe0
2000da58:	e5d32002 	ldrb	r2, [r3, #2]
2000da5c:	e5d33003 	ldrb	r3, [r3, #3]
2000da60:	e1a03403 	lsl	r3, r3, #8
2000da64:	e1833002 	orr	r3, r3, r2
2000da68:	e1a03803 	lsl	r3, r3, #16
2000da6c:	e1a03823 	lsr	r3, r3, #16
2000da70:	e1a00003 	mov	r0, r3
2000da74:	ebfffe14 	bl	2000d2cc <ntohs>
2000da78:	e1a03000 	mov	r3, r0
2000da7c:	e1a04003 	mov	r4, r3
2000da80:	e51b3020 	ldr	r3, [fp, #-32]	; 0xffffffe0
2000da84:	e5d32000 	ldrb	r2, [r3]
2000da88:	e5d33001 	ldrb	r3, [r3, #1]
2000da8c:	e1a03403 	lsl	r3, r3, #8
2000da90:	e1833002 	orr	r3, r3, r2
2000da94:	e1a03803 	lsl	r3, r3, #16
2000da98:	e1a03823 	lsr	r3, r3, #16
2000da9c:	e1a00003 	mov	r0, r3
2000daa0:	ebfffe09 	bl	2000d2cc <ntohs>
2000daa4:	e1a03000 	mov	r3, r0
2000daa8:	e1a03423 	lsr	r3, r3, #8
2000daac:	e1a03803 	lsl	r3, r3, #16
2000dab0:	e1a03823 	lsr	r3, r3, #16
2000dab4:	e203300f 	and	r3, r3, #15
2000dab8:	e1a03803 	lsl	r3, r3, #16
2000dabc:	e1a03823 	lsr	r3, r3, #16
2000dac0:	e1a02003 	mov	r2, r3
2000dac4:	e1a02702 	lsl	r2, r2, #14
2000dac8:	e0633002 	rsb	r3, r3, r2
2000dacc:	e1a03103 	lsl	r3, r3, #2
2000dad0:	e1a03803 	lsl	r3, r3, #16
2000dad4:	e1a03823 	lsr	r3, r3, #16
2000dad8:	e0843003 	add	r3, r4, r3
2000dadc:	e14b32b2 	strh	r3, [fp, #-34]	; 0xffffffde
2000dae0:	e51b3020 	ldr	r3, [fp, #-32]	; 0xffffffe0
2000dae4:	e5d32006 	ldrb	r2, [r3, #6]
2000dae8:	e5d33007 	ldrb	r3, [r3, #7]
2000daec:	e1a03403 	lsl	r3, r3, #8
2000daf0:	e1833002 	orr	r3, r3, r2
2000daf4:	e1a03803 	lsl	r3, r3, #16
2000daf8:	e1a03823 	lsr	r3, r3, #16
2000dafc:	e1a00003 	mov	r0, r3
2000db00:	ebfffdf1 	bl	2000d2cc <ntohs>
2000db04:	e1a03000 	mov	r3, r0
2000db08:	e1a03983 	lsl	r3, r3, #19
2000db0c:	e1a039a3 	lsr	r3, r3, #19
2000db10:	e1a03803 	lsl	r3, r3, #16
2000db14:	e1a03823 	lsr	r3, r3, #16
2000db18:	e1a03183 	lsl	r3, r3, #3
2000db1c:	e14b32b4 	strh	r3, [fp, #-36]	; 0xffffffdc
2000db20:	e51b3034 	ldr	r3, [fp, #-52]	; 0xffffffcc
2000db24:	e5933004 	ldr	r3, [r3, #4]
2000db28:	e50b3010 	str	r3, [fp, #-16]
2000db2c:	e51b3010 	ldr	r3, [fp, #-16]
2000db30:	e3a02000 	mov	r2, #0
2000db34:	e5c32000 	strb	r2, [r3]
2000db38:	e3a02000 	mov	r2, #0
2000db3c:	e5c32001 	strb	r2, [r3, #1]
2000db40:	e3a02000 	mov	r2, #0
2000db44:	e5c32002 	strb	r2, [r3, #2]
2000db48:	e3a02000 	mov	r2, #0
2000db4c:	e5c32003 	strb	r2, [r3, #3]
2000db50:	e51b3010 	ldr	r3, [fp, #-16]
2000db54:	e55b2024 	ldrb	r2, [fp, #-36]	; 0xffffffdc
2000db58:	e3a01000 	mov	r1, #0
2000db5c:	e1812002 	orr	r2, r1, r2
2000db60:	e5c32004 	strb	r2, [r3, #4]
2000db64:	e55b2023 	ldrb	r2, [fp, #-35]	; 0xffffffdd
2000db68:	e3a01000 	mov	r1, #0
2000db6c:	e1812002 	orr	r2, r1, r2
2000db70:	e5c32005 	strb	r2, [r3, #5]
2000db74:	e15b22b4 	ldrh	r2, [fp, #-36]	; 0xffffffdc
2000db78:	e15b32b2 	ldrh	r3, [fp, #-34]	; 0xffffffde
2000db7c:	e0823003 	add	r3, r2, r3
2000db80:	e1a03803 	lsl	r3, r3, #16
2000db84:	e1a02823 	lsr	r2, r3, #16
2000db88:	e51b3010 	ldr	r3, [fp, #-16]
2000db8c:	e20210ff 	and	r1, r2, #255	; 0xff
2000db90:	e3a00000 	mov	r0, #0
2000db94:	e1801001 	orr	r1, r0, r1
2000db98:	e5c31006 	strb	r1, [r3, #6]
2000db9c:	e1a02422 	lsr	r2, r2, #8
2000dba0:	e1a02802 	lsl	r2, r2, #16
2000dba4:	e1a02822 	lsr	r2, r2, #16
2000dba8:	e3a01000 	mov	r1, #0
2000dbac:	e1812002 	orr	r2, r1, r2
2000dbb0:	e5c32007 	strb	r2, [r3, #7]
2000dbb4:	e51b3030 	ldr	r3, [fp, #-48]	; 0xffffffd0
2000dbb8:	e5933004 	ldr	r3, [r3, #4]
2000dbbc:	e50b3018 	str	r3, [fp, #-24]	; 0xffffffe8
2000dbc0:	ea00009f 	b	2000de44 <ip_reass_chain_frag_into_datagram_and_validate+0x420>
2000dbc4:	e51b3018 	ldr	r3, [fp, #-24]	; 0xffffffe8
2000dbc8:	e5933004 	ldr	r3, [r3, #4]
2000dbcc:	e50b3028 	str	r3, [fp, #-40]	; 0xffffffd8
2000dbd0:	e51b3010 	ldr	r3, [fp, #-16]
2000dbd4:	e5d32004 	ldrb	r2, [r3, #4]
2000dbd8:	e5d33005 	ldrb	r3, [r3, #5]
2000dbdc:	e1a03403 	lsl	r3, r3, #8
2000dbe0:	e1833002 	orr	r3, r3, r2
2000dbe4:	e1a03803 	lsl	r3, r3, #16
2000dbe8:	e1a02823 	lsr	r2, r3, #16
2000dbec:	e51b3028 	ldr	r3, [fp, #-40]	; 0xffffffd8
2000dbf0:	e5d31004 	ldrb	r1, [r3, #4]
2000dbf4:	e5d33005 	ldrb	r3, [r3, #5]
2000dbf8:	e1a03403 	lsl	r3, r3, #8
2000dbfc:	e1833001 	orr	r3, r3, r1
2000dc00:	e1a03803 	lsl	r3, r3, #16
2000dc04:	e1a03823 	lsr	r3, r3, #16
2000dc08:	e1520003 	cmp	r2, r3
2000dc0c:	2a000049 	bcs	2000dd38 <ip_reass_chain_frag_into_datagram_and_validate+0x314>
2000dc10:	e51b3010 	ldr	r3, [fp, #-16]
2000dc14:	e55b2018 	ldrb	r2, [fp, #-24]	; 0xffffffe8
2000dc18:	e3a01000 	mov	r1, #0
2000dc1c:	e1812002 	orr	r2, r1, r2
2000dc20:	e5c32000 	strb	r2, [r3]
2000dc24:	e55b2017 	ldrb	r2, [fp, #-23]	; 0xffffffe9
2000dc28:	e3a01000 	mov	r1, #0
2000dc2c:	e1812002 	orr	r2, r1, r2
2000dc30:	e5c32001 	strb	r2, [r3, #1]
2000dc34:	e55b2016 	ldrb	r2, [fp, #-22]	; 0xffffffea
2000dc38:	e3a01000 	mov	r1, #0
2000dc3c:	e1812002 	orr	r2, r1, r2
2000dc40:	e5c32002 	strb	r2, [r3, #2]
2000dc44:	e55b2015 	ldrb	r2, [fp, #-21]	; 0xffffffeb
2000dc48:	e3a01000 	mov	r1, #0
2000dc4c:	e1812002 	orr	r2, r1, r2
2000dc50:	e5c32003 	strb	r2, [r3, #3]
2000dc54:	e51b3014 	ldr	r3, [fp, #-20]	; 0xffffffec
2000dc58:	e3530000 	cmp	r3, #0
2000dc5c:	0a000031 	beq	2000dd28 <ip_reass_chain_frag_into_datagram_and_validate+0x304>
2000dc60:	e51b3010 	ldr	r3, [fp, #-16]
2000dc64:	e5d32004 	ldrb	r2, [r3, #4]
2000dc68:	e5d33005 	ldrb	r3, [r3, #5]
2000dc6c:	e1a03403 	lsl	r3, r3, #8
2000dc70:	e1833002 	orr	r3, r3, r2
2000dc74:	e1a03803 	lsl	r3, r3, #16
2000dc78:	e1a02823 	lsr	r2, r3, #16
2000dc7c:	e51b3014 	ldr	r3, [fp, #-20]	; 0xffffffec
2000dc80:	e5d31006 	ldrb	r1, [r3, #6]
2000dc84:	e5d33007 	ldrb	r3, [r3, #7]
2000dc88:	e1a03403 	lsl	r3, r3, #8
2000dc8c:	e1833001 	orr	r3, r3, r1
2000dc90:	e1a03803 	lsl	r3, r3, #16
2000dc94:	e1a03823 	lsr	r3, r3, #16
2000dc98:	e1520003 	cmp	r2, r3
2000dc9c:	3a0000ed 	bcc	2000e058 <ip_reass_chain_frag_into_datagram_and_validate+0x634>
2000dca0:	e51b3010 	ldr	r3, [fp, #-16]
2000dca4:	e5d32006 	ldrb	r2, [r3, #6]
2000dca8:	e5d33007 	ldrb	r3, [r3, #7]
2000dcac:	e1a03403 	lsl	r3, r3, #8
2000dcb0:	e1833002 	orr	r3, r3, r2
2000dcb4:	e1a03803 	lsl	r3, r3, #16
2000dcb8:	e1a02823 	lsr	r2, r3, #16
2000dcbc:	e51b3028 	ldr	r3, [fp, #-40]	; 0xffffffd8
2000dcc0:	e5d31004 	ldrb	r1, [r3, #4]
2000dcc4:	e5d33005 	ldrb	r3, [r3, #5]
2000dcc8:	e1a03403 	lsl	r3, r3, #8
2000dccc:	e1833001 	orr	r3, r3, r1
2000dcd0:	e1a03803 	lsl	r3, r3, #16
2000dcd4:	e1a03823 	lsr	r3, r3, #16
2000dcd8:	e1520003 	cmp	r2, r3
2000dcdc:	8a0000dd 	bhi	2000e058 <ip_reass_chain_frag_into_datagram_and_validate+0x634>
2000dce0:	e51b3014 	ldr	r3, [fp, #-20]	; 0xffffffec
2000dce4:	e55b2034 	ldrb	r2, [fp, #-52]	; 0xffffffcc
2000dce8:	e3a01000 	mov	r1, #0
2000dcec:	e1812002 	orr	r2, r1, r2
2000dcf0:	e5c32000 	strb	r2, [r3]
2000dcf4:	e55b2033 	ldrb	r2, [fp, #-51]	; 0xffffffcd
2000dcf8:	e3a01000 	mov	r1, #0
2000dcfc:	e1812002 	orr	r2, r1, r2
2000dd00:	e5c32001 	strb	r2, [r3, #1]
2000dd04:	e55b2032 	ldrb	r2, [fp, #-50]	; 0xffffffce
2000dd08:	e3a01000 	mov	r1, #0
2000dd0c:	e1812002 	orr	r2, r1, r2
2000dd10:	e5c32002 	strb	r2, [r3, #2]
2000dd14:	e55b2031 	ldrb	r2, [fp, #-49]	; 0xffffffcf
2000dd18:	e3a01000 	mov	r1, #0
2000dd1c:	e1812002 	orr	r2, r1, r2
2000dd20:	e5c32003 	strb	r2, [r3, #3]
2000dd24:	ea000049 	b	2000de50 <ip_reass_chain_frag_into_datagram_and_validate+0x42c>
2000dd28:	e51b3030 	ldr	r3, [fp, #-48]	; 0xffffffd0
2000dd2c:	e51b2034 	ldr	r2, [fp, #-52]	; 0xffffffcc
2000dd30:	e5832004 	str	r2, [r3, #4]
2000dd34:	ea000045 	b	2000de50 <ip_reass_chain_frag_into_datagram_and_validate+0x42c>
2000dd38:	e51b3010 	ldr	r3, [fp, #-16]
2000dd3c:	e5d32004 	ldrb	r2, [r3, #4]
2000dd40:	e5d33005 	ldrb	r3, [r3, #5]
2000dd44:	e1a03403 	lsl	r3, r3, #8
2000dd48:	e1833002 	orr	r3, r3, r2
2000dd4c:	e1a03803 	lsl	r3, r3, #16
2000dd50:	e1a02823 	lsr	r2, r3, #16
2000dd54:	e51b3028 	ldr	r3, [fp, #-40]	; 0xffffffd8
2000dd58:	e5d31004 	ldrb	r1, [r3, #4]
2000dd5c:	e5d33005 	ldrb	r3, [r3, #5]
2000dd60:	e1a03403 	lsl	r3, r3, #8
2000dd64:	e1833001 	orr	r3, r3, r1
2000dd68:	e1a03803 	lsl	r3, r3, #16
2000dd6c:	e1a03823 	lsr	r3, r3, #16
2000dd70:	e1520003 	cmp	r2, r3
2000dd74:	0a0000b4 	beq	2000e04c <ip_reass_chain_frag_into_datagram_and_validate+0x628>
2000dd78:	e51b3010 	ldr	r3, [fp, #-16]
2000dd7c:	e5d32004 	ldrb	r2, [r3, #4]
2000dd80:	e5d33005 	ldrb	r3, [r3, #5]
2000dd84:	e1a03403 	lsl	r3, r3, #8
2000dd88:	e1833002 	orr	r3, r3, r2
2000dd8c:	e1a03803 	lsl	r3, r3, #16
2000dd90:	e1a02823 	lsr	r2, r3, #16
2000dd94:	e51b3028 	ldr	r3, [fp, #-40]	; 0xffffffd8
2000dd98:	e5d31006 	ldrb	r1, [r3, #6]
2000dd9c:	e5d33007 	ldrb	r3, [r3, #7]
2000dda0:	e1a03403 	lsl	r3, r3, #8
2000dda4:	e1833001 	orr	r3, r3, r1
2000dda8:	e1a03803 	lsl	r3, r3, #16
2000ddac:	e1a03823 	lsr	r3, r3, #16
2000ddb0:	e1520003 	cmp	r2, r3
2000ddb4:	3a0000a6 	bcc	2000e054 <ip_reass_chain_frag_into_datagram_and_validate+0x630>
2000ddb8:	e51b3014 	ldr	r3, [fp, #-20]	; 0xffffffec
2000ddbc:	e3530000 	cmp	r3, #0
2000ddc0:	0a000011 	beq	2000de0c <ip_reass_chain_frag_into_datagram_and_validate+0x3e8>
2000ddc4:	e51b3014 	ldr	r3, [fp, #-20]	; 0xffffffec
2000ddc8:	e5d32006 	ldrb	r2, [r3, #6]
2000ddcc:	e5d33007 	ldrb	r3, [r3, #7]
2000ddd0:	e1a03403 	lsl	r3, r3, #8
2000ddd4:	e1833002 	orr	r3, r3, r2
2000ddd8:	e1a03803 	lsl	r3, r3, #16
2000dddc:	e1a02823 	lsr	r2, r3, #16
2000dde0:	e51b3028 	ldr	r3, [fp, #-40]	; 0xffffffd8
2000dde4:	e5d31004 	ldrb	r1, [r3, #4]
2000dde8:	e5d33005 	ldrb	r3, [r3, #5]
2000ddec:	e1a03403 	lsl	r3, r3, #8
2000ddf0:	e1833001 	orr	r3, r3, r1
2000ddf4:	e1a03803 	lsl	r3, r3, #16
2000ddf8:	e1a03823 	lsr	r3, r3, #16
2000ddfc:	e1520003 	cmp	r2, r3
2000de00:	0a000001 	beq	2000de0c <ip_reass_chain_frag_into_datagram_and_validate+0x3e8>
2000de04:	e3a03000 	mov	r3, #0
2000de08:	e50b301c 	str	r3, [fp, #-28]	; 0xffffffe4
2000de0c:	e51b3028 	ldr	r3, [fp, #-40]	; 0xffffffd8
2000de10:	e5d32000 	ldrb	r2, [r3]
2000de14:	e5d31001 	ldrb	r1, [r3, #1]
2000de18:	e1a01401 	lsl	r1, r1, #8
2000de1c:	e1812002 	orr	r2, r1, r2
2000de20:	e5d31002 	ldrb	r1, [r3, #2]
2000de24:	e1a01801 	lsl	r1, r1, #16
2000de28:	e1812002 	orr	r2, r1, r2
2000de2c:	e5d33003 	ldrb	r3, [r3, #3]
2000de30:	e1a03c03 	lsl	r3, r3, #24
2000de34:	e1833002 	orr	r3, r3, r2
2000de38:	e50b3018 	str	r3, [fp, #-24]	; 0xffffffe8
2000de3c:	e51b3028 	ldr	r3, [fp, #-40]	; 0xffffffd8
2000de40:	e50b3014 	str	r3, [fp, #-20]	; 0xffffffec
2000de44:	e51b3018 	ldr	r3, [fp, #-24]	; 0xffffffe8
2000de48:	e3530000 	cmp	r3, #0
2000de4c:	1affff5c 	bne	2000dbc4 <ip_reass_chain_frag_into_datagram_and_validate+0x1a0>
2000de50:	e51b3018 	ldr	r3, [fp, #-24]	; 0xffffffe8
2000de54:	e3530000 	cmp	r3, #0
2000de58:	1a000029 	bne	2000df04 <ip_reass_chain_frag_into_datagram_and_validate+0x4e0>
2000de5c:	e51b3014 	ldr	r3, [fp, #-20]	; 0xffffffec
2000de60:	e3530000 	cmp	r3, #0
2000de64:	0a000023 	beq	2000def8 <ip_reass_chain_frag_into_datagram_and_validate+0x4d4>
2000de68:	e51b3014 	ldr	r3, [fp, #-20]	; 0xffffffec
2000de6c:	e55b2034 	ldrb	r2, [fp, #-52]	; 0xffffffcc
2000de70:	e3a01000 	mov	r1, #0
2000de74:	e1812002 	orr	r2, r1, r2
2000de78:	e5c32000 	strb	r2, [r3]
2000de7c:	e55b2033 	ldrb	r2, [fp, #-51]	; 0xffffffcd
2000de80:	e3a01000 	mov	r1, #0
2000de84:	e1812002 	orr	r2, r1, r2
2000de88:	e5c32001 	strb	r2, [r3, #1]
2000de8c:	e55b2032 	ldrb	r2, [fp, #-50]	; 0xffffffce
2000de90:	e3a01000 	mov	r1, #0
2000de94:	e1812002 	orr	r2, r1, r2
2000de98:	e5c32002 	strb	r2, [r3, #2]
2000de9c:	e55b2031 	ldrb	r2, [fp, #-49]	; 0xffffffcf
2000dea0:	e3a01000 	mov	r1, #0
2000dea4:	e1812002 	orr	r2, r1, r2
2000dea8:	e5c32003 	strb	r2, [r3, #3]
2000deac:	e51b3014 	ldr	r3, [fp, #-20]	; 0xffffffec
2000deb0:	e5d32006 	ldrb	r2, [r3, #6]
2000deb4:	e5d33007 	ldrb	r3, [r3, #7]
2000deb8:	e1a03403 	lsl	r3, r3, #8
2000debc:	e1833002 	orr	r3, r3, r2
2000dec0:	e1a03803 	lsl	r3, r3, #16
2000dec4:	e1a02823 	lsr	r2, r3, #16
2000dec8:	e51b3010 	ldr	r3, [fp, #-16]
2000decc:	e5d31004 	ldrb	r1, [r3, #4]
2000ded0:	e5d33005 	ldrb	r3, [r3, #5]
2000ded4:	e1a03403 	lsl	r3, r3, #8
2000ded8:	e1833001 	orr	r3, r3, r1
2000dedc:	e1a03803 	lsl	r3, r3, #16
2000dee0:	e1a03823 	lsr	r3, r3, #16
2000dee4:	e1520003 	cmp	r2, r3
2000dee8:	0a000005 	beq	2000df04 <ip_reass_chain_frag_into_datagram_and_validate+0x4e0>
2000deec:	e3a03000 	mov	r3, #0
2000def0:	e50b301c 	str	r3, [fp, #-28]	; 0xffffffe4
2000def4:	ea000002 	b	2000df04 <ip_reass_chain_frag_into_datagram_and_validate+0x4e0>
2000def8:	e51b3030 	ldr	r3, [fp, #-48]	; 0xffffffd0
2000defc:	e51b2034 	ldr	r2, [fp, #-52]	; 0xffffffcc
2000df00:	e5832004 	str	r2, [r3, #4]
2000df04:	e51b3030 	ldr	r3, [fp, #-48]	; 0xffffffd0
2000df08:	e5d3301e 	ldrb	r3, [r3, #30]
2000df0c:	e2033001 	and	r3, r3, #1
2000df10:	e3530000 	cmp	r3, #0
2000df14:	0a00004a 	beq	2000e044 <ip_reass_chain_frag_into_datagram_and_validate+0x620>
2000df18:	e51b301c 	ldr	r3, [fp, #-28]	; 0xffffffe4
2000df1c:	e3530000 	cmp	r3, #0
2000df20:	0a000045 	beq	2000e03c <ip_reass_chain_frag_into_datagram_and_validate+0x618>
2000df24:	e51b3030 	ldr	r3, [fp, #-48]	; 0xffffffd0
2000df28:	e5933004 	ldr	r3, [r3, #4]
2000df2c:	e5933004 	ldr	r3, [r3, #4]
2000df30:	e5d32004 	ldrb	r2, [r3, #4]
2000df34:	e5d33005 	ldrb	r3, [r3, #5]
2000df38:	e1a03403 	lsl	r3, r3, #8
2000df3c:	e1833002 	orr	r3, r3, r2
2000df40:	e1a03803 	lsl	r3, r3, #16
2000df44:	e1a03823 	lsr	r3, r3, #16
2000df48:	e3530000 	cmp	r3, #0
2000df4c:	0a000002 	beq	2000df5c <ip_reass_chain_frag_into_datagram_and_validate+0x538>
2000df50:	e3a03000 	mov	r3, #0
2000df54:	e50b301c 	str	r3, [fp, #-28]	; 0xffffffe4
2000df58:	ea000037 	b	2000e03c <ip_reass_chain_frag_into_datagram_and_validate+0x618>
2000df5c:	e51b3010 	ldr	r3, [fp, #-16]
2000df60:	e50b3014 	str	r3, [fp, #-20]	; 0xffffffec
2000df64:	e51b3010 	ldr	r3, [fp, #-16]
2000df68:	e5d32000 	ldrb	r2, [r3]
2000df6c:	e5d31001 	ldrb	r1, [r3, #1]
2000df70:	e1a01401 	lsl	r1, r1, #8
2000df74:	e1812002 	orr	r2, r1, r2
2000df78:	e5d31002 	ldrb	r1, [r3, #2]
2000df7c:	e1a01801 	lsl	r1, r1, #16
2000df80:	e1812002 	orr	r2, r1, r2
2000df84:	e5d33003 	ldrb	r3, [r3, #3]
2000df88:	e1a03c03 	lsl	r3, r3, #24
2000df8c:	e1833002 	orr	r3, r3, r2
2000df90:	e50b3018 	str	r3, [fp, #-24]	; 0xffffffe8
2000df94:	ea000023 	b	2000e028 <ip_reass_chain_frag_into_datagram_and_validate+0x604>
2000df98:	e51b3018 	ldr	r3, [fp, #-24]	; 0xffffffe8
2000df9c:	e5933004 	ldr	r3, [r3, #4]
2000dfa0:	e50b3010 	str	r3, [fp, #-16]
2000dfa4:	e51b3014 	ldr	r3, [fp, #-20]	; 0xffffffec
2000dfa8:	e5d32006 	ldrb	r2, [r3, #6]
2000dfac:	e5d33007 	ldrb	r3, [r3, #7]
2000dfb0:	e1a03403 	lsl	r3, r3, #8
2000dfb4:	e1833002 	orr	r3, r3, r2
2000dfb8:	e1a03803 	lsl	r3, r3, #16
2000dfbc:	e1a02823 	lsr	r2, r3, #16
2000dfc0:	e51b3010 	ldr	r3, [fp, #-16]
2000dfc4:	e5d31004 	ldrb	r1, [r3, #4]
2000dfc8:	e5d33005 	ldrb	r3, [r3, #5]
2000dfcc:	e1a03403 	lsl	r3, r3, #8
2000dfd0:	e1833001 	orr	r3, r3, r1
2000dfd4:	e1a03803 	lsl	r3, r3, #16
2000dfd8:	e1a03823 	lsr	r3, r3, #16
2000dfdc:	e1520003 	cmp	r2, r3
2000dfe0:	0a000002 	beq	2000dff0 <ip_reass_chain_frag_into_datagram_and_validate+0x5cc>
2000dfe4:	e3a03000 	mov	r3, #0
2000dfe8:	e50b301c 	str	r3, [fp, #-28]	; 0xffffffe4
2000dfec:	ea000010 	b	2000e034 <ip_reass_chain_frag_into_datagram_and_validate+0x610>
2000dff0:	e51b3010 	ldr	r3, [fp, #-16]
2000dff4:	e50b3014 	str	r3, [fp, #-20]	; 0xffffffec
2000dff8:	e51b3010 	ldr	r3, [fp, #-16]
2000dffc:	e5d32000 	ldrb	r2, [r3]
2000e000:	e5d31001 	ldrb	r1, [r3, #1]
2000e004:	e1a01401 	lsl	r1, r1, #8
2000e008:	e1812002 	orr	r2, r1, r2
2000e00c:	e5d31002 	ldrb	r1, [r3, #2]
2000e010:	e1a01801 	lsl	r1, r1, #16
2000e014:	e1812002 	orr	r2, r1, r2
2000e018:	e5d33003 	ldrb	r3, [r3, #3]
2000e01c:	e1a03c03 	lsl	r3, r3, #24
2000e020:	e1833002 	orr	r3, r3, r2
2000e024:	e50b3018 	str	r3, [fp, #-24]	; 0xffffffe8
2000e028:	e51b3018 	ldr	r3, [fp, #-24]	; 0xffffffe8
2000e02c:	e3530000 	cmp	r3, #0
2000e030:	1affffd8 	bne	2000df98 <ip_reass_chain_frag_into_datagram_and_validate+0x574>
2000e034:	e51b301c 	ldr	r3, [fp, #-28]	; 0xffffffe4
2000e038:	e3530000 	cmp	r3, #0
2000e03c:	e51b301c 	ldr	r3, [fp, #-28]	; 0xffffffe4
2000e040:	ea000014 	b	2000e098 <ip_reass_chain_frag_into_datagram_and_validate+0x674>
2000e044:	e3a03000 	mov	r3, #0
2000e048:	ea000012 	b	2000e098 <ip_reass_chain_frag_into_datagram_and_validate+0x674>
2000e04c:	e1a00000 	nop			; (mov r0, r0)
2000e050:	ea000000 	b	2000e058 <ip_reass_chain_frag_into_datagram_and_validate+0x634>
2000e054:	e1a00000 	nop			; (mov r0, r0)
2000e058:	e51b0034 	ldr	r0, [fp, #-52]	; 0xffffffcc
2000e05c:	ebffcf51 	bl	20001da8 <pbuf_clen>
2000e060:	e1a03000 	mov	r3, r0
2000e064:	e1a01003 	mov	r1, r3
2000e068:	e59f3038 	ldr	r3, [pc, #56]	; 2000e0a8 <ip_reass_chain_frag_into_datagram_and_validate+0x684>
2000e06c:	e1d320b0 	ldrh	r2, [r3]
2000e070:	e1a03801 	lsl	r3, r1, #16
2000e074:	e1a03823 	lsr	r3, r3, #16
2000e078:	e0633002 	rsb	r3, r3, r2
2000e07c:	e1a03803 	lsl	r3, r3, #16
2000e080:	e1a03823 	lsr	r3, r3, #16
2000e084:	e59f201c 	ldr	r2, [pc, #28]	; 2000e0a8 <ip_reass_chain_frag_into_datagram_and_validate+0x684>
2000e088:	e1c230b0 	strh	r3, [r2]
2000e08c:	e51b0034 	ldr	r0, [fp, #-52]	; 0xffffffcc
2000e090:	ebffcef7 	bl	20001c74 <pbuf_free>
2000e094:	e3a03000 	mov	r3, #0
2000e098:	e1a00003 	mov	r0, r3
2000e09c:	e24bd008 	sub	sp, fp, #8
2000e0a0:	e8bd4810 	pop	{r4, fp, lr}
2000e0a4:	e12fff1e 	bx	lr
2000e0a8:	20014be0 	.word	0x20014be0

2000e0ac <ip_reass>:
2000e0ac:	e92d4810 	push	{r4, fp, lr}
2000e0b0:	e28db008 	add	fp, sp, #8
2000e0b4:	e24dd02c 	sub	sp, sp, #44	; 0x2c
2000e0b8:	e50b0030 	str	r0, [fp, #-48]	; 0xffffffd0
2000e0bc:	e3a03000 	mov	r3, #0
2000e0c0:	e50b3018 	str	r3, [fp, #-24]	; 0xffffffe8
2000e0c4:	e59f3634 	ldr	r3, [pc, #1588]	; 2000e700 <ip_reass+0x654>
2000e0c8:	e1d333b2 	ldrh	r3, [r3, #50]	; 0x32
2000e0cc:	e2833001 	add	r3, r3, #1
2000e0d0:	e1a03803 	lsl	r3, r3, #16
2000e0d4:	e1a03823 	lsr	r3, r3, #16
2000e0d8:	e59f2620 	ldr	r2, [pc, #1568]	; 2000e700 <ip_reass+0x654>
2000e0dc:	e1c233b2 	strh	r3, [r2, #50]	; 0x32
2000e0e0:	e51b3030 	ldr	r3, [fp, #-48]	; 0xffffffd0
2000e0e4:	e5933004 	ldr	r3, [r3, #4]
2000e0e8:	e50b301c 	str	r3, [fp, #-28]	; 0xffffffe4
2000e0ec:	e51b301c 	ldr	r3, [fp, #-28]	; 0xffffffe4
2000e0f0:	e5d32000 	ldrb	r2, [r3]
2000e0f4:	e5d33001 	ldrb	r3, [r3, #1]
2000e0f8:	e1a03403 	lsl	r3, r3, #8
2000e0fc:	e1833002 	orr	r3, r3, r2
2000e100:	e1a03803 	lsl	r3, r3, #16
2000e104:	e1a03823 	lsr	r3, r3, #16
2000e108:	e1a00003 	mov	r0, r3
2000e10c:	ebfffc6e 	bl	2000d2cc <ntohs>
2000e110:	e1a03000 	mov	r3, r0
2000e114:	e1a03423 	lsr	r3, r3, #8
2000e118:	e1a03803 	lsl	r3, r3, #16
2000e11c:	e1a03823 	lsr	r3, r3, #16
2000e120:	e203300f 	and	r3, r3, #15
2000e124:	e1a03103 	lsl	r3, r3, #2
2000e128:	e3530014 	cmp	r3, #20
2000e12c:	0a000007 	beq	2000e150 <ip_reass+0xa4>
2000e130:	e59f35c8 	ldr	r3, [pc, #1480]	; 2000e700 <ip_reass+0x654>
2000e134:	e1d334b4 	ldrh	r3, [r3, #68]	; 0x44
2000e138:	e2833001 	add	r3, r3, #1
2000e13c:	e1a03803 	lsl	r3, r3, #16
2000e140:	e1a03823 	lsr	r3, r3, #16
2000e144:	e59f25b4 	ldr	r2, [pc, #1460]	; 2000e700 <ip_reass+0x654>
2000e148:	e1c234b4 	strh	r3, [r2, #68]	; 0x44
2000e14c:	ea00015d 	b	2000e6c8 <ip_reass+0x61c>
2000e150:	e51b301c 	ldr	r3, [fp, #-28]	; 0xffffffe4
2000e154:	e5d32006 	ldrb	r2, [r3, #6]
2000e158:	e5d33007 	ldrb	r3, [r3, #7]
2000e15c:	e1a03403 	lsl	r3, r3, #8
2000e160:	e1833002 	orr	r3, r3, r2
2000e164:	e1a03803 	lsl	r3, r3, #16
2000e168:	e1a03823 	lsr	r3, r3, #16
2000e16c:	e1a00003 	mov	r0, r3
2000e170:	ebfffc55 	bl	2000d2cc <ntohs>
2000e174:	e1a03000 	mov	r3, r0
2000e178:	e1a03983 	lsl	r3, r3, #19
2000e17c:	e1a039a3 	lsr	r3, r3, #19
2000e180:	e1a03803 	lsl	r3, r3, #16
2000e184:	e1a03823 	lsr	r3, r3, #16
2000e188:	e1a03183 	lsl	r3, r3, #3
2000e18c:	e14b31be 	strh	r3, [fp, #-30]	; 0xffffffe2
2000e190:	e51b301c 	ldr	r3, [fp, #-28]	; 0xffffffe4
2000e194:	e5d32002 	ldrb	r2, [r3, #2]
2000e198:	e5d33003 	ldrb	r3, [r3, #3]
2000e19c:	e1a03403 	lsl	r3, r3, #8
2000e1a0:	e1833002 	orr	r3, r3, r2
2000e1a4:	e1a03803 	lsl	r3, r3, #16
2000e1a8:	e1a03823 	lsr	r3, r3, #16
2000e1ac:	e1a00003 	mov	r0, r3
2000e1b0:	ebfffc45 	bl	2000d2cc <ntohs>
2000e1b4:	e1a03000 	mov	r3, r0
2000e1b8:	e1a04003 	mov	r4, r3
2000e1bc:	e51b301c 	ldr	r3, [fp, #-28]	; 0xffffffe4
2000e1c0:	e5d32000 	ldrb	r2, [r3]
2000e1c4:	e5d33001 	ldrb	r3, [r3, #1]
2000e1c8:	e1a03403 	lsl	r3, r3, #8
2000e1cc:	e1833002 	orr	r3, r3, r2
2000e1d0:	e1a03803 	lsl	r3, r3, #16
2000e1d4:	e1a03823 	lsr	r3, r3, #16
2000e1d8:	e1a00003 	mov	r0, r3
2000e1dc:	ebfffc3a 	bl	2000d2cc <ntohs>
2000e1e0:	e1a03000 	mov	r3, r0
2000e1e4:	e1a03423 	lsr	r3, r3, #8
2000e1e8:	e1a03803 	lsl	r3, r3, #16
2000e1ec:	e1a03823 	lsr	r3, r3, #16
2000e1f0:	e203300f 	and	r3, r3, #15
2000e1f4:	e1a03803 	lsl	r3, r3, #16
2000e1f8:	e1a03823 	lsr	r3, r3, #16
2000e1fc:	e1a02003 	mov	r2, r3
2000e200:	e1a02702 	lsl	r2, r2, #14
2000e204:	e0633002 	rsb	r3, r3, r2
2000e208:	e1a03103 	lsl	r3, r3, #2
2000e20c:	e1a03803 	lsl	r3, r3, #16
2000e210:	e1a03823 	lsr	r3, r3, #16
2000e214:	e0843003 	add	r3, r4, r3
2000e218:	e14b32b0 	strh	r3, [fp, #-32]	; 0xffffffe0
2000e21c:	e51b0030 	ldr	r0, [fp, #-48]	; 0xffffffd0
2000e220:	ebffcee0 	bl	20001da8 <pbuf_clen>
2000e224:	e1a03000 	mov	r3, r0
2000e228:	e54b3021 	strb	r3, [fp, #-33]	; 0xffffffdf
2000e22c:	e59f34d0 	ldr	r3, [pc, #1232]	; 2000e704 <ip_reass+0x658>
2000e230:	e1d330b0 	ldrh	r3, [r3]
2000e234:	e1a02003 	mov	r2, r3
2000e238:	e55b3021 	ldrb	r3, [fp, #-33]	; 0xffffffdf
2000e23c:	e0823003 	add	r3, r2, r3
2000e240:	e353000a 	cmp	r3, #10
2000e244:	da000015 	ble	2000e2a0 <ip_reass+0x1f4>
2000e248:	e55b3021 	ldrb	r3, [fp, #-33]	; 0xffffffdf
2000e24c:	e1a01003 	mov	r1, r3
2000e250:	e51b001c 	ldr	r0, [fp, #-28]	; 0xffffffe4
2000e254:	ebfffd2c 	bl	2000d70c <ip_reass_remove_oldest_datagram>
2000e258:	e1a03000 	mov	r3, r0
2000e25c:	e3530000 	cmp	r3, #0
2000e260:	0a000006 	beq	2000e280 <ip_reass+0x1d4>
2000e264:	e59f3498 	ldr	r3, [pc, #1176]	; 2000e704 <ip_reass+0x658>
2000e268:	e1d330b0 	ldrh	r3, [r3]
2000e26c:	e1a02003 	mov	r2, r3
2000e270:	e55b3021 	ldrb	r3, [fp, #-33]	; 0xffffffdf
2000e274:	e0823003 	add	r3, r2, r3
2000e278:	e353000a 	cmp	r3, #10
2000e27c:	da000007 	ble	2000e2a0 <ip_reass+0x1f4>
2000e280:	e59f3478 	ldr	r3, [pc, #1144]	; 2000e700 <ip_reass+0x654>
2000e284:	e1d333bc 	ldrh	r3, [r3, #60]	; 0x3c
2000e288:	e2833001 	add	r3, r3, #1
2000e28c:	e1a03803 	lsl	r3, r3, #16
2000e290:	e1a03823 	lsr	r3, r3, #16
2000e294:	e59f2464 	ldr	r2, [pc, #1124]	; 2000e700 <ip_reass+0x654>
2000e298:	e1c233bc 	strh	r3, [r2, #60]	; 0x3c
2000e29c:	ea000109 	b	2000e6c8 <ip_reass+0x61c>
2000e2a0:	e59f3460 	ldr	r3, [pc, #1120]	; 2000e708 <ip_reass+0x65c>
2000e2a4:	e5933000 	ldr	r3, [r3]
2000e2a8:	e50b3014 	str	r3, [fp, #-20]	; 0xffffffec
2000e2ac:	ea000035 	b	2000e388 <ip_reass+0x2dc>
2000e2b0:	e51b3014 	ldr	r3, [fp, #-20]	; 0xffffffec
2000e2b4:	e5932014 	ldr	r2, [r3, #20]
2000e2b8:	e51b301c 	ldr	r3, [fp, #-28]	; 0xffffffe4
2000e2bc:	e5d3100c 	ldrb	r1, [r3, #12]
2000e2c0:	e5d3000d 	ldrb	r0, [r3, #13]
2000e2c4:	e1a00400 	lsl	r0, r0, #8
2000e2c8:	e1801001 	orr	r1, r0, r1
2000e2cc:	e5d3000e 	ldrb	r0, [r3, #14]
2000e2d0:	e1a00800 	lsl	r0, r0, #16
2000e2d4:	e1801001 	orr	r1, r0, r1
2000e2d8:	e5d3300f 	ldrb	r3, [r3, #15]
2000e2dc:	e1a03c03 	lsl	r3, r3, #24
2000e2e0:	e1833001 	orr	r3, r3, r1
2000e2e4:	e1520003 	cmp	r2, r3
2000e2e8:	1a000021 	bne	2000e374 <ip_reass+0x2c8>
2000e2ec:	e51b3014 	ldr	r3, [fp, #-20]	; 0xffffffec
2000e2f0:	e5932018 	ldr	r2, [r3, #24]
2000e2f4:	e51b301c 	ldr	r3, [fp, #-28]	; 0xffffffe4
2000e2f8:	e5d31010 	ldrb	r1, [r3, #16]
2000e2fc:	e5d30011 	ldrb	r0, [r3, #17]
2000e300:	e1a00400 	lsl	r0, r0, #8
2000e304:	e1801001 	orr	r1, r0, r1
2000e308:	e5d30012 	ldrb	r0, [r3, #18]
2000e30c:	e1a00800 	lsl	r0, r0, #16
2000e310:	e1801001 	orr	r1, r0, r1
2000e314:	e5d33013 	ldrb	r3, [r3, #19]
2000e318:	e1a03c03 	lsl	r3, r3, #24
2000e31c:	e1833001 	orr	r3, r3, r1
2000e320:	e1520003 	cmp	r2, r3
2000e324:	1a000012 	bne	2000e374 <ip_reass+0x2c8>
2000e328:	e51b3014 	ldr	r3, [fp, #-20]	; 0xffffffec
2000e32c:	e1d320bc 	ldrh	r2, [r3, #12]
2000e330:	e51b301c 	ldr	r3, [fp, #-28]	; 0xffffffe4
2000e334:	e5d31004 	ldrb	r1, [r3, #4]
2000e338:	e5d33005 	ldrb	r3, [r3, #5]
2000e33c:	e1a03403 	lsl	r3, r3, #8
2000e340:	e1833001 	orr	r3, r3, r1
2000e344:	e1a03803 	lsl	r3, r3, #16
2000e348:	e1a03823 	lsr	r3, r3, #16
2000e34c:	e1520003 	cmp	r2, r3
2000e350:	1a000007 	bne	2000e374 <ip_reass+0x2c8>
2000e354:	e59f33a4 	ldr	r3, [pc, #932]	; 2000e700 <ip_reass+0x654>
2000e358:	e1d334b6 	ldrh	r3, [r3, #70]	; 0x46
2000e35c:	e2833001 	add	r3, r3, #1
2000e360:	e1a03803 	lsl	r3, r3, #16
2000e364:	e1a03823 	lsr	r3, r3, #16
2000e368:	e59f2390 	ldr	r2, [pc, #912]	; 2000e700 <ip_reass+0x654>
2000e36c:	e1c234b6 	strh	r3, [r2, #70]	; 0x46
2000e370:	ea000007 	b	2000e394 <ip_reass+0x2e8>
2000e374:	e51b3014 	ldr	r3, [fp, #-20]	; 0xffffffec
2000e378:	e50b3018 	str	r3, [fp, #-24]	; 0xffffffe8
2000e37c:	e51b3014 	ldr	r3, [fp, #-20]	; 0xffffffec
2000e380:	e5933000 	ldr	r3, [r3]
2000e384:	e50b3014 	str	r3, [fp, #-20]	; 0xffffffec
2000e388:	e51b3014 	ldr	r3, [fp, #-20]	; 0xffffffec
2000e38c:	e3530000 	cmp	r3, #0
2000e390:	1affffc6 	bne	2000e2b0 <ip_reass+0x204>
2000e394:	e51b3014 	ldr	r3, [fp, #-20]	; 0xffffffec
2000e398:	e3530000 	cmp	r3, #0
2000e39c:	1a000008 	bne	2000e3c4 <ip_reass+0x318>
2000e3a0:	e55b3021 	ldrb	r3, [fp, #-33]	; 0xffffffdf
2000e3a4:	e1a01003 	mov	r1, r3
2000e3a8:	e51b001c 	ldr	r0, [fp, #-28]	; 0xffffffe4
2000e3ac:	ebfffd45 	bl	2000d8c8 <ip_reass_enqueue_new_datagram>
2000e3b0:	e50b0014 	str	r0, [fp, #-20]	; 0xffffffec
2000e3b4:	e51b3014 	ldr	r3, [fp, #-20]	; 0xffffffec
2000e3b8:	e3530000 	cmp	r3, #0
2000e3bc:	1a00001d 	bne	2000e438 <ip_reass+0x38c>
2000e3c0:	ea0000c0 	b	2000e6c8 <ip_reass+0x61c>
2000e3c4:	e51b301c 	ldr	r3, [fp, #-28]	; 0xffffffe4
2000e3c8:	e5d32006 	ldrb	r2, [r3, #6]
2000e3cc:	e5d33007 	ldrb	r3, [r3, #7]
2000e3d0:	e1a03403 	lsl	r3, r3, #8
2000e3d4:	e1833002 	orr	r3, r3, r2
2000e3d8:	e1a03803 	lsl	r3, r3, #16
2000e3dc:	e1a03823 	lsr	r3, r3, #16
2000e3e0:	e1a00003 	mov	r0, r3
2000e3e4:	ebfffbb8 	bl	2000d2cc <ntohs>
2000e3e8:	e1a03000 	mov	r3, r0
2000e3ec:	e1a03983 	lsl	r3, r3, #19
2000e3f0:	e1a039a3 	lsr	r3, r3, #19
2000e3f4:	e3530000 	cmp	r3, #0
2000e3f8:	1a00000e 	bne	2000e438 <ip_reass+0x38c>
2000e3fc:	e51b3014 	ldr	r3, [fp, #-20]	; 0xffffffec
2000e400:	e1d330be 	ldrh	r3, [r3, #14]
2000e404:	e1a00003 	mov	r0, r3
2000e408:	ebfffbaf 	bl	2000d2cc <ntohs>
2000e40c:	e1a03000 	mov	r3, r0
2000e410:	e1a03983 	lsl	r3, r3, #19
2000e414:	e1a039a3 	lsr	r3, r3, #19
2000e418:	e3530000 	cmp	r3, #0
2000e41c:	0a000005 	beq	2000e438 <ip_reass+0x38c>
2000e420:	e51b3014 	ldr	r3, [fp, #-20]	; 0xffffffec
2000e424:	e2833008 	add	r3, r3, #8
2000e428:	e3a02014 	mov	r2, #20
2000e42c:	e51b101c 	ldr	r1, [fp, #-28]	; 0xffffffe4
2000e430:	e1a00003 	mov	r0, r3
2000e434:	eb0015e4 	bl	20013bcc <__rom_data_end>
2000e438:	e55b3021 	ldrb	r3, [fp, #-33]	; 0xffffffdf
2000e43c:	e1a03803 	lsl	r3, r3, #16
2000e440:	e1a02823 	lsr	r2, r3, #16
2000e444:	e59f32b8 	ldr	r3, [pc, #696]	; 2000e704 <ip_reass+0x658>
2000e448:	e1d330b0 	ldrh	r3, [r3]
2000e44c:	e0823003 	add	r3, r2, r3
2000e450:	e1a03803 	lsl	r3, r3, #16
2000e454:	e1a03823 	lsr	r3, r3, #16
2000e458:	e59f22a4 	ldr	r2, [pc, #676]	; 2000e704 <ip_reass+0x658>
2000e45c:	e1c230b0 	strh	r3, [r2]
2000e460:	e51b301c 	ldr	r3, [fp, #-28]	; 0xffffffe4
2000e464:	e5d32006 	ldrb	r2, [r3, #6]
2000e468:	e5d33007 	ldrb	r3, [r3, #7]
2000e46c:	e1a03403 	lsl	r3, r3, #8
2000e470:	e1833002 	orr	r3, r3, r2
2000e474:	e1a03803 	lsl	r3, r3, #16
2000e478:	e1a03823 	lsr	r3, r3, #16
2000e47c:	e1a00003 	mov	r0, r3
2000e480:	ebfffb91 	bl	2000d2cc <ntohs>
2000e484:	e1a03000 	mov	r3, r0
2000e488:	e2033a02 	and	r3, r3, #8192	; 0x2000
2000e48c:	e3530000 	cmp	r3, #0
2000e490:	1a00000c 	bne	2000e4c8 <ip_reass+0x41c>
2000e494:	e51b3014 	ldr	r3, [fp, #-20]	; 0xffffffec
2000e498:	e5d3301e 	ldrb	r3, [r3, #30]
2000e49c:	e3833001 	orr	r3, r3, #1
2000e4a0:	e20320ff 	and	r2, r3, #255	; 0xff
2000e4a4:	e51b3014 	ldr	r3, [fp, #-20]	; 0xffffffec
2000e4a8:	e5c3201e 	strb	r2, [r3, #30]
2000e4ac:	e15b21be 	ldrh	r2, [fp, #-30]	; 0xffffffe2
2000e4b0:	e15b32b0 	ldrh	r3, [fp, #-32]	; 0xffffffe0
2000e4b4:	e0823003 	add	r3, r2, r3
2000e4b8:	e1a03803 	lsl	r3, r3, #16
2000e4bc:	e1a02823 	lsr	r2, r3, #16
2000e4c0:	e51b3014 	ldr	r3, [fp, #-20]	; 0xffffffec
2000e4c4:	e1c321bc 	strh	r2, [r3, #28]
2000e4c8:	e51b1030 	ldr	r1, [fp, #-48]	; 0xffffffd0
2000e4cc:	e51b0014 	ldr	r0, [fp, #-20]	; 0xffffffec
2000e4d0:	ebfffd53 	bl	2000da24 <ip_reass_chain_frag_into_datagram_and_validate>
2000e4d4:	e1a03000 	mov	r3, r0
2000e4d8:	e3530000 	cmp	r3, #0
2000e4dc:	0a000077 	beq	2000e6c0 <ip_reass+0x614>
2000e4e0:	e51b3014 	ldr	r3, [fp, #-20]	; 0xffffffec
2000e4e4:	e1d331bc 	ldrh	r3, [r3, #28]
2000e4e8:	e2833014 	add	r3, r3, #20
2000e4ec:	e1a03803 	lsl	r3, r3, #16
2000e4f0:	e1a02823 	lsr	r2, r3, #16
2000e4f4:	e51b3014 	ldr	r3, [fp, #-20]	; 0xffffffec
2000e4f8:	e1c321bc 	strh	r2, [r3, #28]
2000e4fc:	e51b3014 	ldr	r3, [fp, #-20]	; 0xffffffec
2000e500:	e5933004 	ldr	r3, [r3, #4]
2000e504:	e5933004 	ldr	r3, [r3, #4]
2000e508:	e5d32000 	ldrb	r2, [r3]
2000e50c:	e5d31001 	ldrb	r1, [r3, #1]
2000e510:	e1a01401 	lsl	r1, r1, #8
2000e514:	e1812002 	orr	r2, r1, r2
2000e518:	e5d31002 	ldrb	r1, [r3, #2]
2000e51c:	e1a01801 	lsl	r1, r1, #16
2000e520:	e1812002 	orr	r2, r1, r2
2000e524:	e5d33003 	ldrb	r3, [r3, #3]
2000e528:	e1a03c03 	lsl	r3, r3, #24
2000e52c:	e1833002 	orr	r3, r3, r2
2000e530:	e50b3010 	str	r3, [fp, #-16]
2000e534:	e51b3014 	ldr	r3, [fp, #-20]	; 0xffffffec
2000e538:	e5933004 	ldr	r3, [r3, #4]
2000e53c:	e5933004 	ldr	r3, [r3, #4]
2000e540:	e50b301c 	str	r3, [fp, #-28]	; 0xffffffe4
2000e544:	e51b3014 	ldr	r3, [fp, #-20]	; 0xffffffec
2000e548:	e2833008 	add	r3, r3, #8
2000e54c:	e3a02014 	mov	r2, #20
2000e550:	e1a01003 	mov	r1, r3
2000e554:	e51b001c 	ldr	r0, [fp, #-28]	; 0xffffffe4
2000e558:	eb00159b 	bl	20013bcc <__rom_data_end>
2000e55c:	e51b3014 	ldr	r3, [fp, #-20]	; 0xffffffec
2000e560:	e1d331bc 	ldrh	r3, [r3, #28]
2000e564:	e1a00003 	mov	r0, r3
2000e568:	ebfffb3f 	bl	2000d26c <htons>
2000e56c:	e1a03000 	mov	r3, r0
2000e570:	e1a02003 	mov	r2, r3
2000e574:	e51b301c 	ldr	r3, [fp, #-28]	; 0xffffffe4
2000e578:	e20210ff 	and	r1, r2, #255	; 0xff
2000e57c:	e3a00000 	mov	r0, #0
2000e580:	e1801001 	orr	r1, r0, r1
2000e584:	e5c31002 	strb	r1, [r3, #2]
2000e588:	e1a02422 	lsr	r2, r2, #8
2000e58c:	e1a02802 	lsl	r2, r2, #16
2000e590:	e1a02822 	lsr	r2, r2, #16
2000e594:	e3a01000 	mov	r1, #0
2000e598:	e1812002 	orr	r2, r1, r2
2000e59c:	e5c32003 	strb	r2, [r3, #3]
2000e5a0:	e51b301c 	ldr	r3, [fp, #-28]	; 0xffffffe4
2000e5a4:	e3a02000 	mov	r2, #0
2000e5a8:	e5c32006 	strb	r2, [r3, #6]
2000e5ac:	e3a02000 	mov	r2, #0
2000e5b0:	e5c32007 	strb	r2, [r3, #7]
2000e5b4:	e51b301c 	ldr	r3, [fp, #-28]	; 0xffffffe4
2000e5b8:	e3a02000 	mov	r2, #0
2000e5bc:	e5c3200a 	strb	r2, [r3, #10]
2000e5c0:	e3a02000 	mov	r2, #0
2000e5c4:	e5c3200b 	strb	r2, [r3, #11]
2000e5c8:	e3a01014 	mov	r1, #20
2000e5cc:	e51b001c 	ldr	r0, [fp, #-28]	; 0xffffffe4
2000e5d0:	eb00023a 	bl	2000eec0 <inet_chksum>
2000e5d4:	e1a03000 	mov	r3, r0
2000e5d8:	e1a02003 	mov	r2, r3
2000e5dc:	e51b301c 	ldr	r3, [fp, #-28]	; 0xffffffe4
2000e5e0:	e20210ff 	and	r1, r2, #255	; 0xff
2000e5e4:	e3a00000 	mov	r0, #0
2000e5e8:	e1801001 	orr	r1, r0, r1
2000e5ec:	e5c3100a 	strb	r1, [r3, #10]
2000e5f0:	e1a02422 	lsr	r2, r2, #8
2000e5f4:	e1a02802 	lsl	r2, r2, #16
2000e5f8:	e1a02822 	lsr	r2, r2, #16
2000e5fc:	e3a01000 	mov	r1, #0
2000e600:	e1812002 	orr	r2, r1, r2
2000e604:	e5c3200b 	strb	r2, [r3, #11]
2000e608:	e51b3014 	ldr	r3, [fp, #-20]	; 0xffffffec
2000e60c:	e5933004 	ldr	r3, [r3, #4]
2000e610:	e50b3030 	str	r3, [fp, #-48]	; 0xffffffd0
2000e614:	ea000014 	b	2000e66c <ip_reass+0x5c0>
2000e618:	e51b3010 	ldr	r3, [fp, #-16]
2000e61c:	e5933004 	ldr	r3, [r3, #4]
2000e620:	e50b3028 	str	r3, [fp, #-40]	; 0xffffffd8
2000e624:	e3e01013 	mvn	r1, #19
2000e628:	e51b0010 	ldr	r0, [fp, #-16]
2000e62c:	ebffcd26 	bl	20001acc <pbuf_header>
2000e630:	e51b1010 	ldr	r1, [fp, #-16]
2000e634:	e51b0030 	ldr	r0, [fp, #-48]	; 0xffffffd0
2000e638:	ebffce01 	bl	20001e44 <pbuf_cat>
2000e63c:	e51b3028 	ldr	r3, [fp, #-40]	; 0xffffffd8
2000e640:	e5d32000 	ldrb	r2, [r3]
2000e644:	e5d31001 	ldrb	r1, [r3, #1]
2000e648:	e1a01401 	lsl	r1, r1, #8
2000e64c:	e1812002 	orr	r2, r1, r2
2000e650:	e5d31002 	ldrb	r1, [r3, #2]
2000e654:	e1a01801 	lsl	r1, r1, #16
2000e658:	e1812002 	orr	r2, r1, r2
2000e65c:	e5d33003 	ldrb	r3, [r3, #3]
2000e660:	e1a03c03 	lsl	r3, r3, #24
2000e664:	e1833002 	orr	r3, r3, r2
2000e668:	e50b3010 	str	r3, [fp, #-16]
2000e66c:	e51b3010 	ldr	r3, [fp, #-16]
2000e670:	e3530000 	cmp	r3, #0
2000e674:	1affffe7 	bne	2000e618 <ip_reass+0x56c>
2000e678:	e51b1018 	ldr	r1, [fp, #-24]	; 0xffffffe8
2000e67c:	e51b0014 	ldr	r0, [fp, #-20]	; 0xffffffec
2000e680:	ebfffccc 	bl	2000d9b8 <ip_reass_dequeue_datagram>
2000e684:	e51b0030 	ldr	r0, [fp, #-48]	; 0xffffffd0
2000e688:	ebffcdc6 	bl	20001da8 <pbuf_clen>
2000e68c:	e1a03000 	mov	r3, r0
2000e690:	e1a01003 	mov	r1, r3
2000e694:	e59f3068 	ldr	r3, [pc, #104]	; 2000e704 <ip_reass+0x658>
2000e698:	e1d320b0 	ldrh	r2, [r3]
2000e69c:	e1a03801 	lsl	r3, r1, #16
2000e6a0:	e1a03823 	lsr	r3, r3, #16
2000e6a4:	e0633002 	rsb	r3, r3, r2
2000e6a8:	e1a03803 	lsl	r3, r3, #16
2000e6ac:	e1a03823 	lsr	r3, r3, #16
2000e6b0:	e59f204c 	ldr	r2, [pc, #76]	; 2000e704 <ip_reass+0x658>
2000e6b4:	e1c230b0 	strh	r3, [r2]
2000e6b8:	e51b3030 	ldr	r3, [fp, #-48]	; 0xffffffd0
2000e6bc:	ea00000b 	b	2000e6f0 <ip_reass+0x644>
2000e6c0:	e3a03000 	mov	r3, #0
2000e6c4:	ea000009 	b	2000e6f0 <ip_reass+0x644>
2000e6c8:	e59f3030 	ldr	r3, [pc, #48]	; 2000e700 <ip_reass+0x654>
2000e6cc:	e1d333b6 	ldrh	r3, [r3, #54]	; 0x36
2000e6d0:	e2833001 	add	r3, r3, #1
2000e6d4:	e1a03803 	lsl	r3, r3, #16
2000e6d8:	e1a03823 	lsr	r3, r3, #16
2000e6dc:	e59f201c 	ldr	r2, [pc, #28]	; 2000e700 <ip_reass+0x654>
2000e6e0:	e1c233b6 	strh	r3, [r2, #54]	; 0x36
2000e6e4:	e51b0030 	ldr	r0, [fp, #-48]	; 0xffffffd0
2000e6e8:	ebffcd61 	bl	20001c74 <pbuf_free>
2000e6ec:	e3a03000 	mov	r3, #0
2000e6f0:	e1a00003 	mov	r0, r3
2000e6f4:	e24bd008 	sub	sp, fp, #8
2000e6f8:	e8bd4810 	pop	{r4, fp, lr}
2000e6fc:	e12fff1e 	bx	lr
2000e700:	20015630 	.word	0x20015630
2000e704:	20014be0 	.word	0x20014be0
2000e708:	20014bdc 	.word	0x20014bdc

2000e70c <ip_frag>:
2000e70c:	e92d4800 	push	{fp, lr}
2000e710:	e28db004 	add	fp, sp, #4
2000e714:	e24dd030 	sub	sp, sp, #48	; 0x30
2000e718:	e50b0028 	str	r0, [fp, #-40]	; 0xffffffd8
2000e71c:	e50b102c 	str	r1, [fp, #-44]	; 0xffffffd4
2000e720:	e50b2030 	str	r2, [fp, #-48]	; 0xffffffd0
2000e724:	e51b302c 	ldr	r3, [fp, #-44]	; 0xffffffd4
2000e728:	e1d332b0 	ldrh	r3, [r3, #32]
2000e72c:	e14b30be 	strh	r3, [fp, #-14]
2000e730:	e3a03014 	mov	r3, #20
2000e734:	e14b30ba 	strh	r3, [fp, #-10]
2000e738:	e3a02002 	mov	r2, #2
2000e73c:	e3a01000 	mov	r1, #0
2000e740:	e3a00002 	mov	r0, #2
2000e744:	ebffcb92 	bl	20001594 <pbuf_alloc>
2000e748:	e50b0014 	str	r0, [fp, #-20]	; 0xffffffec
2000e74c:	e51b3014 	ldr	r3, [fp, #-20]	; 0xffffffec
2000e750:	e3530000 	cmp	r3, #0
2000e754:	1a000001 	bne	2000e760 <ip_frag+0x54>
2000e758:	e3a030ff 	mov	r3, #255	; 0xff
2000e75c:	ea0000cf 	b	2000eaa0 <ip_frag+0x394>
2000e760:	e51b3014 	ldr	r3, [fp, #-20]	; 0xffffffec
2000e764:	e15b20be 	ldrh	r2, [fp, #-14]
2000e768:	e1c320ba 	strh	r2, [r3, #10]
2000e76c:	e51b3014 	ldr	r3, [fp, #-20]	; 0xffffffec
2000e770:	e1d320ba 	ldrh	r2, [r3, #10]
2000e774:	e51b3014 	ldr	r3, [fp, #-20]	; 0xffffffec
2000e778:	e1c320b8 	strh	r2, [r3, #8]
2000e77c:	e59f3334 	ldr	r3, [pc, #820]	; 2000eab8 <ip_frag+0x3ac>
2000e780:	e2833003 	add	r3, r3, #3
2000e784:	e3c33003 	bic	r3, r3, #3
2000e788:	e1a02003 	mov	r2, r3
2000e78c:	e51b3014 	ldr	r3, [fp, #-20]	; 0xffffffec
2000e790:	e5832004 	str	r2, [r3, #4]
2000e794:	e51b3014 	ldr	r3, [fp, #-20]	; 0xffffffec
2000e798:	e5933004 	ldr	r3, [r3, #4]
2000e79c:	e50b3018 	str	r3, [fp, #-24]	; 0xffffffe8
2000e7a0:	e51b3028 	ldr	r3, [fp, #-40]	; 0xffffffd8
2000e7a4:	e5933004 	ldr	r3, [r3, #4]
2000e7a8:	e3a02014 	mov	r2, #20
2000e7ac:	e1a01003 	mov	r1, r3
2000e7b0:	e51b0018 	ldr	r0, [fp, #-24]	; 0xffffffe8
2000e7b4:	eb001504 	bl	20013bcc <__rom_data_end>
2000e7b8:	e51b3018 	ldr	r3, [fp, #-24]	; 0xffffffe8
2000e7bc:	e5d32006 	ldrb	r2, [r3, #6]
2000e7c0:	e5d33007 	ldrb	r3, [r3, #7]
2000e7c4:	e1a03403 	lsl	r3, r3, #8
2000e7c8:	e1833002 	orr	r3, r3, r2
2000e7cc:	e1a03803 	lsl	r3, r3, #16
2000e7d0:	e1a03823 	lsr	r3, r3, #16
2000e7d4:	e1a00003 	mov	r0, r3
2000e7d8:	ebfffabb 	bl	2000d2cc <ntohs>
2000e7dc:	e1a03000 	mov	r3, r0
2000e7e0:	e14b30bc 	strh	r3, [fp, #-12]
2000e7e4:	e15b30bc 	ldrh	r3, [fp, #-12]
2000e7e8:	e1a03983 	lsl	r3, r3, #19
2000e7ec:	e1a039a3 	lsr	r3, r3, #19
2000e7f0:	e14b30b8 	strh	r3, [fp, #-8]
2000e7f4:	e15b30bc 	ldrh	r3, [fp, #-12]
2000e7f8:	e2033a02 	and	r3, r3, #8192	; 0x2000
2000e7fc:	e14b31ba 	strh	r3, [fp, #-26]	; 0xffffffe6
2000e800:	e51b3028 	ldr	r3, [fp, #-40]	; 0xffffffd8
2000e804:	e1d330b8 	ldrh	r3, [r3, #8]
2000e808:	e2433014 	sub	r3, r3, #20
2000e80c:	e14b30b6 	strh	r3, [fp, #-6]
2000e810:	e15b30be 	ldrh	r3, [fp, #-14]
2000e814:	e2433014 	sub	r3, r3, #20
2000e818:	e2832007 	add	r2, r3, #7
2000e81c:	e3530000 	cmp	r3, #0
2000e820:	b1a03002 	movlt	r3, r2
2000e824:	a1a03003 	movge	r3, r3
2000e828:	e1a031c3 	asr	r3, r3, #3
2000e82c:	e14b31bc 	strh	r3, [fp, #-28]	; 0xffffffe4
2000e830:	ea000094 	b	2000ea88 <ip_frag+0x37c>
2000e834:	e15b20b6 	ldrh	r2, [fp, #-6]
2000e838:	e15b30be 	ldrh	r3, [fp, #-14]
2000e83c:	e2433014 	sub	r3, r3, #20
2000e840:	e1520003 	cmp	r2, r3
2000e844:	d3a03001 	movle	r3, #1
2000e848:	c3a03000 	movgt	r3, #0
2000e84c:	e20330ff 	and	r3, r3, #255	; 0xff
2000e850:	e14b31be 	strh	r3, [fp, #-30]	; 0xffffffe2
2000e854:	e15b30b8 	ldrh	r3, [fp, #-8]
2000e858:	e1a03983 	lsl	r3, r3, #19
2000e85c:	e1a039a3 	lsr	r3, r3, #19
2000e860:	e1a03803 	lsl	r3, r3, #16
2000e864:	e1a02823 	lsr	r2, r3, #16
2000e868:	e15b31ba 	ldrh	r3, [fp, #-26]	; 0xffffffe6
2000e86c:	e1823003 	orr	r3, r2, r3
2000e870:	e14b30bc 	strh	r3, [fp, #-12]
2000e874:	e15b31be 	ldrh	r3, [fp, #-30]	; 0xffffffe2
2000e878:	e3530000 	cmp	r3, #0
2000e87c:	1a000002 	bne	2000e88c <ip_frag+0x180>
2000e880:	e15b30bc 	ldrh	r3, [fp, #-12]
2000e884:	e3833a02 	orr	r3, r3, #8192	; 0x2000
2000e888:	e14b30bc 	strh	r3, [fp, #-12]
2000e88c:	e15b31be 	ldrh	r3, [fp, #-30]	; 0xffffffe2
2000e890:	e3530000 	cmp	r3, #0
2000e894:	1a000004 	bne	2000e8ac <ip_frag+0x1a0>
2000e898:	e15b31bc 	ldrh	r3, [fp, #-28]	; 0xffffffe4
2000e89c:	e1a03183 	lsl	r3, r3, #3
2000e8a0:	e1a03803 	lsl	r3, r3, #16
2000e8a4:	e1a03823 	lsr	r3, r3, #16
2000e8a8:	ea000000 	b	2000e8b0 <ip_frag+0x1a4>
2000e8ac:	e15b30b6 	ldrh	r3, [fp, #-6]
2000e8b0:	e14b32b0 	strh	r3, [fp, #-32]	; 0xffffffe0
2000e8b4:	e51b3018 	ldr	r3, [fp, #-24]	; 0xffffffe8
2000e8b8:	e2831014 	add	r1, r3, #20
2000e8bc:	e15b30ba 	ldrh	r3, [fp, #-10]
2000e8c0:	e15b22b0 	ldrh	r2, [fp, #-32]	; 0xffffffe0
2000e8c4:	e51b0028 	ldr	r0, [fp, #-40]	; 0xffffffd8
2000e8c8:	ebffce41 	bl	200021d4 <pbuf_copy_partial>
2000e8cc:	e1a03000 	mov	r3, r0
2000e8d0:	e1a02003 	mov	r2, r3
2000e8d4:	e15b30ba 	ldrh	r3, [fp, #-10]
2000e8d8:	e0823003 	add	r3, r2, r3
2000e8dc:	e14b30ba 	strh	r3, [fp, #-10]
2000e8e0:	e15b30bc 	ldrh	r3, [fp, #-12]
2000e8e4:	e1a00003 	mov	r0, r3
2000e8e8:	ebfffa5f 	bl	2000d26c <htons>
2000e8ec:	e1a03000 	mov	r3, r0
2000e8f0:	e1a02003 	mov	r2, r3
2000e8f4:	e51b3018 	ldr	r3, [fp, #-24]	; 0xffffffe8
2000e8f8:	e20210ff 	and	r1, r2, #255	; 0xff
2000e8fc:	e3a00000 	mov	r0, #0
2000e900:	e1801001 	orr	r1, r0, r1
2000e904:	e5c31006 	strb	r1, [r3, #6]
2000e908:	e1a02422 	lsr	r2, r2, #8
2000e90c:	e1a02802 	lsl	r2, r2, #16
2000e910:	e1a02822 	lsr	r2, r2, #16
2000e914:	e3a01000 	mov	r1, #0
2000e918:	e1812002 	orr	r2, r1, r2
2000e91c:	e5c32007 	strb	r2, [r3, #7]
2000e920:	e15b32b0 	ldrh	r3, [fp, #-32]	; 0xffffffe0
2000e924:	e2833014 	add	r3, r3, #20
2000e928:	e1a03803 	lsl	r3, r3, #16
2000e92c:	e1a03823 	lsr	r3, r3, #16
2000e930:	e1a00003 	mov	r0, r3
2000e934:	ebfffa4c 	bl	2000d26c <htons>
2000e938:	e1a03000 	mov	r3, r0
2000e93c:	e1a02003 	mov	r2, r3
2000e940:	e51b3018 	ldr	r3, [fp, #-24]	; 0xffffffe8
2000e944:	e20210ff 	and	r1, r2, #255	; 0xff
2000e948:	e3a00000 	mov	r0, #0
2000e94c:	e1801001 	orr	r1, r0, r1
2000e950:	e5c31002 	strb	r1, [r3, #2]
2000e954:	e1a02422 	lsr	r2, r2, #8
2000e958:	e1a02802 	lsl	r2, r2, #16
2000e95c:	e1a02822 	lsr	r2, r2, #16
2000e960:	e3a01000 	mov	r1, #0
2000e964:	e1812002 	orr	r2, r1, r2
2000e968:	e5c32003 	strb	r2, [r3, #3]
2000e96c:	e51b3018 	ldr	r3, [fp, #-24]	; 0xffffffe8
2000e970:	e3a02000 	mov	r2, #0
2000e974:	e5c3200a 	strb	r2, [r3, #10]
2000e978:	e3a02000 	mov	r2, #0
2000e97c:	e5c3200b 	strb	r2, [r3, #11]
2000e980:	e3a01014 	mov	r1, #20
2000e984:	e51b0018 	ldr	r0, [fp, #-24]	; 0xffffffe8
2000e988:	eb00014c 	bl	2000eec0 <inet_chksum>
2000e98c:	e1a03000 	mov	r3, r0
2000e990:	e1a02003 	mov	r2, r3
2000e994:	e51b3018 	ldr	r3, [fp, #-24]	; 0xffffffe8
2000e998:	e20210ff 	and	r1, r2, #255	; 0xff
2000e99c:	e3a00000 	mov	r0, #0
2000e9a0:	e1801001 	orr	r1, r0, r1
2000e9a4:	e5c3100a 	strb	r1, [r3, #10]
2000e9a8:	e1a02422 	lsr	r2, r2, #8
2000e9ac:	e1a02802 	lsl	r2, r2, #16
2000e9b0:	e1a02822 	lsr	r2, r2, #16
2000e9b4:	e3a01000 	mov	r1, #0
2000e9b8:	e1812002 	orr	r2, r1, r2
2000e9bc:	e5c3200b 	strb	r2, [r3, #11]
2000e9c0:	e15b31be 	ldrh	r3, [fp, #-30]	; 0xffffffe2
2000e9c4:	e3530000 	cmp	r3, #0
2000e9c8:	0a000006 	beq	2000e9e8 <ip_frag+0x2dc>
2000e9cc:	e15b30b6 	ldrh	r3, [fp, #-6]
2000e9d0:	e2833014 	add	r3, r3, #20
2000e9d4:	e1a03803 	lsl	r3, r3, #16
2000e9d8:	e1a03823 	lsr	r3, r3, #16
2000e9dc:	e1a01003 	mov	r1, r3
2000e9e0:	e51b0014 	ldr	r0, [fp, #-20]	; 0xffffffec
2000e9e4:	ebffcbd2 	bl	20001934 <pbuf_realloc>
2000e9e8:	e3a02000 	mov	r2, #0
2000e9ec:	e3a01000 	mov	r1, #0
2000e9f0:	e3a00002 	mov	r0, #2
2000e9f4:	ebffcae6 	bl	20001594 <pbuf_alloc>
2000e9f8:	e50b0024 	str	r0, [fp, #-36]	; 0xffffffdc
2000e9fc:	e51b3024 	ldr	r3, [fp, #-36]	; 0xffffffdc
2000ea00:	e3530000 	cmp	r3, #0
2000ea04:	0a000013 	beq	2000ea58 <ip_frag+0x34c>
2000ea08:	e51b1014 	ldr	r1, [fp, #-20]	; 0xffffffec
2000ea0c:	e51b0024 	ldr	r0, [fp, #-36]	; 0xffffffdc
2000ea10:	ebffcd3a 	bl	20001f00 <pbuf_chain>
2000ea14:	e51b302c 	ldr	r3, [fp, #-44]	; 0xffffffd4
2000ea18:	e5933014 	ldr	r3, [r3, #20]
2000ea1c:	e51b2030 	ldr	r2, [fp, #-48]	; 0xffffffd0
2000ea20:	e51b1024 	ldr	r1, [fp, #-36]	; 0xffffffdc
2000ea24:	e51b002c 	ldr	r0, [fp, #-44]	; 0xffffffd4
2000ea28:	e1a0e00f 	mov	lr, pc
2000ea2c:	e12fff13 	bx	r3
2000ea30:	e59f3084 	ldr	r3, [pc, #132]	; 2000eabc <ip_frag+0x3b0>
2000ea34:	e1d333b0 	ldrh	r3, [r3, #48]	; 0x30
2000ea38:	e2833001 	add	r3, r3, #1
2000ea3c:	e1a03803 	lsl	r3, r3, #16
2000ea40:	e1a03823 	lsr	r3, r3, #16
2000ea44:	e59f2070 	ldr	r2, [pc, #112]	; 2000eabc <ip_frag+0x3b0>
2000ea48:	e1c233b0 	strh	r3, [r2, #48]	; 0x30
2000ea4c:	e51b0024 	ldr	r0, [fp, #-36]	; 0xffffffdc
2000ea50:	ebffcc87 	bl	20001c74 <pbuf_free>
2000ea54:	ea000003 	b	2000ea68 <ip_frag+0x35c>
2000ea58:	e51b0014 	ldr	r0, [fp, #-20]	; 0xffffffec
2000ea5c:	ebffcc84 	bl	20001c74 <pbuf_free>
2000ea60:	e3a030ff 	mov	r3, #255	; 0xff
2000ea64:	ea00000d 	b	2000eaa0 <ip_frag+0x394>
2000ea68:	e15b20b6 	ldrh	r2, [fp, #-6]
2000ea6c:	e15b32b0 	ldrh	r3, [fp, #-32]	; 0xffffffe0
2000ea70:	e0633002 	rsb	r3, r3, r2
2000ea74:	e14b30b6 	strh	r3, [fp, #-6]
2000ea78:	e15b20b8 	ldrh	r2, [fp, #-8]
2000ea7c:	e15b31bc 	ldrh	r3, [fp, #-28]	; 0xffffffe4
2000ea80:	e0823003 	add	r3, r2, r3
2000ea84:	e14b30b8 	strh	r3, [fp, #-8]
2000ea88:	e15b30b6 	ldrh	r3, [fp, #-6]
2000ea8c:	e3530000 	cmp	r3, #0
2000ea90:	1affff67 	bne	2000e834 <ip_frag+0x128>
2000ea94:	e51b0014 	ldr	r0, [fp, #-20]	; 0xffffffec
2000ea98:	ebffcc75 	bl	20001c74 <pbuf_free>
2000ea9c:	e3a03000 	mov	r3, #0
2000eaa0:	e1a03c03 	lsl	r3, r3, #24
2000eaa4:	e1a03c43 	asr	r3, r3, #24
2000eaa8:	e1a00003 	mov	r0, r3
2000eaac:	e24bd004 	sub	sp, fp, #4
2000eab0:	e8bd4800 	pop	{fp, lr}
2000eab4:	e12fff1e 	bx	lr
2000eab8:	20014be4 	.word	0x20014be4
2000eabc:	20015630 	.word	0x20015630

2000eac0 <lwip_standard_chksum>:
2000eac0:	e92d4800 	push	{fp, lr}
2000eac4:	e28db004 	add	fp, sp, #4
2000eac8:	e24dd018 	sub	sp, sp, #24
2000eacc:	e50b0018 	str	r0, [fp, #-24]	; 0xffffffe8
2000ead0:	e1a03001 	mov	r3, r1
2000ead4:	e14b31ba 	strh	r3, [fp, #-26]	; 0xffffffe6
2000ead8:	e3a03000 	mov	r3, #0
2000eadc:	e50b3008 	str	r3, [fp, #-8]
2000eae0:	e51b3018 	ldr	r3, [fp, #-24]	; 0xffffffe8
2000eae4:	e50b300c 	str	r3, [fp, #-12]
2000eae8:	ea000019 	b	2000eb54 <lwip_standard_chksum+0x94>
2000eaec:	e51b300c 	ldr	r3, [fp, #-12]
2000eaf0:	e5d33000 	ldrb	r3, [r3]
2000eaf4:	e1a03803 	lsl	r3, r3, #16
2000eaf8:	e1a03823 	lsr	r3, r3, #16
2000eafc:	e1a03403 	lsl	r3, r3, #8
2000eb00:	e14b30be 	strh	r3, [fp, #-14]
2000eb04:	e51b300c 	ldr	r3, [fp, #-12]
2000eb08:	e2833001 	add	r3, r3, #1
2000eb0c:	e50b300c 	str	r3, [fp, #-12]
2000eb10:	e51b300c 	ldr	r3, [fp, #-12]
2000eb14:	e5d33000 	ldrb	r3, [r3]
2000eb18:	e1a03803 	lsl	r3, r3, #16
2000eb1c:	e1a02823 	lsr	r2, r3, #16
2000eb20:	e15b30be 	ldrh	r3, [fp, #-14]
2000eb24:	e1823003 	orr	r3, r2, r3
2000eb28:	e14b30be 	strh	r3, [fp, #-14]
2000eb2c:	e51b300c 	ldr	r3, [fp, #-12]
2000eb30:	e2833001 	add	r3, r3, #1
2000eb34:	e50b300c 	str	r3, [fp, #-12]
2000eb38:	e15b30be 	ldrh	r3, [fp, #-14]
2000eb3c:	e51b2008 	ldr	r2, [fp, #-8]
2000eb40:	e0823003 	add	r3, r2, r3
2000eb44:	e50b3008 	str	r3, [fp, #-8]
2000eb48:	e15b31ba 	ldrh	r3, [fp, #-26]	; 0xffffffe6
2000eb4c:	e2433002 	sub	r3, r3, #2
2000eb50:	e14b31ba 	strh	r3, [fp, #-26]	; 0xffffffe6
2000eb54:	e15b31ba 	ldrh	r3, [fp, #-26]	; 0xffffffe6
2000eb58:	e3530001 	cmp	r3, #1
2000eb5c:	8affffe2 	bhi	2000eaec <lwip_standard_chksum+0x2c>
2000eb60:	e15b31ba 	ldrh	r3, [fp, #-26]	; 0xffffffe6
2000eb64:	e3530000 	cmp	r3, #0
2000eb68:	0a000009 	beq	2000eb94 <lwip_standard_chksum+0xd4>
2000eb6c:	e51b300c 	ldr	r3, [fp, #-12]
2000eb70:	e5d33000 	ldrb	r3, [r3]
2000eb74:	e1a03803 	lsl	r3, r3, #16
2000eb78:	e1a03823 	lsr	r3, r3, #16
2000eb7c:	e1a03403 	lsl	r3, r3, #8
2000eb80:	e14b30be 	strh	r3, [fp, #-14]
2000eb84:	e15b30be 	ldrh	r3, [fp, #-14]
2000eb88:	e51b2008 	ldr	r2, [fp, #-8]
2000eb8c:	e0823003 	add	r3, r2, r3
2000eb90:	e50b3008 	str	r3, [fp, #-8]
2000eb94:	e51b3008 	ldr	r3, [fp, #-8]
2000eb98:	e1a02823 	lsr	r2, r3, #16
2000eb9c:	e51b3008 	ldr	r3, [fp, #-8]
2000eba0:	e1a03803 	lsl	r3, r3, #16
2000eba4:	e1a03823 	lsr	r3, r3, #16
2000eba8:	e0823003 	add	r3, r2, r3
2000ebac:	e50b3008 	str	r3, [fp, #-8]
2000ebb0:	e51b3008 	ldr	r3, [fp, #-8]
2000ebb4:	e1a03823 	lsr	r3, r3, #16
2000ebb8:	e1a03803 	lsl	r3, r3, #16
2000ebbc:	e3530000 	cmp	r3, #0
2000ebc0:	0a000006 	beq	2000ebe0 <lwip_standard_chksum+0x120>
2000ebc4:	e51b3008 	ldr	r3, [fp, #-8]
2000ebc8:	e1a02823 	lsr	r2, r3, #16
2000ebcc:	e51b3008 	ldr	r3, [fp, #-8]
2000ebd0:	e1a03803 	lsl	r3, r3, #16
2000ebd4:	e1a03823 	lsr	r3, r3, #16
2000ebd8:	e0823003 	add	r3, r2, r3
2000ebdc:	e50b3008 	str	r3, [fp, #-8]
2000ebe0:	e51b3008 	ldr	r3, [fp, #-8]
2000ebe4:	e1a03803 	lsl	r3, r3, #16
2000ebe8:	e1a03823 	lsr	r3, r3, #16
2000ebec:	e1a00003 	mov	r0, r3
2000ebf0:	ebfff99d 	bl	2000d26c <htons>
2000ebf4:	e1a03000 	mov	r3, r0
2000ebf8:	e1a00003 	mov	r0, r3
2000ebfc:	e24bd004 	sub	sp, fp, #4
2000ec00:	e8bd4800 	pop	{fp, lr}
2000ec04:	e12fff1e 	bx	lr

2000ec08 <inet_chksum_pseudo>:
2000ec08:	e92d4800 	push	{fp, lr}
2000ec0c:	e28db004 	add	fp, sp, #4
2000ec10:	e24dd020 	sub	sp, sp, #32
2000ec14:	e50b0018 	str	r0, [fp, #-24]	; 0xffffffe8
2000ec18:	e50b101c 	str	r1, [fp, #-28]	; 0xffffffe4
2000ec1c:	e50b2020 	str	r2, [fp, #-32]	; 0xffffffe0
2000ec20:	e54b3021 	strb	r3, [fp, #-33]	; 0xffffffdf
2000ec24:	e3a03000 	mov	r3, #0
2000ec28:	e50b3008 	str	r3, [fp, #-8]
2000ec2c:	e3a03000 	mov	r3, #0
2000ec30:	e54b300d 	strb	r3, [fp, #-13]
2000ec34:	e51b3018 	ldr	r3, [fp, #-24]	; 0xffffffe8
2000ec38:	e50b300c 	str	r3, [fp, #-12]
2000ec3c:	ea000028 	b	2000ece4 <inet_chksum_pseudo+0xdc>
2000ec40:	e51b300c 	ldr	r3, [fp, #-12]
2000ec44:	e5932004 	ldr	r2, [r3, #4]
2000ec48:	e51b300c 	ldr	r3, [fp, #-12]
2000ec4c:	e1d330ba 	ldrh	r3, [r3, #10]
2000ec50:	e1a01003 	mov	r1, r3
2000ec54:	e1a00002 	mov	r0, r2
2000ec58:	ebffff98 	bl	2000eac0 <lwip_standard_chksum>
2000ec5c:	e1a03000 	mov	r3, r0
2000ec60:	e1a02003 	mov	r2, r3
2000ec64:	e51b3008 	ldr	r3, [fp, #-8]
2000ec68:	e0833002 	add	r3, r3, r2
2000ec6c:	e50b3008 	str	r3, [fp, #-8]
2000ec70:	e51b3008 	ldr	r3, [fp, #-8]
2000ec74:	e1a02823 	lsr	r2, r3, #16
2000ec78:	e51b3008 	ldr	r3, [fp, #-8]
2000ec7c:	e1a03803 	lsl	r3, r3, #16
2000ec80:	e1a03823 	lsr	r3, r3, #16
2000ec84:	e0823003 	add	r3, r2, r3
2000ec88:	e50b3008 	str	r3, [fp, #-8]
2000ec8c:	e51b300c 	ldr	r3, [fp, #-12]
2000ec90:	e1d330ba 	ldrh	r3, [r3, #10]
2000ec94:	e2033001 	and	r3, r3, #1
2000ec98:	e1a03803 	lsl	r3, r3, #16
2000ec9c:	e1a03823 	lsr	r3, r3, #16
2000eca0:	e3530000 	cmp	r3, #0
2000eca4:	0a00000b 	beq	2000ecd8 <inet_chksum_pseudo+0xd0>
2000eca8:	e55b300d 	ldrb	r3, [fp, #-13]
2000ecac:	e2633001 	rsb	r3, r3, #1
2000ecb0:	e54b300d 	strb	r3, [fp, #-13]
2000ecb4:	e51b3008 	ldr	r3, [fp, #-8]
2000ecb8:	e1a03403 	lsl	r3, r3, #8
2000ecbc:	e1a03803 	lsl	r3, r3, #16
2000ecc0:	e1a03823 	lsr	r3, r3, #16
2000ecc4:	e51b2008 	ldr	r2, [fp, #-8]
2000ecc8:	e2022cff 	and	r2, r2, #65280	; 0xff00
2000eccc:	e1a02422 	lsr	r2, r2, #8
2000ecd0:	e1833002 	orr	r3, r3, r2
2000ecd4:	e50b3008 	str	r3, [fp, #-8]
2000ecd8:	e51b300c 	ldr	r3, [fp, #-12]
2000ecdc:	e5933000 	ldr	r3, [r3]
2000ece0:	e50b300c 	str	r3, [fp, #-12]
2000ece4:	e51b300c 	ldr	r3, [fp, #-12]
2000ece8:	e3530000 	cmp	r3, #0
2000ecec:	1affffd3 	bne	2000ec40 <inet_chksum_pseudo+0x38>
2000ecf0:	e55b300d 	ldrb	r3, [fp, #-13]
2000ecf4:	e3530000 	cmp	r3, #0
2000ecf8:	0a000008 	beq	2000ed20 <inet_chksum_pseudo+0x118>
2000ecfc:	e51b3008 	ldr	r3, [fp, #-8]
2000ed00:	e1a03403 	lsl	r3, r3, #8
2000ed04:	e1a03803 	lsl	r3, r3, #16
2000ed08:	e1a03823 	lsr	r3, r3, #16
2000ed0c:	e51b2008 	ldr	r2, [fp, #-8]
2000ed10:	e2022cff 	and	r2, r2, #65280	; 0xff00
2000ed14:	e1a02422 	lsr	r2, r2, #8
2000ed18:	e1833002 	orr	r3, r3, r2
2000ed1c:	e50b3008 	str	r3, [fp, #-8]
2000ed20:	e51b301c 	ldr	r3, [fp, #-28]	; 0xffffffe4
2000ed24:	e5d32000 	ldrb	r2, [r3]
2000ed28:	e5d31001 	ldrb	r1, [r3, #1]
2000ed2c:	e1a01401 	lsl	r1, r1, #8
2000ed30:	e1812002 	orr	r2, r1, r2
2000ed34:	e5d31002 	ldrb	r1, [r3, #2]
2000ed38:	e1a01801 	lsl	r1, r1, #16
2000ed3c:	e1812002 	orr	r2, r1, r2
2000ed40:	e5d33003 	ldrb	r3, [r3, #3]
2000ed44:	e1a03c03 	lsl	r3, r3, #24
2000ed48:	e1833002 	orr	r3, r3, r2
2000ed4c:	e1a03803 	lsl	r3, r3, #16
2000ed50:	e1a03823 	lsr	r3, r3, #16
2000ed54:	e51b2008 	ldr	r2, [fp, #-8]
2000ed58:	e0823003 	add	r3, r2, r3
2000ed5c:	e50b3008 	str	r3, [fp, #-8]
2000ed60:	e51b301c 	ldr	r3, [fp, #-28]	; 0xffffffe4
2000ed64:	e5d32000 	ldrb	r2, [r3]
2000ed68:	e5d31001 	ldrb	r1, [r3, #1]
2000ed6c:	e1a01401 	lsl	r1, r1, #8
2000ed70:	e1812002 	orr	r2, r1, r2
2000ed74:	e5d31002 	ldrb	r1, [r3, #2]
2000ed78:	e1a01801 	lsl	r1, r1, #16
2000ed7c:	e1812002 	orr	r2, r1, r2
2000ed80:	e5d33003 	ldrb	r3, [r3, #3]
2000ed84:	e1a03c03 	lsl	r3, r3, #24
2000ed88:	e1833002 	orr	r3, r3, r2
2000ed8c:	e1a03823 	lsr	r3, r3, #16
2000ed90:	e51b2008 	ldr	r2, [fp, #-8]
2000ed94:	e0823003 	add	r3, r2, r3
2000ed98:	e50b3008 	str	r3, [fp, #-8]
2000ed9c:	e51b3020 	ldr	r3, [fp, #-32]	; 0xffffffe0
2000eda0:	e5d32000 	ldrb	r2, [r3]
2000eda4:	e5d31001 	ldrb	r1, [r3, #1]
2000eda8:	e1a01401 	lsl	r1, r1, #8
2000edac:	e1812002 	orr	r2, r1, r2
2000edb0:	e5d31002 	ldrb	r1, [r3, #2]
2000edb4:	e1a01801 	lsl	r1, r1, #16
2000edb8:	e1812002 	orr	r2, r1, r2
2000edbc:	e5d33003 	ldrb	r3, [r3, #3]
2000edc0:	e1a03c03 	lsl	r3, r3, #24
2000edc4:	e1833002 	orr	r3, r3, r2
2000edc8:	e1a03803 	lsl	r3, r3, #16
2000edcc:	e1a03823 	lsr	r3, r3, #16
2000edd0:	e51b2008 	ldr	r2, [fp, #-8]
2000edd4:	e0823003 	add	r3, r2, r3
2000edd8:	e50b3008 	str	r3, [fp, #-8]
2000eddc:	e51b3020 	ldr	r3, [fp, #-32]	; 0xffffffe0
2000ede0:	e5d32000 	ldrb	r2, [r3]
2000ede4:	e5d31001 	ldrb	r1, [r3, #1]
2000ede8:	e1a01401 	lsl	r1, r1, #8
2000edec:	e1812002 	orr	r2, r1, r2
2000edf0:	e5d31002 	ldrb	r1, [r3, #2]
2000edf4:	e1a01801 	lsl	r1, r1, #16
2000edf8:	e1812002 	orr	r2, r1, r2
2000edfc:	e5d33003 	ldrb	r3, [r3, #3]
2000ee00:	e1a03c03 	lsl	r3, r3, #24
2000ee04:	e1833002 	orr	r3, r3, r2
2000ee08:	e1a03823 	lsr	r3, r3, #16
2000ee0c:	e51b2008 	ldr	r2, [fp, #-8]
2000ee10:	e0823003 	add	r3, r2, r3
2000ee14:	e50b3008 	str	r3, [fp, #-8]
2000ee18:	e55b3021 	ldrb	r3, [fp, #-33]	; 0xffffffdf
2000ee1c:	e1a03803 	lsl	r3, r3, #16
2000ee20:	e1a03823 	lsr	r3, r3, #16
2000ee24:	e1a00003 	mov	r0, r3
2000ee28:	ebfff90f 	bl	2000d26c <htons>
2000ee2c:	e1a03000 	mov	r3, r0
2000ee30:	e1a02003 	mov	r2, r3
2000ee34:	e51b3008 	ldr	r3, [fp, #-8]
2000ee38:	e0833002 	add	r3, r3, r2
2000ee3c:	e50b3008 	str	r3, [fp, #-8]
2000ee40:	e1db30b4 	ldrh	r3, [fp, #4]
2000ee44:	e1a00003 	mov	r0, r3
2000ee48:	ebfff907 	bl	2000d26c <htons>
2000ee4c:	e1a03000 	mov	r3, r0
2000ee50:	e1a02003 	mov	r2, r3
2000ee54:	e51b3008 	ldr	r3, [fp, #-8]
2000ee58:	e0833002 	add	r3, r3, r2
2000ee5c:	e50b3008 	str	r3, [fp, #-8]
2000ee60:	e51b3008 	ldr	r3, [fp, #-8]
2000ee64:	e1a02823 	lsr	r2, r3, #16
2000ee68:	e51b3008 	ldr	r3, [fp, #-8]
2000ee6c:	e1a03803 	lsl	r3, r3, #16
2000ee70:	e1a03823 	lsr	r3, r3, #16
2000ee74:	e0823003 	add	r3, r2, r3
2000ee78:	e50b3008 	str	r3, [fp, #-8]
2000ee7c:	e51b3008 	ldr	r3, [fp, #-8]
2000ee80:	e1a02823 	lsr	r2, r3, #16
2000ee84:	e51b3008 	ldr	r3, [fp, #-8]
2000ee88:	e1a03803 	lsl	r3, r3, #16
2000ee8c:	e1a03823 	lsr	r3, r3, #16
2000ee90:	e0823003 	add	r3, r2, r3
2000ee94:	e50b3008 	str	r3, [fp, #-8]
2000ee98:	e51b3008 	ldr	r3, [fp, #-8]
2000ee9c:	e1a03803 	lsl	r3, r3, #16
2000eea0:	e1a03823 	lsr	r3, r3, #16
2000eea4:	e1e03003 	mvn	r3, r3
2000eea8:	e1a03803 	lsl	r3, r3, #16
2000eeac:	e1a03823 	lsr	r3, r3, #16
2000eeb0:	e1a00003 	mov	r0, r3
2000eeb4:	e24bd004 	sub	sp, fp, #4
2000eeb8:	e8bd4800 	pop	{fp, lr}
2000eebc:	e12fff1e 	bx	lr

2000eec0 <inet_chksum>:
2000eec0:	e92d4800 	push	{fp, lr}
2000eec4:	e28db004 	add	fp, sp, #4
2000eec8:	e24dd008 	sub	sp, sp, #8
2000eecc:	e50b0008 	str	r0, [fp, #-8]
2000eed0:	e1a03001 	mov	r3, r1
2000eed4:	e14b30ba 	strh	r3, [fp, #-10]
2000eed8:	e15b30ba 	ldrh	r3, [fp, #-10]
2000eedc:	e1a01003 	mov	r1, r3
2000eee0:	e51b0008 	ldr	r0, [fp, #-8]
2000eee4:	ebfffef5 	bl	2000eac0 <lwip_standard_chksum>
2000eee8:	e1a03000 	mov	r3, r0
2000eeec:	e1e03003 	mvn	r3, r3
2000eef0:	e1a03803 	lsl	r3, r3, #16
2000eef4:	e1a03823 	lsr	r3, r3, #16
2000eef8:	e1a00003 	mov	r0, r3
2000eefc:	e24bd004 	sub	sp, fp, #4
2000ef00:	e8bd4800 	pop	{fp, lr}
2000ef04:	e12fff1e 	bx	lr

2000ef08 <inet_chksum_pbuf>:
2000ef08:	e92d4800 	push	{fp, lr}
2000ef0c:	e28db004 	add	fp, sp, #4
2000ef10:	e24dd018 	sub	sp, sp, #24
2000ef14:	e50b0018 	str	r0, [fp, #-24]	; 0xffffffe8
2000ef18:	e3a03000 	mov	r3, #0
2000ef1c:	e50b3008 	str	r3, [fp, #-8]
2000ef20:	e3a03000 	mov	r3, #0
2000ef24:	e54b300d 	strb	r3, [fp, #-13]
2000ef28:	e51b3018 	ldr	r3, [fp, #-24]	; 0xffffffe8
2000ef2c:	e50b300c 	str	r3, [fp, #-12]
2000ef30:	ea000028 	b	2000efd8 <inet_chksum_pbuf+0xd0>
2000ef34:	e51b300c 	ldr	r3, [fp, #-12]
2000ef38:	e5932004 	ldr	r2, [r3, #4]
2000ef3c:	e51b300c 	ldr	r3, [fp, #-12]
2000ef40:	e1d330ba 	ldrh	r3, [r3, #10]
2000ef44:	e1a01003 	mov	r1, r3
2000ef48:	e1a00002 	mov	r0, r2
2000ef4c:	ebfffedb 	bl	2000eac0 <lwip_standard_chksum>
2000ef50:	e1a03000 	mov	r3, r0
2000ef54:	e1a02003 	mov	r2, r3
2000ef58:	e51b3008 	ldr	r3, [fp, #-8]
2000ef5c:	e0833002 	add	r3, r3, r2
2000ef60:	e50b3008 	str	r3, [fp, #-8]
2000ef64:	e51b3008 	ldr	r3, [fp, #-8]
2000ef68:	e1a02823 	lsr	r2, r3, #16
2000ef6c:	e51b3008 	ldr	r3, [fp, #-8]
2000ef70:	e1a03803 	lsl	r3, r3, #16
2000ef74:	e1a03823 	lsr	r3, r3, #16
2000ef78:	e0823003 	add	r3, r2, r3
2000ef7c:	e50b3008 	str	r3, [fp, #-8]
2000ef80:	e51b300c 	ldr	r3, [fp, #-12]
2000ef84:	e1d330ba 	ldrh	r3, [r3, #10]
2000ef88:	e2033001 	and	r3, r3, #1
2000ef8c:	e1a03803 	lsl	r3, r3, #16
2000ef90:	e1a03823 	lsr	r3, r3, #16
2000ef94:	e3530000 	cmp	r3, #0
2000ef98:	0a00000b 	beq	2000efcc <inet_chksum_pbuf+0xc4>
2000ef9c:	e55b300d 	ldrb	r3, [fp, #-13]
2000efa0:	e2633001 	rsb	r3, r3, #1
2000efa4:	e54b300d 	strb	r3, [fp, #-13]
2000efa8:	e51b3008 	ldr	r3, [fp, #-8]
2000efac:	e1a03403 	lsl	r3, r3, #8
2000efb0:	e1a03803 	lsl	r3, r3, #16
2000efb4:	e1a03823 	lsr	r3, r3, #16
2000efb8:	e51b2008 	ldr	r2, [fp, #-8]
2000efbc:	e2022cff 	and	r2, r2, #65280	; 0xff00
2000efc0:	e1a02422 	lsr	r2, r2, #8
2000efc4:	e1833002 	orr	r3, r3, r2
2000efc8:	e50b3008 	str	r3, [fp, #-8]
2000efcc:	e51b300c 	ldr	r3, [fp, #-12]
2000efd0:	e5933000 	ldr	r3, [r3]
2000efd4:	e50b300c 	str	r3, [fp, #-12]
2000efd8:	e51b300c 	ldr	r3, [fp, #-12]
2000efdc:	e3530000 	cmp	r3, #0
2000efe0:	1affffd3 	bne	2000ef34 <inet_chksum_pbuf+0x2c>
2000efe4:	e55b300d 	ldrb	r3, [fp, #-13]
2000efe8:	e3530000 	cmp	r3, #0
2000efec:	0a000008 	beq	2000f014 <inet_chksum_pbuf+0x10c>
2000eff0:	e51b3008 	ldr	r3, [fp, #-8]
2000eff4:	e1a03403 	lsl	r3, r3, #8
2000eff8:	e1a03803 	lsl	r3, r3, #16
2000effc:	e1a03823 	lsr	r3, r3, #16
2000f000:	e51b2008 	ldr	r2, [fp, #-8]
2000f004:	e2022cff 	and	r2, r2, #65280	; 0xff00
2000f008:	e1a02422 	lsr	r2, r2, #8
2000f00c:	e1833002 	orr	r3, r3, r2
2000f010:	e50b3008 	str	r3, [fp, #-8]
2000f014:	e51b3008 	ldr	r3, [fp, #-8]
2000f018:	e1a03803 	lsl	r3, r3, #16
2000f01c:	e1a03823 	lsr	r3, r3, #16
2000f020:	e1e03003 	mvn	r3, r3
2000f024:	e1a03803 	lsl	r3, r3, #16
2000f028:	e1a03823 	lsr	r3, r3, #16
2000f02c:	e1a00003 	mov	r0, r3
2000f030:	e24bd004 	sub	sp, fp, #4
2000f034:	e8bd4800 	pop	{fp, lr}
2000f038:	e12fff1e 	bx	lr

2000f03c <etharp_tmr>:
2000f03c:	e52db004 	push	{fp}		; (str fp, [sp, #-4]!)
2000f040:	e28db000 	add	fp, sp, #0
2000f044:	e24dd00c 	sub	sp, sp, #12
2000f048:	e3a03000 	mov	r3, #0
2000f04c:	e54b3005 	strb	r3, [fp, #-5]
2000f050:	ea000030 	b	2000f118 <etharp_tmr+0xdc>
2000f054:	e55b2005 	ldrb	r2, [fp, #-5]
2000f058:	e59f10d4 	ldr	r1, [pc, #212]	; 2000f134 <etharp_tmr+0xf8>
2000f05c:	e1a03202 	lsl	r3, r2, #4
2000f060:	e0813003 	add	r3, r1, r3
2000f064:	e5d3300b 	ldrb	r3, [r3, #11]
2000f068:	e2833001 	add	r3, r3, #1
2000f06c:	e20300ff 	and	r0, r3, #255	; 0xff
2000f070:	e59f10bc 	ldr	r1, [pc, #188]	; 2000f134 <etharp_tmr+0xf8>
2000f074:	e1a03202 	lsl	r3, r2, #4
2000f078:	e0813003 	add	r3, r1, r3
2000f07c:	e1a02000 	mov	r2, r0
2000f080:	e5c3200b 	strb	r2, [r3, #11]
2000f084:	e55b3005 	ldrb	r3, [fp, #-5]
2000f088:	e59f20a4 	ldr	r2, [pc, #164]	; 2000f134 <etharp_tmr+0xf8>
2000f08c:	e1a03203 	lsl	r3, r3, #4
2000f090:	e0823003 	add	r3, r2, r3
2000f094:	e5d3300a 	ldrb	r3, [r3, #10]
2000f098:	e3530002 	cmp	r3, #2
2000f09c:	1a000006 	bne	2000f0bc <etharp_tmr+0x80>
2000f0a0:	e55b3005 	ldrb	r3, [fp, #-5]
2000f0a4:	e59f2088 	ldr	r2, [pc, #136]	; 2000f134 <etharp_tmr+0xf8>
2000f0a8:	e1a03203 	lsl	r3, r3, #4
2000f0ac:	e0823003 	add	r3, r2, r3
2000f0b0:	e5d3300b 	ldrb	r3, [r3, #11]
2000f0b4:	e35300ef 	cmp	r3, #239	; 0xef
2000f0b8:	8a00000d 	bhi	2000f0f4 <etharp_tmr+0xb8>
2000f0bc:	e55b3005 	ldrb	r3, [fp, #-5]
2000f0c0:	e59f206c 	ldr	r2, [pc, #108]	; 2000f134 <etharp_tmr+0xf8>
2000f0c4:	e1a03203 	lsl	r3, r3, #4
2000f0c8:	e0823003 	add	r3, r2, r3
2000f0cc:	e5d3300a 	ldrb	r3, [r3, #10]
2000f0d0:	e3530001 	cmp	r3, #1
2000f0d4:	1a00000c 	bne	2000f10c <etharp_tmr+0xd0>
2000f0d8:	e55b3005 	ldrb	r3, [fp, #-5]
2000f0dc:	e59f2050 	ldr	r2, [pc, #80]	; 2000f134 <etharp_tmr+0xf8>
2000f0e0:	e1a03203 	lsl	r3, r3, #4
2000f0e4:	e0823003 	add	r3, r2, r3
2000f0e8:	e5d3300b 	ldrb	r3, [r3, #11]
2000f0ec:	e3530001 	cmp	r3, #1
2000f0f0:	9a000005 	bls	2000f10c <etharp_tmr+0xd0>
2000f0f4:	e55b3005 	ldrb	r3, [fp, #-5]
2000f0f8:	e59f2034 	ldr	r2, [pc, #52]	; 2000f134 <etharp_tmr+0xf8>
2000f0fc:	e1a03203 	lsl	r3, r3, #4
2000f100:	e0823003 	add	r3, r2, r3
2000f104:	e3a02000 	mov	r2, #0
2000f108:	e5c3200a 	strb	r2, [r3, #10]
2000f10c:	e55b3005 	ldrb	r3, [fp, #-5]
2000f110:	e2833001 	add	r3, r3, #1
2000f114:	e54b3005 	strb	r3, [fp, #-5]
2000f118:	e55b3005 	ldrb	r3, [fp, #-5]
2000f11c:	e3530009 	cmp	r3, #9
2000f120:	9affffcb 	bls	2000f054 <etharp_tmr+0x18>
2000f124:	e1a00000 	nop			; (mov r0, r0)
2000f128:	e24bd000 	sub	sp, fp, #0
2000f12c:	e49db004 	pop	{fp}		; (ldr fp, [sp], #4)
2000f130:	e12fff1e 	bx	lr
2000f134:	200151c4 	.word	0x200151c4

2000f138 <find_entry>:
2000f138:	e52db004 	push	{fp}		; (str fp, [sp, #-4]!)
2000f13c:	e28db000 	add	fp, sp, #0
2000f140:	e24dd014 	sub	sp, sp, #20
2000f144:	e50b0010 	str	r0, [fp, #-16]
2000f148:	e1a03001 	mov	r3, r1
2000f14c:	e54b3011 	strb	r3, [fp, #-17]	; 0xffffffef
2000f150:	e3a0300a 	mov	r3, #10
2000f154:	e54b3005 	strb	r3, [fp, #-5]
2000f158:	e3a0300a 	mov	r3, #10
2000f15c:	e54b3006 	strb	r3, [fp, #-6]
2000f160:	e3a0300a 	mov	r3, #10
2000f164:	e54b3007 	strb	r3, [fp, #-7]
2000f168:	e3a03000 	mov	r3, #0
2000f16c:	e54b3008 	strb	r3, [fp, #-8]
2000f170:	e3a03000 	mov	r3, #0
2000f174:	e54b3009 	strb	r3, [fp, #-9]
2000f178:	e3a03000 	mov	r3, #0
2000f17c:	e54b300a 	strb	r3, [fp, #-10]
2000f180:	e51b3010 	ldr	r3, [fp, #-16]
2000f184:	e3530000 	cmp	r3, #0
2000f188:	0a000025 	beq	2000f224 <find_entry+0xec>
2000f18c:	e59f33a0 	ldr	r3, [pc, #928]	; 2000f534 <find_entry+0x3fc>
2000f190:	e5d33000 	ldrb	r3, [r3]
2000f194:	e59f239c 	ldr	r2, [pc, #924]	; 2000f538 <find_entry+0x400>
2000f198:	e1a03203 	lsl	r3, r3, #4
2000f19c:	e0823003 	add	r3, r2, r3
2000f1a0:	e5d3300a 	ldrb	r3, [r3, #10]
2000f1a4:	e3530002 	cmp	r3, #2
2000f1a8:	1a00001d 	bne	2000f224 <find_entry+0xec>
2000f1ac:	e51b3010 	ldr	r3, [fp, #-16]
2000f1b0:	e5d32000 	ldrb	r2, [r3]
2000f1b4:	e5d31001 	ldrb	r1, [r3, #1]
2000f1b8:	e1a01401 	lsl	r1, r1, #8
2000f1bc:	e1812002 	orr	r2, r1, r2
2000f1c0:	e5d31002 	ldrb	r1, [r3, #2]
2000f1c4:	e1a01801 	lsl	r1, r1, #16
2000f1c8:	e1812002 	orr	r2, r1, r2
2000f1cc:	e5d33003 	ldrb	r3, [r3, #3]
2000f1d0:	e1a03c03 	lsl	r3, r3, #24
2000f1d4:	e1833002 	orr	r3, r3, r2
2000f1d8:	e1a02003 	mov	r2, r3
2000f1dc:	e59f3350 	ldr	r3, [pc, #848]	; 2000f534 <find_entry+0x3fc>
2000f1e0:	e5d33000 	ldrb	r3, [r3]
2000f1e4:	e1a01003 	mov	r1, r3
2000f1e8:	e59f3348 	ldr	r3, [pc, #840]	; 2000f538 <find_entry+0x400>
2000f1ec:	e7933201 	ldr	r3, [r3, r1, lsl #4]
2000f1f0:	e1520003 	cmp	r2, r3
2000f1f4:	1a00000a 	bne	2000f224 <find_entry+0xec>
2000f1f8:	e59f333c 	ldr	r3, [pc, #828]	; 2000f53c <find_entry+0x404>
2000f1fc:	e1d332be 	ldrh	r3, [r3, #46]	; 0x2e
2000f200:	e2833001 	add	r3, r3, #1
2000f204:	e1a03803 	lsl	r3, r3, #16
2000f208:	e1a03823 	lsr	r3, r3, #16
2000f20c:	e59f2328 	ldr	r2, [pc, #808]	; 2000f53c <find_entry+0x404>
2000f210:	e1c232be 	strh	r3, [r2, #46]	; 0x2e
2000f214:	e59f3318 	ldr	r3, [pc, #792]	; 2000f534 <find_entry+0x3fc>
2000f218:	e5d33000 	ldrb	r3, [r3]
2000f21c:	e20330ff 	and	r3, r3, #255	; 0xff
2000f220:	ea0000bd 	b	2000f51c <find_entry+0x3e4>
2000f224:	e3a03000 	mov	r3, #0
2000f228:	e54b3008 	strb	r3, [fp, #-8]
2000f22c:	ea000070 	b	2000f3f4 <find_entry+0x2bc>
2000f230:	e15b30d7 	ldrsb	r3, [fp, #-7]
2000f234:	e353000a 	cmp	r3, #10
2000f238:	1a000009 	bne	2000f264 <find_entry+0x12c>
2000f23c:	e55b3008 	ldrb	r3, [fp, #-8]
2000f240:	e59f22f0 	ldr	r2, [pc, #752]	; 2000f538 <find_entry+0x400>
2000f244:	e1a03203 	lsl	r3, r3, #4
2000f248:	e0823003 	add	r3, r2, r3
2000f24c:	e5d3300a 	ldrb	r3, [r3, #10]
2000f250:	e3530000 	cmp	r3, #0
2000f254:	1a000002 	bne	2000f264 <find_entry+0x12c>
2000f258:	e55b3008 	ldrb	r3, [fp, #-8]
2000f25c:	e54b3007 	strb	r3, [fp, #-7]
2000f260:	ea000060 	b	2000f3e8 <find_entry+0x2b0>
2000f264:	e55b3008 	ldrb	r3, [fp, #-8]
2000f268:	e59f22c8 	ldr	r2, [pc, #712]	; 2000f538 <find_entry+0x400>
2000f26c:	e1a03203 	lsl	r3, r3, #4
2000f270:	e0823003 	add	r3, r2, r3
2000f274:	e5d3300a 	ldrb	r3, [r3, #10]
2000f278:	e3530001 	cmp	r3, #1
2000f27c:	1a000029 	bne	2000f328 <find_entry+0x1f0>
2000f280:	e51b3010 	ldr	r3, [fp, #-16]
2000f284:	e3530000 	cmp	r3, #0
2000f288:	0a000015 	beq	2000f2e4 <find_entry+0x1ac>
2000f28c:	e51b3010 	ldr	r3, [fp, #-16]
2000f290:	e5d32000 	ldrb	r2, [r3]
2000f294:	e5d31001 	ldrb	r1, [r3, #1]
2000f298:	e1a01401 	lsl	r1, r1, #8
2000f29c:	e1812002 	orr	r2, r1, r2
2000f2a0:	e5d31002 	ldrb	r1, [r3, #2]
2000f2a4:	e1a01801 	lsl	r1, r1, #16
2000f2a8:	e1812002 	orr	r2, r1, r2
2000f2ac:	e5d33003 	ldrb	r3, [r3, #3]
2000f2b0:	e1a03c03 	lsl	r3, r3, #24
2000f2b4:	e1833002 	orr	r3, r3, r2
2000f2b8:	e1a01003 	mov	r1, r3
2000f2bc:	e55b3008 	ldrb	r3, [fp, #-8]
2000f2c0:	e59f2270 	ldr	r2, [pc, #624]	; 2000f538 <find_entry+0x400>
2000f2c4:	e7923203 	ldr	r3, [r2, r3, lsl #4]
2000f2c8:	e1510003 	cmp	r1, r3
2000f2cc:	1a000004 	bne	2000f2e4 <find_entry+0x1ac>
2000f2d0:	e59f225c 	ldr	r2, [pc, #604]	; 2000f534 <find_entry+0x3fc>
2000f2d4:	e55b3008 	ldrb	r3, [fp, #-8]
2000f2d8:	e5c23000 	strb	r3, [r2]
2000f2dc:	e55b3008 	ldrb	r3, [fp, #-8]
2000f2e0:	ea00008d 	b	2000f51c <find_entry+0x3e4>
2000f2e4:	e55b3008 	ldrb	r3, [fp, #-8]
2000f2e8:	e59f2248 	ldr	r2, [pc, #584]	; 2000f538 <find_entry+0x400>
2000f2ec:	e1a03203 	lsl	r3, r3, #4
2000f2f0:	e0823003 	add	r3, r2, r3
2000f2f4:	e5d3300b 	ldrb	r3, [r3, #11]
2000f2f8:	e55b2009 	ldrb	r2, [fp, #-9]
2000f2fc:	e1520003 	cmp	r2, r3
2000f300:	8a000038 	bhi	2000f3e8 <find_entry+0x2b0>
2000f304:	e55b3008 	ldrb	r3, [fp, #-8]
2000f308:	e54b3005 	strb	r3, [fp, #-5]
2000f30c:	e55b3008 	ldrb	r3, [fp, #-8]
2000f310:	e59f2220 	ldr	r2, [pc, #544]	; 2000f538 <find_entry+0x400>
2000f314:	e1a03203 	lsl	r3, r3, #4
2000f318:	e0823003 	add	r3, r2, r3
2000f31c:	e5d3300b 	ldrb	r3, [r3, #11]
2000f320:	e54b3009 	strb	r3, [fp, #-9]
2000f324:	ea00002f 	b	2000f3e8 <find_entry+0x2b0>
2000f328:	e55b3008 	ldrb	r3, [fp, #-8]
2000f32c:	e59f2204 	ldr	r2, [pc, #516]	; 2000f538 <find_entry+0x400>
2000f330:	e1a03203 	lsl	r3, r3, #4
2000f334:	e0823003 	add	r3, r2, r3
2000f338:	e5d3300a 	ldrb	r3, [r3, #10]
2000f33c:	e3530002 	cmp	r3, #2
2000f340:	1a000028 	bne	2000f3e8 <find_entry+0x2b0>
2000f344:	e51b3010 	ldr	r3, [fp, #-16]
2000f348:	e3530000 	cmp	r3, #0
2000f34c:	0a000015 	beq	2000f3a8 <find_entry+0x270>
2000f350:	e51b3010 	ldr	r3, [fp, #-16]
2000f354:	e5d32000 	ldrb	r2, [r3]
2000f358:	e5d31001 	ldrb	r1, [r3, #1]
2000f35c:	e1a01401 	lsl	r1, r1, #8
2000f360:	e1812002 	orr	r2, r1, r2
2000f364:	e5d31002 	ldrb	r1, [r3, #2]
2000f368:	e1a01801 	lsl	r1, r1, #16
2000f36c:	e1812002 	orr	r2, r1, r2
2000f370:	e5d33003 	ldrb	r3, [r3, #3]
2000f374:	e1a03c03 	lsl	r3, r3, #24
2000f378:	e1833002 	orr	r3, r3, r2
2000f37c:	e1a01003 	mov	r1, r3
2000f380:	e55b3008 	ldrb	r3, [fp, #-8]
2000f384:	e59f21ac 	ldr	r2, [pc, #428]	; 2000f538 <find_entry+0x400>
2000f388:	e7923203 	ldr	r3, [r2, r3, lsl #4]
2000f38c:	e1510003 	cmp	r1, r3
2000f390:	1a000004 	bne	2000f3a8 <find_entry+0x270>
2000f394:	e59f2198 	ldr	r2, [pc, #408]	; 2000f534 <find_entry+0x3fc>
2000f398:	e55b3008 	ldrb	r3, [fp, #-8]
2000f39c:	e5c23000 	strb	r3, [r2]
2000f3a0:	e55b3008 	ldrb	r3, [fp, #-8]
2000f3a4:	ea00005c 	b	2000f51c <find_entry+0x3e4>
2000f3a8:	e55b3008 	ldrb	r3, [fp, #-8]
2000f3ac:	e59f2184 	ldr	r2, [pc, #388]	; 2000f538 <find_entry+0x400>
2000f3b0:	e1a03203 	lsl	r3, r3, #4
2000f3b4:	e0823003 	add	r3, r2, r3
2000f3b8:	e5d3300b 	ldrb	r3, [r3, #11]
2000f3bc:	e55b200a 	ldrb	r2, [fp, #-10]
2000f3c0:	e1520003 	cmp	r2, r3
2000f3c4:	8a000007 	bhi	2000f3e8 <find_entry+0x2b0>
2000f3c8:	e55b3008 	ldrb	r3, [fp, #-8]
2000f3cc:	e54b3006 	strb	r3, [fp, #-6]
2000f3d0:	e55b3008 	ldrb	r3, [fp, #-8]
2000f3d4:	e59f215c 	ldr	r2, [pc, #348]	; 2000f538 <find_entry+0x400>
2000f3d8:	e1a03203 	lsl	r3, r3, #4
2000f3dc:	e0823003 	add	r3, r2, r3
2000f3e0:	e5d3300b 	ldrb	r3, [r3, #11]
2000f3e4:	e54b300a 	strb	r3, [fp, #-10]
2000f3e8:	e55b3008 	ldrb	r3, [fp, #-8]
2000f3ec:	e2833001 	add	r3, r3, #1
2000f3f0:	e54b3008 	strb	r3, [fp, #-8]
2000f3f4:	e55b3008 	ldrb	r3, [fp, #-8]
2000f3f8:	e3530009 	cmp	r3, #9
2000f3fc:	9affff8b 	bls	2000f230 <find_entry+0xf8>
2000f400:	e15b30d7 	ldrsb	r3, [fp, #-7]
2000f404:	e353000a 	cmp	r3, #10
2000f408:	1a000003 	bne	2000f41c <find_entry+0x2e4>
2000f40c:	e55b3011 	ldrb	r3, [fp, #-17]	; 0xffffffef
2000f410:	e2033001 	and	r3, r3, #1
2000f414:	e3530000 	cmp	r3, #0
2000f418:	0a000003 	beq	2000f42c <find_entry+0x2f4>
2000f41c:	e55b3011 	ldrb	r3, [fp, #-17]	; 0xffffffef
2000f420:	e2033002 	and	r3, r3, #2
2000f424:	e3530000 	cmp	r3, #0
2000f428:	0a000001 	beq	2000f434 <find_entry+0x2fc>
2000f42c:	e3a030ff 	mov	r3, #255	; 0xff
2000f430:	ea000039 	b	2000f51c <find_entry+0x3e4>
2000f434:	e15b30d7 	ldrsb	r3, [fp, #-7]
2000f438:	e3530009 	cmp	r3, #9
2000f43c:	ca000002 	bgt	2000f44c <find_entry+0x314>
2000f440:	e55b3007 	ldrb	r3, [fp, #-7]
2000f444:	e54b3008 	strb	r3, [fp, #-8]
2000f448:	ea00000d 	b	2000f484 <find_entry+0x34c>
2000f44c:	e15b30d6 	ldrsb	r3, [fp, #-6]
2000f450:	e3530009 	cmp	r3, #9
2000f454:	ca000002 	bgt	2000f464 <find_entry+0x32c>
2000f458:	e55b3006 	ldrb	r3, [fp, #-6]
2000f45c:	e54b3008 	strb	r3, [fp, #-8]
2000f460:	ea000007 	b	2000f484 <find_entry+0x34c>
2000f464:	e15b30d5 	ldrsb	r3, [fp, #-5]
2000f468:	e3530009 	cmp	r3, #9
2000f46c:	ca000002 	bgt	2000f47c <find_entry+0x344>
2000f470:	e55b3005 	ldrb	r3, [fp, #-5]
2000f474:	e54b3008 	strb	r3, [fp, #-8]
2000f478:	ea000001 	b	2000f484 <find_entry+0x34c>
2000f47c:	e3a030ff 	mov	r3, #255	; 0xff
2000f480:	ea000025 	b	2000f51c <find_entry+0x3e4>
2000f484:	e55b3008 	ldrb	r3, [fp, #-8]
2000f488:	e59f20a8 	ldr	r2, [pc, #168]	; 2000f538 <find_entry+0x400>
2000f48c:	e1a03203 	lsl	r3, r3, #4
2000f490:	e0823003 	add	r3, r2, r3
2000f494:	e3a02000 	mov	r2, #0
2000f498:	e5c3200a 	strb	r2, [r3, #10]
2000f49c:	e51b3010 	ldr	r3, [fp, #-16]
2000f4a0:	e3530000 	cmp	r3, #0
2000f4a4:	0a000012 	beq	2000f4f4 <find_entry+0x3bc>
2000f4a8:	e55b2008 	ldrb	r2, [fp, #-8]
2000f4ac:	e51b3010 	ldr	r3, [fp, #-16]
2000f4b0:	e3530000 	cmp	r3, #0
2000f4b4:	0a00000b 	beq	2000f4e8 <find_entry+0x3b0>
2000f4b8:	e51b3010 	ldr	r3, [fp, #-16]
2000f4bc:	e5d31000 	ldrb	r1, [r3]
2000f4c0:	e5d30001 	ldrb	r0, [r3, #1]
2000f4c4:	e1a00400 	lsl	r0, r0, #8
2000f4c8:	e1801001 	orr	r1, r0, r1
2000f4cc:	e5d30002 	ldrb	r0, [r3, #2]
2000f4d0:	e1a00800 	lsl	r0, r0, #16
2000f4d4:	e1801001 	orr	r1, r0, r1
2000f4d8:	e5d33003 	ldrb	r3, [r3, #3]
2000f4dc:	e1a03c03 	lsl	r3, r3, #24
2000f4e0:	e1833001 	orr	r3, r3, r1
2000f4e4:	ea000000 	b	2000f4ec <find_entry+0x3b4>
2000f4e8:	e3a03000 	mov	r3, #0
2000f4ec:	e59f1044 	ldr	r1, [pc, #68]	; 2000f538 <find_entry+0x400>
2000f4f0:	e7813202 	str	r3, [r1, r2, lsl #4]
2000f4f4:	e55b3008 	ldrb	r3, [fp, #-8]
2000f4f8:	e59f2038 	ldr	r2, [pc, #56]	; 2000f538 <find_entry+0x400>
2000f4fc:	e1a03203 	lsl	r3, r3, #4
2000f500:	e0823003 	add	r3, r2, r3
2000f504:	e3a02000 	mov	r2, #0
2000f508:	e5c3200b 	strb	r2, [r3, #11]
2000f50c:	e59f2020 	ldr	r2, [pc, #32]	; 2000f534 <find_entry+0x3fc>
2000f510:	e55b3008 	ldrb	r3, [fp, #-8]
2000f514:	e5c23000 	strb	r3, [r2]
2000f518:	e55b3008 	ldrb	r3, [fp, #-8]
2000f51c:	e1a03c03 	lsl	r3, r3, #24
2000f520:	e1a03c43 	asr	r3, r3, #24
2000f524:	e1a00003 	mov	r0, r3
2000f528:	e24bd000 	sub	sp, fp, #0
2000f52c:	e49db004 	pop	{fp}		; (ldr fp, [sp], #4)
2000f530:	e12fff1e 	bx	lr
2000f534:	20015264 	.word	0x20015264
2000f538:	200151c4 	.word	0x200151c4
2000f53c:	20015630 	.word	0x20015630

2000f540 <etharp_send_ip>:
2000f540:	e92d4800 	push	{fp, lr}
2000f544:	e28db004 	add	fp, sp, #4
2000f548:	e24dd018 	sub	sp, sp, #24
2000f54c:	e50b0010 	str	r0, [fp, #-16]
2000f550:	e50b1014 	str	r1, [fp, #-20]	; 0xffffffec
2000f554:	e50b2018 	str	r2, [fp, #-24]	; 0xffffffe8
2000f558:	e50b301c 	str	r3, [fp, #-28]	; 0xffffffe4
2000f55c:	e51b3014 	ldr	r3, [fp, #-20]	; 0xffffffec
2000f560:	e5933004 	ldr	r3, [r3, #4]
2000f564:	e50b300c 	str	r3, [fp, #-12]
2000f568:	e3a03006 	mov	r3, #6
2000f56c:	e54b3005 	strb	r3, [fp, #-5]
2000f570:	ea000010 	b	2000f5b8 <etharp_send_ip+0x78>
2000f574:	e55b3005 	ldrb	r3, [fp, #-5]
2000f578:	e2433001 	sub	r3, r3, #1
2000f57c:	e54b3005 	strb	r3, [fp, #-5]
2000f580:	e55b3005 	ldrb	r3, [fp, #-5]
2000f584:	e55b2005 	ldrb	r2, [fp, #-5]
2000f588:	e51b101c 	ldr	r1, [fp, #-28]	; 0xffffffe4
2000f58c:	e7d11002 	ldrb	r1, [r1, r2]
2000f590:	e51b200c 	ldr	r2, [fp, #-12]
2000f594:	e7c21003 	strb	r1, [r2, r3]
2000f598:	e55b3005 	ldrb	r3, [fp, #-5]
2000f59c:	e55b2005 	ldrb	r2, [fp, #-5]
2000f5a0:	e51b1018 	ldr	r1, [fp, #-24]	; 0xffffffe8
2000f5a4:	e7d11002 	ldrb	r1, [r1, r2]
2000f5a8:	e51b200c 	ldr	r2, [fp, #-12]
2000f5ac:	e0823003 	add	r3, r2, r3
2000f5b0:	e1a02001 	mov	r2, r1
2000f5b4:	e5c32006 	strb	r2, [r3, #6]
2000f5b8:	e55b3005 	ldrb	r3, [fp, #-5]
2000f5bc:	e3530000 	cmp	r3, #0
2000f5c0:	1affffeb 	bne	2000f574 <etharp_send_ip+0x34>
2000f5c4:	e3a00b02 	mov	r0, #2048	; 0x800
2000f5c8:	ebfff727 	bl	2000d26c <htons>
2000f5cc:	e1a03000 	mov	r3, r0
2000f5d0:	e1a02003 	mov	r2, r3
2000f5d4:	e51b300c 	ldr	r3, [fp, #-12]
2000f5d8:	e20210ff 	and	r1, r2, #255	; 0xff
2000f5dc:	e3a00000 	mov	r0, #0
2000f5e0:	e1801001 	orr	r1, r0, r1
2000f5e4:	e5c3100c 	strb	r1, [r3, #12]
2000f5e8:	e1a02422 	lsr	r2, r2, #8
2000f5ec:	e1a02802 	lsl	r2, r2, #16
2000f5f0:	e1a02822 	lsr	r2, r2, #16
2000f5f4:	e3a01000 	mov	r1, #0
2000f5f8:	e1812002 	orr	r2, r1, r2
2000f5fc:	e5c3200d 	strb	r2, [r3, #13]
2000f600:	e51b3010 	ldr	r3, [fp, #-16]
2000f604:	e5933018 	ldr	r3, [r3, #24]
2000f608:	e51b1014 	ldr	r1, [fp, #-20]	; 0xffffffec
2000f60c:	e51b0010 	ldr	r0, [fp, #-16]
2000f610:	e1a0e00f 	mov	lr, pc
2000f614:	e12fff13 	bx	r3
2000f618:	e1a03000 	mov	r3, r0
2000f61c:	e1a00003 	mov	r0, r3
2000f620:	e24bd004 	sub	sp, fp, #4
2000f624:	e8bd4800 	pop	{fp, lr}
2000f628:	e12fff1e 	bx	lr

2000f62c <update_arp_entry>:
2000f62c:	e92d4810 	push	{r4, fp, lr}
2000f630:	e28db008 	add	fp, sp, #8
2000f634:	e24dd01c 	sub	sp, sp, #28
2000f638:	e50b0018 	str	r0, [fp, #-24]	; 0xffffffe8
2000f63c:	e50b101c 	str	r1, [fp, #-28]	; 0xffffffe4
2000f640:	e50b2020 	str	r2, [fp, #-32]	; 0xffffffe0
2000f644:	e54b3021 	strb	r3, [fp, #-33]	; 0xffffffdf
2000f648:	e51b301c 	ldr	r3, [fp, #-28]	; 0xffffffe4
2000f64c:	e3530000 	cmp	r3, #0
2000f650:	0a000027 	beq	2000f6f4 <update_arp_entry+0xc8>
2000f654:	e51b301c 	ldr	r3, [fp, #-28]	; 0xffffffe4
2000f658:	e5d32000 	ldrb	r2, [r3]
2000f65c:	e5d31001 	ldrb	r1, [r3, #1]
2000f660:	e1a01401 	lsl	r1, r1, #8
2000f664:	e1812002 	orr	r2, r1, r2
2000f668:	e5d31002 	ldrb	r1, [r3, #2]
2000f66c:	e1a01801 	lsl	r1, r1, #16
2000f670:	e1812002 	orr	r2, r1, r2
2000f674:	e5d33003 	ldrb	r3, [r3, #3]
2000f678:	e1a03c03 	lsl	r3, r3, #24
2000f67c:	e1833002 	orr	r3, r3, r2
2000f680:	e3530000 	cmp	r3, #0
2000f684:	0a00001a 	beq	2000f6f4 <update_arp_entry+0xc8>
2000f688:	e51b1018 	ldr	r1, [fp, #-24]	; 0xffffffe8
2000f68c:	e51b001c 	ldr	r0, [fp, #-28]	; 0xffffffe4
2000f690:	ebfff73a 	bl	2000d380 <ip_addr_isbroadcast>
2000f694:	e1a03000 	mov	r3, r0
2000f698:	e3530000 	cmp	r3, #0
2000f69c:	1a000014 	bne	2000f6f4 <update_arp_entry+0xc8>
2000f6a0:	e51b301c 	ldr	r3, [fp, #-28]	; 0xffffffe4
2000f6a4:	e5d32000 	ldrb	r2, [r3]
2000f6a8:	e5d31001 	ldrb	r1, [r3, #1]
2000f6ac:	e1a01401 	lsl	r1, r1, #8
2000f6b0:	e1812002 	orr	r2, r1, r2
2000f6b4:	e5d31002 	ldrb	r1, [r3, #2]
2000f6b8:	e1a01801 	lsl	r1, r1, #16
2000f6bc:	e1812002 	orr	r2, r1, r2
2000f6c0:	e5d33003 	ldrb	r3, [r3, #3]
2000f6c4:	e1a03c03 	lsl	r3, r3, #24
2000f6c8:	e1833002 	orr	r3, r3, r2
2000f6cc:	e1a04003 	mov	r4, r3
2000f6d0:	e3a0020f 	mov	r0, #-268435456	; 0xf0000000
2000f6d4:	ebfff71e 	bl	2000d354 <ntohl>
2000f6d8:	e1a03000 	mov	r3, r0
2000f6dc:	e0044003 	and	r4, r4, r3
2000f6e0:	e3a0020e 	mov	r0, #-536870912	; 0xe0000000
2000f6e4:	ebfff71a 	bl	2000d354 <ntohl>
2000f6e8:	e1a03000 	mov	r3, r0
2000f6ec:	e1540003 	cmp	r4, r3
2000f6f0:	1a000001 	bne	2000f6fc <update_arp_entry+0xd0>
2000f6f4:	e3a030f6 	mov	r3, #246	; 0xf6
2000f6f8:	ea000032 	b	2000f7c8 <update_arp_entry+0x19c>
2000f6fc:	e55b3021 	ldrb	r3, [fp, #-33]	; 0xffffffdf
2000f700:	e1a01003 	mov	r1, r3
2000f704:	e51b001c 	ldr	r0, [fp, #-28]	; 0xffffffe4
2000f708:	ebfffe8a 	bl	2000f138 <find_entry>
2000f70c:	e1a03000 	mov	r3, r0
2000f710:	e54b300e 	strb	r3, [fp, #-14]
2000f714:	e15b30de 	ldrsb	r3, [fp, #-14]
2000f718:	e3530000 	cmp	r3, #0
2000f71c:	aa000001 	bge	2000f728 <update_arp_entry+0xfc>
2000f720:	e55b300e 	ldrb	r3, [fp, #-14]
2000f724:	ea000027 	b	2000f7c8 <update_arp_entry+0x19c>
2000f728:	e15b30de 	ldrsb	r3, [fp, #-14]
2000f72c:	e59f20ac 	ldr	r2, [pc, #172]	; 2000f7e0 <update_arp_entry+0x1b4>
2000f730:	e1a03203 	lsl	r3, r3, #4
2000f734:	e0823003 	add	r3, r2, r3
2000f738:	e3a02002 	mov	r2, #2
2000f73c:	e5c3200a 	strb	r2, [r3, #10]
2000f740:	e15b30de 	ldrsb	r3, [fp, #-14]
2000f744:	e59f2094 	ldr	r2, [pc, #148]	; 2000f7e0 <update_arp_entry+0x1b4>
2000f748:	e1a03203 	lsl	r3, r3, #4
2000f74c:	e0823003 	add	r3, r2, r3
2000f750:	e51b2018 	ldr	r2, [fp, #-24]	; 0xffffffe8
2000f754:	e583200c 	str	r2, [r3, #12]
2000f758:	e3a03006 	mov	r3, #6
2000f75c:	e54b300d 	strb	r3, [fp, #-13]
2000f760:	ea00000e 	b	2000f7a0 <update_arp_entry+0x174>
2000f764:	e55b300d 	ldrb	r3, [fp, #-13]
2000f768:	e2433001 	sub	r3, r3, #1
2000f76c:	e54b300d 	strb	r3, [fp, #-13]
2000f770:	e15b20de 	ldrsb	r2, [fp, #-14]
2000f774:	e55b300d 	ldrb	r3, [fp, #-13]
2000f778:	e55b100d 	ldrb	r1, [fp, #-13]
2000f77c:	e51b0020 	ldr	r0, [fp, #-32]	; 0xffffffe0
2000f780:	e7d00001 	ldrb	r0, [r0, r1]
2000f784:	e59f1054 	ldr	r1, [pc, #84]	; 2000f7e0 <update_arp_entry+0x1b4>
2000f788:	e1a02202 	lsl	r2, r2, #4
2000f78c:	e0812002 	add	r2, r1, r2
2000f790:	e0823003 	add	r3, r2, r3
2000f794:	e2833004 	add	r3, r3, #4
2000f798:	e1a02000 	mov	r2, r0
2000f79c:	e5c32000 	strb	r2, [r3]
2000f7a0:	e55b300d 	ldrb	r3, [fp, #-13]
2000f7a4:	e3530000 	cmp	r3, #0
2000f7a8:	1affffed 	bne	2000f764 <update_arp_entry+0x138>
2000f7ac:	e15b30de 	ldrsb	r3, [fp, #-14]
2000f7b0:	e59f2028 	ldr	r2, [pc, #40]	; 2000f7e0 <update_arp_entry+0x1b4>
2000f7b4:	e1a03203 	lsl	r3, r3, #4
2000f7b8:	e0823003 	add	r3, r2, r3
2000f7bc:	e3a02000 	mov	r2, #0
2000f7c0:	e5c3200b 	strb	r2, [r3, #11]
2000f7c4:	e3a03000 	mov	r3, #0
2000f7c8:	e1a03c03 	lsl	r3, r3, #24
2000f7cc:	e1a03c43 	asr	r3, r3, #24
2000f7d0:	e1a00003 	mov	r0, r3
2000f7d4:	e24bd008 	sub	sp, fp, #8
2000f7d8:	e8bd4810 	pop	{r4, fp, lr}
2000f7dc:	e12fff1e 	bx	lr
2000f7e0:	200151c4 	.word	0x200151c4

2000f7e4 <etharp_find_addr>:
2000f7e4:	e92d4800 	push	{fp, lr}
2000f7e8:	e28db004 	add	fp, sp, #4
2000f7ec:	e24dd018 	sub	sp, sp, #24
2000f7f0:	e50b0010 	str	r0, [fp, #-16]
2000f7f4:	e50b1014 	str	r1, [fp, #-20]	; 0xffffffec
2000f7f8:	e50b2018 	str	r2, [fp, #-24]	; 0xffffffe8
2000f7fc:	e50b301c 	str	r3, [fp, #-28]	; 0xffffffe4
2000f800:	e3a01002 	mov	r1, #2
2000f804:	e51b0014 	ldr	r0, [fp, #-20]	; 0xffffffec
2000f808:	ebfffe4a 	bl	2000f138 <find_entry>
2000f80c:	e1a03000 	mov	r3, r0
2000f810:	e54b3005 	strb	r3, [fp, #-5]
2000f814:	e15b30d5 	ldrsb	r3, [fp, #-5]
2000f818:	e3530000 	cmp	r3, #0
2000f81c:	ba000015 	blt	2000f878 <etharp_find_addr+0x94>
2000f820:	e15b30d5 	ldrsb	r3, [fp, #-5]
2000f824:	e59f2068 	ldr	r2, [pc, #104]	; 2000f894 <etharp_find_addr+0xb0>
2000f828:	e1a03203 	lsl	r3, r3, #4
2000f82c:	e0823003 	add	r3, r2, r3
2000f830:	e5d3300a 	ldrb	r3, [r3, #10]
2000f834:	e3530002 	cmp	r3, #2
2000f838:	1a00000e 	bne	2000f878 <etharp_find_addr+0x94>
2000f83c:	e15b30d5 	ldrsb	r3, [fp, #-5]
2000f840:	e1a03203 	lsl	r3, r3, #4
2000f844:	e59f2048 	ldr	r2, [pc, #72]	; 2000f894 <etharp_find_addr+0xb0>
2000f848:	e0833002 	add	r3, r3, r2
2000f84c:	e2832004 	add	r2, r3, #4
2000f850:	e51b3018 	ldr	r3, [fp, #-24]	; 0xffffffe8
2000f854:	e5832000 	str	r2, [r3]
2000f858:	e15b30d5 	ldrsb	r3, [fp, #-5]
2000f85c:	e1a03203 	lsl	r3, r3, #4
2000f860:	e59f202c 	ldr	r2, [pc, #44]	; 2000f894 <etharp_find_addr+0xb0>
2000f864:	e0832002 	add	r2, r3, r2
2000f868:	e51b301c 	ldr	r3, [fp, #-28]	; 0xffffffe4
2000f86c:	e5832000 	str	r2, [r3]
2000f870:	e55b3005 	ldrb	r3, [fp, #-5]
2000f874:	ea000000 	b	2000f87c <etharp_find_addr+0x98>
2000f878:	e3a030ff 	mov	r3, #255	; 0xff
2000f87c:	e1a03c03 	lsl	r3, r3, #24
2000f880:	e1a03c43 	asr	r3, r3, #24
2000f884:	e1a00003 	mov	r0, r3
2000f888:	e24bd004 	sub	sp, fp, #4
2000f88c:	e8bd4800 	pop	{fp, lr}
2000f890:	e12fff1e 	bx	lr
2000f894:	200151c4 	.word	0x200151c4

2000f898 <etharp_ip_input>:
2000f898:	e92d4800 	push	{fp, lr}
2000f89c:	e28db004 	add	fp, sp, #4
2000f8a0:	e24dd010 	sub	sp, sp, #16
2000f8a4:	e50b0010 	str	r0, [fp, #-16]
2000f8a8:	e50b1014 	str	r1, [fp, #-20]	; 0xffffffec
2000f8ac:	e51b3010 	ldr	r3, [fp, #-16]
2000f8b0:	e3530000 	cmp	r3, #0
2000f8b4:	0a000021 	beq	2000f940 <etharp_ip_input+0xa8>
2000f8b8:	e51b3014 	ldr	r3, [fp, #-20]	; 0xffffffec
2000f8bc:	e5933004 	ldr	r3, [r3, #4]
2000f8c0:	e50b3008 	str	r3, [fp, #-8]
2000f8c4:	e51b3008 	ldr	r3, [fp, #-8]
2000f8c8:	e283300e 	add	r3, r3, #14
2000f8cc:	e50b300c 	str	r3, [fp, #-12]
2000f8d0:	e51b300c 	ldr	r3, [fp, #-12]
2000f8d4:	e5d3200c 	ldrb	r2, [r3, #12]
2000f8d8:	e5d3100d 	ldrb	r1, [r3, #13]
2000f8dc:	e1a01401 	lsl	r1, r1, #8
2000f8e0:	e1812002 	orr	r2, r1, r2
2000f8e4:	e5d3100e 	ldrb	r1, [r3, #14]
2000f8e8:	e1a01801 	lsl	r1, r1, #16
2000f8ec:	e1812002 	orr	r2, r1, r2
2000f8f0:	e5d3300f 	ldrb	r3, [r3, #15]
2000f8f4:	e1a03c03 	lsl	r3, r3, #24
2000f8f8:	e1833002 	orr	r3, r3, r2
2000f8fc:	e1a02003 	mov	r2, r3
2000f900:	e51b3010 	ldr	r3, [fp, #-16]
2000f904:	e5933004 	ldr	r3, [r3, #4]
2000f908:	e0222003 	eor	r2, r2, r3
2000f90c:	e51b3010 	ldr	r3, [fp, #-16]
2000f910:	e5933008 	ldr	r3, [r3, #8]
2000f914:	e0033002 	and	r3, r3, r2
2000f918:	e3530000 	cmp	r3, #0
2000f91c:	1a000009 	bne	2000f948 <etharp_ip_input+0xb0>
2000f920:	e51b300c 	ldr	r3, [fp, #-12]
2000f924:	e283100c 	add	r1, r3, #12
2000f928:	e51b3008 	ldr	r3, [fp, #-8]
2000f92c:	e2832006 	add	r2, r3, #6
2000f930:	e3a03000 	mov	r3, #0
2000f934:	e51b0010 	ldr	r0, [fp, #-16]
2000f938:	ebffff3b 	bl	2000f62c <update_arp_entry>
2000f93c:	ea000002 	b	2000f94c <etharp_ip_input+0xb4>
2000f940:	e1a00000 	nop			; (mov r0, r0)
2000f944:	ea000000 	b	2000f94c <etharp_ip_input+0xb4>
2000f948:	e1a00000 	nop			; (mov r0, r0)
2000f94c:	e24bd004 	sub	sp, fp, #4
2000f950:	e8bd4800 	pop	{fp, lr}
2000f954:	e12fff1e 	bx	lr

2000f958 <etharp_arp_input>:
2000f958:	e92d4810 	push	{r4, fp, lr}
2000f95c:	e28db008 	add	fp, sp, #8
2000f960:	e24dd02c 	sub	sp, sp, #44	; 0x2c
2000f964:	e50b0028 	str	r0, [fp, #-40]	; 0xffffffd8
2000f968:	e50b102c 	str	r1, [fp, #-44]	; 0xffffffd4
2000f96c:	e50b2030 	str	r2, [fp, #-48]	; 0xffffffd0
2000f970:	e51b3028 	ldr	r3, [fp, #-40]	; 0xffffffd8
2000f974:	e3530000 	cmp	r3, #0
2000f978:	0a0000fa 	beq	2000fd68 <etharp_arp_input+0x410>
2000f97c:	e51b3030 	ldr	r3, [fp, #-48]	; 0xffffffd0
2000f980:	e1d330ba 	ldrh	r3, [r3, #10]
2000f984:	e3530029 	cmp	r3, #41	; 0x29
2000f988:	8a000010 	bhi	2000f9d0 <etharp_arp_input+0x78>
2000f98c:	e59f33e4 	ldr	r3, [pc, #996]	; 2000fd78 <etharp_arp_input+0x420>
2000f990:	e1d332b2 	ldrh	r3, [r3, #34]	; 0x22
2000f994:	e2833001 	add	r3, r3, #1
2000f998:	e1a03803 	lsl	r3, r3, #16
2000f99c:	e1a03823 	lsr	r3, r3, #16
2000f9a0:	e59f23d0 	ldr	r2, [pc, #976]	; 2000fd78 <etharp_arp_input+0x420>
2000f9a4:	e1c232b2 	strh	r3, [r2, #34]	; 0x22
2000f9a8:	e59f33c8 	ldr	r3, [pc, #968]	; 2000fd78 <etharp_arp_input+0x420>
2000f9ac:	e1d331be 	ldrh	r3, [r3, #30]
2000f9b0:	e2833001 	add	r3, r3, #1
2000f9b4:	e1a03803 	lsl	r3, r3, #16
2000f9b8:	e1a03823 	lsr	r3, r3, #16
2000f9bc:	e59f23b4 	ldr	r2, [pc, #948]	; 2000fd78 <etharp_arp_input+0x420>
2000f9c0:	e1c231be 	strh	r3, [r2, #30]
2000f9c4:	e51b0030 	ldr	r0, [fp, #-48]	; 0xffffffd0
2000f9c8:	ebffc8a9 	bl	20001c74 <pbuf_free>
2000f9cc:	ea0000e6 	b	2000fd6c <etharp_arp_input+0x414>
2000f9d0:	e51b3030 	ldr	r3, [fp, #-48]	; 0xffffffd0
2000f9d4:	e5933004 	ldr	r3, [r3, #4]
2000f9d8:	e50b3014 	str	r3, [fp, #-20]	; 0xffffffec
2000f9dc:	e51b3014 	ldr	r3, [fp, #-20]	; 0xffffffec
2000f9e0:	e283300e 	add	r3, r3, #14
2000f9e4:	e50b3018 	str	r3, [fp, #-24]	; 0xffffffe8
2000f9e8:	e51b3018 	ldr	r3, [fp, #-24]	; 0xffffffe8
2000f9ec:	e5d32000 	ldrb	r2, [r3]
2000f9f0:	e5d33001 	ldrb	r3, [r3, #1]
2000f9f4:	e1a03403 	lsl	r3, r3, #8
2000f9f8:	e1833002 	orr	r3, r3, r2
2000f9fc:	e1a03803 	lsl	r3, r3, #16
2000fa00:	e1a04823 	lsr	r4, r3, #16
2000fa04:	e3a00001 	mov	r0, #1
2000fa08:	ebfff617 	bl	2000d26c <htons>
2000fa0c:	e1a03000 	mov	r3, r0
2000fa10:	e1540003 	cmp	r4, r3
2000fa14:	1a000023 	bne	2000faa8 <etharp_arp_input+0x150>
2000fa18:	e51b3018 	ldr	r3, [fp, #-24]	; 0xffffffe8
2000fa1c:	e5d32004 	ldrb	r2, [r3, #4]
2000fa20:	e5d33005 	ldrb	r3, [r3, #5]
2000fa24:	e1a03403 	lsl	r3, r3, #8
2000fa28:	e1833002 	orr	r3, r3, r2
2000fa2c:	e1a03803 	lsl	r3, r3, #16
2000fa30:	e1a04823 	lsr	r4, r3, #16
2000fa34:	e59f0340 	ldr	r0, [pc, #832]	; 2000fd7c <etharp_arp_input+0x424>
2000fa38:	ebfff60b 	bl	2000d26c <htons>
2000fa3c:	e1a03000 	mov	r3, r0
2000fa40:	e1540003 	cmp	r4, r3
2000fa44:	1a000017 	bne	2000faa8 <etharp_arp_input+0x150>
2000fa48:	e51b3018 	ldr	r3, [fp, #-24]	; 0xffffffe8
2000fa4c:	e5d32002 	ldrb	r2, [r3, #2]
2000fa50:	e5d33003 	ldrb	r3, [r3, #3]
2000fa54:	e1a03403 	lsl	r3, r3, #8
2000fa58:	e1833002 	orr	r3, r3, r2
2000fa5c:	e1a03803 	lsl	r3, r3, #16
2000fa60:	e1a04823 	lsr	r4, r3, #16
2000fa64:	e3a00b02 	mov	r0, #2048	; 0x800
2000fa68:	ebfff5ff 	bl	2000d26c <htons>
2000fa6c:	e1a03000 	mov	r3, r0
2000fa70:	e1540003 	cmp	r4, r3
2000fa74:	1a00000b 	bne	2000faa8 <etharp_arp_input+0x150>
2000fa78:	e51b3014 	ldr	r3, [fp, #-20]	; 0xffffffec
2000fa7c:	e5d3200c 	ldrb	r2, [r3, #12]
2000fa80:	e5d3300d 	ldrb	r3, [r3, #13]
2000fa84:	e1a03403 	lsl	r3, r3, #8
2000fa88:	e1833002 	orr	r3, r3, r2
2000fa8c:	e1a03803 	lsl	r3, r3, #16
2000fa90:	e1a04823 	lsr	r4, r3, #16
2000fa94:	e59f02e4 	ldr	r0, [pc, #740]	; 2000fd80 <etharp_arp_input+0x428>
2000fa98:	ebfff5f3 	bl	2000d26c <htons>
2000fa9c:	e1a03000 	mov	r3, r0
2000faa0:	e1540003 	cmp	r4, r3
2000faa4:	0a000010 	beq	2000faec <etharp_arp_input+0x194>
2000faa8:	e59f32c8 	ldr	r3, [pc, #712]	; 2000fd78 <etharp_arp_input+0x420>
2000faac:	e1d332b8 	ldrh	r3, [r3, #40]	; 0x28
2000fab0:	e2833001 	add	r3, r3, #1
2000fab4:	e1a03803 	lsl	r3, r3, #16
2000fab8:	e1a03823 	lsr	r3, r3, #16
2000fabc:	e59f22b4 	ldr	r2, [pc, #692]	; 2000fd78 <etharp_arp_input+0x420>
2000fac0:	e1c232b8 	strh	r3, [r2, #40]	; 0x28
2000fac4:	e59f32ac 	ldr	r3, [pc, #684]	; 2000fd78 <etharp_arp_input+0x420>
2000fac8:	e1d331be 	ldrh	r3, [r3, #30]
2000facc:	e2833001 	add	r3, r3, #1
2000fad0:	e1a03803 	lsl	r3, r3, #16
2000fad4:	e1a03823 	lsr	r3, r3, #16
2000fad8:	e59f2298 	ldr	r2, [pc, #664]	; 2000fd78 <etharp_arp_input+0x420>
2000fadc:	e1c231be 	strh	r3, [r2, #30]
2000fae0:	e51b0030 	ldr	r0, [fp, #-48]	; 0xffffffd0
2000fae4:	ebffc862 	bl	20001c74 <pbuf_free>
2000fae8:	ea00009f 	b	2000fd6c <etharp_arp_input+0x414>
2000faec:	e59f3284 	ldr	r3, [pc, #644]	; 2000fd78 <etharp_arp_input+0x420>
2000faf0:	e1d331ba 	ldrh	r3, [r3, #26]
2000faf4:	e2833001 	add	r3, r3, #1
2000faf8:	e1a03803 	lsl	r3, r3, #16
2000fafc:	e1a03823 	lsr	r3, r3, #16
2000fb00:	e59f2270 	ldr	r2, [pc, #624]	; 2000fd78 <etharp_arp_input+0x420>
2000fb04:	e1c231ba 	strh	r3, [r2, #26]
2000fb08:	e51b3018 	ldr	r3, [fp, #-24]	; 0xffffffe8
2000fb0c:	e283100e 	add	r1, r3, #14
2000fb10:	e24b301c 	sub	r3, fp, #28
2000fb14:	e3a02004 	mov	r2, #4
2000fb18:	e1a00003 	mov	r0, r3
2000fb1c:	eb00102a 	bl	20013bcc <__rom_data_end>
2000fb20:	e51b3018 	ldr	r3, [fp, #-24]	; 0xffffffe8
2000fb24:	e2831018 	add	r1, r3, #24
2000fb28:	e24b3020 	sub	r3, fp, #32
2000fb2c:	e3a02004 	mov	r2, #4
2000fb30:	e1a00003 	mov	r0, r3
2000fb34:	eb001024 	bl	20013bcc <__rom_data_end>
2000fb38:	e51b3028 	ldr	r3, [fp, #-40]	; 0xffffffd8
2000fb3c:	e5933004 	ldr	r3, [r3, #4]
2000fb40:	e3530000 	cmp	r3, #0
2000fb44:	1a000002 	bne	2000fb54 <etharp_arp_input+0x1fc>
2000fb48:	e3a03000 	mov	r3, #0
2000fb4c:	e54b300e 	strb	r3, [fp, #-14]
2000fb50:	ea000007 	b	2000fb74 <etharp_arp_input+0x21c>
2000fb54:	e51b2020 	ldr	r2, [fp, #-32]	; 0xffffffe0
2000fb58:	e51b3028 	ldr	r3, [fp, #-40]	; 0xffffffd8
2000fb5c:	e5933004 	ldr	r3, [r3, #4]
2000fb60:	e1520003 	cmp	r2, r3
2000fb64:	03a03001 	moveq	r3, #1
2000fb68:	13a03000 	movne	r3, #0
2000fb6c:	e20330ff 	and	r3, r3, #255	; 0xff
2000fb70:	e54b300e 	strb	r3, [fp, #-14]
2000fb74:	e55b300e 	ldrb	r3, [fp, #-14]
2000fb78:	e3530000 	cmp	r3, #0
2000fb7c:	0a000006 	beq	2000fb9c <etharp_arp_input+0x244>
2000fb80:	e51b3018 	ldr	r3, [fp, #-24]	; 0xffffffe8
2000fb84:	e2832008 	add	r2, r3, #8
2000fb88:	e24b101c 	sub	r1, fp, #28
2000fb8c:	e3a03001 	mov	r3, #1
2000fb90:	e51b0028 	ldr	r0, [fp, #-40]	; 0xffffffd8
2000fb94:	ebfffea4 	bl	2000f62c <update_arp_entry>
2000fb98:	ea000005 	b	2000fbb4 <etharp_arp_input+0x25c>
2000fb9c:	e51b3018 	ldr	r3, [fp, #-24]	; 0xffffffe8
2000fba0:	e2832008 	add	r2, r3, #8
2000fba4:	e24b101c 	sub	r1, fp, #28
2000fba8:	e3a03000 	mov	r3, #0
2000fbac:	e51b0028 	ldr	r0, [fp, #-40]	; 0xffffffd8
2000fbb0:	ebfffe9d 	bl	2000f62c <update_arp_entry>
2000fbb4:	e51b3018 	ldr	r3, [fp, #-24]	; 0xffffffe8
2000fbb8:	e5d32006 	ldrb	r2, [r3, #6]
2000fbbc:	e5d33007 	ldrb	r3, [r3, #7]
2000fbc0:	e1a03403 	lsl	r3, r3, #8
2000fbc4:	e1833002 	orr	r3, r3, r2
2000fbc8:	e1a03803 	lsl	r3, r3, #16
2000fbcc:	e1a03823 	lsr	r3, r3, #16
2000fbd0:	e1a00003 	mov	r0, r3
2000fbd4:	ebfff5a4 	bl	2000d26c <htons>
2000fbd8:	e1a03000 	mov	r3, r0
2000fbdc:	e3530001 	cmp	r3, #1
2000fbe0:	0a000002 	beq	2000fbf0 <etharp_arp_input+0x298>
2000fbe4:	e3530002 	cmp	r3, #2
2000fbe8:	0a000058 	beq	2000fd50 <etharp_arp_input+0x3f8>
2000fbec:	ea00004f 	b	2000fd30 <etharp_arp_input+0x3d8>
2000fbf0:	e55b300e 	ldrb	r3, [fp, #-14]
2000fbf4:	e3530000 	cmp	r3, #0
2000fbf8:	0a000056 	beq	2000fd58 <etharp_arp_input+0x400>
2000fbfc:	e3a00002 	mov	r0, #2
2000fc00:	ebfff599 	bl	2000d26c <htons>
2000fc04:	e1a03000 	mov	r3, r0
2000fc08:	e1a02003 	mov	r2, r3
2000fc0c:	e51b3018 	ldr	r3, [fp, #-24]	; 0xffffffe8
2000fc10:	e20210ff 	and	r1, r2, #255	; 0xff
2000fc14:	e3a00000 	mov	r0, #0
2000fc18:	e1801001 	orr	r1, r0, r1
2000fc1c:	e5c31006 	strb	r1, [r3, #6]
2000fc20:	e1a02422 	lsr	r2, r2, #8
2000fc24:	e1a02802 	lsl	r2, r2, #16
2000fc28:	e1a02822 	lsr	r2, r2, #16
2000fc2c:	e3a01000 	mov	r1, #0
2000fc30:	e1812002 	orr	r2, r1, r2
2000fc34:	e5c32007 	strb	r2, [r3, #7]
2000fc38:	e51b2018 	ldr	r2, [fp, #-24]	; 0xffffffe8
2000fc3c:	e51b3018 	ldr	r3, [fp, #-24]	; 0xffffffe8
2000fc40:	e2820018 	add	r0, r2, #24
2000fc44:	e283300e 	add	r3, r3, #14
2000fc48:	e3a02004 	mov	r2, #4
2000fc4c:	e1a01003 	mov	r1, r3
2000fc50:	eb000fdd 	bl	20013bcc <__rom_data_end>
2000fc54:	e51b3018 	ldr	r3, [fp, #-24]	; 0xffffffe8
2000fc58:	e283000e 	add	r0, r3, #14
2000fc5c:	e51b3028 	ldr	r3, [fp, #-40]	; 0xffffffd8
2000fc60:	e2833004 	add	r3, r3, #4
2000fc64:	e3a02004 	mov	r2, #4
2000fc68:	e1a01003 	mov	r1, r3
2000fc6c:	eb000fd6 	bl	20013bcc <__rom_data_end>
2000fc70:	e3a03006 	mov	r3, #6
2000fc74:	e54b300d 	strb	r3, [fp, #-13]
2000fc78:	ea000022 	b	2000fd08 <etharp_arp_input+0x3b0>
2000fc7c:	e55b300d 	ldrb	r3, [fp, #-13]
2000fc80:	e2433001 	sub	r3, r3, #1
2000fc84:	e54b300d 	strb	r3, [fp, #-13]
2000fc88:	e55b300d 	ldrb	r3, [fp, #-13]
2000fc8c:	e55b200d 	ldrb	r2, [fp, #-13]
2000fc90:	e51b1018 	ldr	r1, [fp, #-24]	; 0xffffffe8
2000fc94:	e0812002 	add	r2, r1, r2
2000fc98:	e5d21008 	ldrb	r1, [r2, #8]
2000fc9c:	e51b2018 	ldr	r2, [fp, #-24]	; 0xffffffe8
2000fca0:	e0823003 	add	r3, r2, r3
2000fca4:	e1a02001 	mov	r2, r1
2000fca8:	e5c32012 	strb	r2, [r3, #18]
2000fcac:	e55b300d 	ldrb	r3, [fp, #-13]
2000fcb0:	e55b200d 	ldrb	r2, [fp, #-13]
2000fcb4:	e51b1018 	ldr	r1, [fp, #-24]	; 0xffffffe8
2000fcb8:	e0812002 	add	r2, r1, r2
2000fcbc:	e5d21008 	ldrb	r1, [r2, #8]
2000fcc0:	e51b2014 	ldr	r2, [fp, #-20]	; 0xffffffec
2000fcc4:	e7c21003 	strb	r1, [r2, r3]
2000fcc8:	e55b300d 	ldrb	r3, [fp, #-13]
2000fccc:	e55b200d 	ldrb	r2, [fp, #-13]
2000fcd0:	e51b102c 	ldr	r1, [fp, #-44]	; 0xffffffd4
2000fcd4:	e7d11002 	ldrb	r1, [r1, r2]
2000fcd8:	e51b2018 	ldr	r2, [fp, #-24]	; 0xffffffe8
2000fcdc:	e0823003 	add	r3, r2, r3
2000fce0:	e1a02001 	mov	r2, r1
2000fce4:	e5c32008 	strb	r2, [r3, #8]
2000fce8:	e55b300d 	ldrb	r3, [fp, #-13]
2000fcec:	e55b200d 	ldrb	r2, [fp, #-13]
2000fcf0:	e51b102c 	ldr	r1, [fp, #-44]	; 0xffffffd4
2000fcf4:	e7d11002 	ldrb	r1, [r1, r2]
2000fcf8:	e51b2014 	ldr	r2, [fp, #-20]	; 0xffffffec
2000fcfc:	e0823003 	add	r3, r2, r3
2000fd00:	e1a02001 	mov	r2, r1
2000fd04:	e5c32006 	strb	r2, [r3, #6]
2000fd08:	e55b300d 	ldrb	r3, [fp, #-13]
2000fd0c:	e3530000 	cmp	r3, #0
2000fd10:	1affffd9 	bne	2000fc7c <etharp_arp_input+0x324>
2000fd14:	e51b3028 	ldr	r3, [fp, #-40]	; 0xffffffd8
2000fd18:	e5933018 	ldr	r3, [r3, #24]
2000fd1c:	e51b1030 	ldr	r1, [fp, #-48]	; 0xffffffd0
2000fd20:	e51b0028 	ldr	r0, [fp, #-40]	; 0xffffffd8
2000fd24:	e1a0e00f 	mov	lr, pc
2000fd28:	e12fff13 	bx	r3
2000fd2c:	ea000009 	b	2000fd58 <etharp_arp_input+0x400>
2000fd30:	e59f3040 	ldr	r3, [pc, #64]	; 2000fd78 <etharp_arp_input+0x420>
2000fd34:	e1d332bc 	ldrh	r3, [r3, #44]	; 0x2c
2000fd38:	e2833001 	add	r3, r3, #1
2000fd3c:	e1a03803 	lsl	r3, r3, #16
2000fd40:	e1a03823 	lsr	r3, r3, #16
2000fd44:	e59f202c 	ldr	r2, [pc, #44]	; 2000fd78 <etharp_arp_input+0x420>
2000fd48:	e1c232bc 	strh	r3, [r2, #44]	; 0x2c
2000fd4c:	ea000002 	b	2000fd5c <etharp_arp_input+0x404>
2000fd50:	e1a00000 	nop			; (mov r0, r0)
2000fd54:	ea000000 	b	2000fd5c <etharp_arp_input+0x404>
2000fd58:	e1a00000 	nop			; (mov r0, r0)
2000fd5c:	e51b0030 	ldr	r0, [fp, #-48]	; 0xffffffd0
2000fd60:	ebffc7c3 	bl	20001c74 <pbuf_free>
2000fd64:	ea000000 	b	2000fd6c <etharp_arp_input+0x414>
2000fd68:	e1a00000 	nop			; (mov r0, r0)
2000fd6c:	e24bd008 	sub	sp, fp, #8
2000fd70:	e8bd4810 	pop	{r4, fp, lr}
2000fd74:	e12fff1e 	bx	lr
2000fd78:	20015630 	.word	0x20015630
2000fd7c:	00000604 	.word	0x00000604
2000fd80:	00000806 	.word	0x00000806

2000fd84 <etharp_output>:
2000fd84:	e92d4810 	push	{r4, fp, lr}
2000fd88:	e28db008 	add	fp, sp, #8
2000fd8c:	e24dd024 	sub	sp, sp, #36	; 0x24
2000fd90:	e50b0020 	str	r0, [fp, #-32]	; 0xffffffe0
2000fd94:	e50b1024 	str	r1, [fp, #-36]	; 0xffffffdc
2000fd98:	e50b2028 	str	r2, [fp, #-40]	; 0xffffffd8
2000fd9c:	e3a0100e 	mov	r1, #14
2000fda0:	e51b0024 	ldr	r0, [fp, #-36]	; 0xffffffdc
2000fda4:	ebffc748 	bl	20001acc <pbuf_header>
2000fda8:	e1a03000 	mov	r3, r0
2000fdac:	e3530000 	cmp	r3, #0
2000fdb0:	0a000008 	beq	2000fdd8 <etharp_output+0x54>
2000fdb4:	e59f3254 	ldr	r3, [pc, #596]	; 20010010 <etharp_output+0x28c>
2000fdb8:	e1d330ba 	ldrh	r3, [r3, #10]
2000fdbc:	e2833001 	add	r3, r3, #1
2000fdc0:	e1a03803 	lsl	r3, r3, #16
2000fdc4:	e1a03823 	lsr	r3, r3, #16
2000fdc8:	e59f2240 	ldr	r2, [pc, #576]	; 20010010 <etharp_output+0x28c>
2000fdcc:	e1c230ba 	strh	r3, [r2, #10]
2000fdd0:	e3a030fe 	mov	r3, #254	; 0xfe
2000fdd4:	ea000087 	b	2000fff8 <etharp_output+0x274>
2000fdd8:	e3a03000 	mov	r3, #0
2000fddc:	e50b3010 	str	r3, [fp, #-16]
2000fde0:	e51b1020 	ldr	r1, [fp, #-32]	; 0xffffffe0
2000fde4:	e51b0028 	ldr	r0, [fp, #-40]	; 0xffffffd8
2000fde8:	ebfff564 	bl	2000d380 <ip_addr_isbroadcast>
2000fdec:	e1a03000 	mov	r3, r0
2000fdf0:	e3530000 	cmp	r3, #0
2000fdf4:	0a000002 	beq	2000fe04 <etharp_output+0x80>
2000fdf8:	e59f3214 	ldr	r3, [pc, #532]	; 20010014 <etharp_output+0x290>
2000fdfc:	e50b3010 	str	r3, [fp, #-16]
2000fe00:	ea000075 	b	2000ffdc <etharp_output+0x258>
2000fe04:	e51b3028 	ldr	r3, [fp, #-40]	; 0xffffffd8
2000fe08:	e5d32000 	ldrb	r2, [r3]
2000fe0c:	e5d31001 	ldrb	r1, [r3, #1]
2000fe10:	e1a01401 	lsl	r1, r1, #8
2000fe14:	e1812002 	orr	r2, r1, r2
2000fe18:	e5d31002 	ldrb	r1, [r3, #2]
2000fe1c:	e1a01801 	lsl	r1, r1, #16
2000fe20:	e1812002 	orr	r2, r1, r2
2000fe24:	e5d33003 	ldrb	r3, [r3, #3]
2000fe28:	e1a03c03 	lsl	r3, r3, #24
2000fe2c:	e1833002 	orr	r3, r3, r2
2000fe30:	e1a04003 	mov	r4, r3
2000fe34:	e3a0020f 	mov	r0, #-268435456	; 0xf0000000
2000fe38:	ebfff545 	bl	2000d354 <ntohl>
2000fe3c:	e1a03000 	mov	r3, r0
2000fe40:	e0044003 	and	r4, r4, r3
2000fe44:	e3a0020e 	mov	r0, #-536870912	; 0xe0000000
2000fe48:	ebfff541 	bl	2000d354 <ntohl>
2000fe4c:	e1a03000 	mov	r3, r0
2000fe50:	e1540003 	cmp	r4, r3
2000fe54:	1a00003c 	bne	2000ff4c <etharp_output+0x1c8>
2000fe58:	e3a03001 	mov	r3, #1
2000fe5c:	e54b3018 	strb	r3, [fp, #-24]	; 0xffffffe8
2000fe60:	e3a03000 	mov	r3, #0
2000fe64:	e54b3017 	strb	r3, [fp, #-23]	; 0xffffffe9
2000fe68:	e3a0305e 	mov	r3, #94	; 0x5e
2000fe6c:	e54b3016 	strb	r3, [fp, #-22]	; 0xffffffea
2000fe70:	e51b3028 	ldr	r3, [fp, #-40]	; 0xffffffd8
2000fe74:	e5d32000 	ldrb	r2, [r3]
2000fe78:	e5d31001 	ldrb	r1, [r3, #1]
2000fe7c:	e1a01401 	lsl	r1, r1, #8
2000fe80:	e1812002 	orr	r2, r1, r2
2000fe84:	e5d31002 	ldrb	r1, [r3, #2]
2000fe88:	e1a01801 	lsl	r1, r1, #16
2000fe8c:	e1812002 	orr	r2, r1, r2
2000fe90:	e5d33003 	ldrb	r3, [r3, #3]
2000fe94:	e1a03c03 	lsl	r3, r3, #24
2000fe98:	e1833002 	orr	r3, r3, r2
2000fe9c:	e1a00003 	mov	r0, r3
2000fea0:	ebfff52b 	bl	2000d354 <ntohl>
2000fea4:	e1a03000 	mov	r3, r0
2000fea8:	e1a03823 	lsr	r3, r3, #16
2000feac:	e20330ff 	and	r3, r3, #255	; 0xff
2000feb0:	e203307f 	and	r3, r3, #127	; 0x7f
2000feb4:	e20330ff 	and	r3, r3, #255	; 0xff
2000feb8:	e54b3015 	strb	r3, [fp, #-21]	; 0xffffffeb
2000febc:	e51b3028 	ldr	r3, [fp, #-40]	; 0xffffffd8
2000fec0:	e5d32000 	ldrb	r2, [r3]
2000fec4:	e5d31001 	ldrb	r1, [r3, #1]
2000fec8:	e1a01401 	lsl	r1, r1, #8
2000fecc:	e1812002 	orr	r2, r1, r2
2000fed0:	e5d31002 	ldrb	r1, [r3, #2]
2000fed4:	e1a01801 	lsl	r1, r1, #16
2000fed8:	e1812002 	orr	r2, r1, r2
2000fedc:	e5d33003 	ldrb	r3, [r3, #3]
2000fee0:	e1a03c03 	lsl	r3, r3, #24
2000fee4:	e1833002 	orr	r3, r3, r2
2000fee8:	e1a00003 	mov	r0, r3
2000feec:	ebfff518 	bl	2000d354 <ntohl>
2000fef0:	e1a03000 	mov	r3, r0
2000fef4:	e1a03423 	lsr	r3, r3, #8
2000fef8:	e20330ff 	and	r3, r3, #255	; 0xff
2000fefc:	e54b3014 	strb	r3, [fp, #-20]	; 0xffffffec
2000ff00:	e51b3028 	ldr	r3, [fp, #-40]	; 0xffffffd8
2000ff04:	e5d32000 	ldrb	r2, [r3]
2000ff08:	e5d31001 	ldrb	r1, [r3, #1]
2000ff0c:	e1a01401 	lsl	r1, r1, #8
2000ff10:	e1812002 	orr	r2, r1, r2
2000ff14:	e5d31002 	ldrb	r1, [r3, #2]
2000ff18:	e1a01801 	lsl	r1, r1, #16
2000ff1c:	e1812002 	orr	r2, r1, r2
2000ff20:	e5d33003 	ldrb	r3, [r3, #3]
2000ff24:	e1a03c03 	lsl	r3, r3, #24
2000ff28:	e1833002 	orr	r3, r3, r2
2000ff2c:	e1a00003 	mov	r0, r3
2000ff30:	ebfff507 	bl	2000d354 <ntohl>
2000ff34:	e1a03000 	mov	r3, r0
2000ff38:	e20330ff 	and	r3, r3, #255	; 0xff
2000ff3c:	e54b3013 	strb	r3, [fp, #-19]	; 0xffffffed
2000ff40:	e24b3018 	sub	r3, fp, #24
2000ff44:	e50b3010 	str	r3, [fp, #-16]
2000ff48:	ea000023 	b	2000ffdc <etharp_output+0x258>
2000ff4c:	e51b3028 	ldr	r3, [fp, #-40]	; 0xffffffd8
2000ff50:	e5d32000 	ldrb	r2, [r3]
2000ff54:	e5d31001 	ldrb	r1, [r3, #1]
2000ff58:	e1a01401 	lsl	r1, r1, #8
2000ff5c:	e1812002 	orr	r2, r1, r2
2000ff60:	e5d31002 	ldrb	r1, [r3, #2]
2000ff64:	e1a01801 	lsl	r1, r1, #16
2000ff68:	e1812002 	orr	r2, r1, r2
2000ff6c:	e5d33003 	ldrb	r3, [r3, #3]
2000ff70:	e1a03c03 	lsl	r3, r3, #24
2000ff74:	e1833002 	orr	r3, r3, r2
2000ff78:	e1a02003 	mov	r2, r3
2000ff7c:	e51b3020 	ldr	r3, [fp, #-32]	; 0xffffffe0
2000ff80:	e5933004 	ldr	r3, [r3, #4]
2000ff84:	e0222003 	eor	r2, r2, r3
2000ff88:	e51b3020 	ldr	r3, [fp, #-32]	; 0xffffffe0
2000ff8c:	e5933008 	ldr	r3, [r3, #8]
2000ff90:	e0033002 	and	r3, r3, r2
2000ff94:	e3530000 	cmp	r3, #0
2000ff98:	0a000009 	beq	2000ffc4 <etharp_output+0x240>
2000ff9c:	e51b3020 	ldr	r3, [fp, #-32]	; 0xffffffe0
2000ffa0:	e593300c 	ldr	r3, [r3, #12]
2000ffa4:	e3530000 	cmp	r3, #0
2000ffa8:	0a000003 	beq	2000ffbc <etharp_output+0x238>
2000ffac:	e51b3020 	ldr	r3, [fp, #-32]	; 0xffffffe0
2000ffb0:	e283300c 	add	r3, r3, #12
2000ffb4:	e50b3028 	str	r3, [fp, #-40]	; 0xffffffd8
2000ffb8:	ea000001 	b	2000ffc4 <etharp_output+0x240>
2000ffbc:	e3a030fc 	mov	r3, #252	; 0xfc
2000ffc0:	ea00000c 	b	2000fff8 <etharp_output+0x274>
2000ffc4:	e51b2024 	ldr	r2, [fp, #-36]	; 0xffffffdc
2000ffc8:	e51b1028 	ldr	r1, [fp, #-40]	; 0xffffffd8
2000ffcc:	e51b0020 	ldr	r0, [fp, #-32]	; 0xffffffe0
2000ffd0:	eb000010 	bl	20010018 <etharp_query>
2000ffd4:	e1a03000 	mov	r3, r0
2000ffd8:	ea000006 	b	2000fff8 <etharp_output+0x274>
2000ffdc:	e51b3020 	ldr	r3, [fp, #-32]	; 0xffffffe0
2000ffe0:	e2832023 	add	r2, r3, #35	; 0x23
2000ffe4:	e51b3010 	ldr	r3, [fp, #-16]
2000ffe8:	e51b1024 	ldr	r1, [fp, #-36]	; 0xffffffdc
2000ffec:	e51b0020 	ldr	r0, [fp, #-32]	; 0xffffffe0
2000fff0:	ebfffd52 	bl	2000f540 <etharp_send_ip>
2000fff4:	e1a03000 	mov	r3, r0
2000fff8:	e1a03c03 	lsl	r3, r3, #24
2000fffc:	e1a03c43 	asr	r3, r3, #24
20010000:	e1a00003 	mov	r0, r3
20010004:	e24bd008 	sub	sp, fp, #8
20010008:	e8bd4810 	pop	{r4, fp, lr}
2001000c:	e12fff1e 	bx	lr
20010010:	20015630 	.word	0x20015630
20010014:	20013608 	.word	0x20013608

20010018 <etharp_query>:
20010018:	e92d4810 	push	{r4, fp, lr}
2001001c:	e28db008 	add	fp, sp, #8
20010020:	e24dd024 	sub	sp, sp, #36	; 0x24
20010024:	e50b0020 	str	r0, [fp, #-32]	; 0xffffffe0
20010028:	e50b1024 	str	r1, [fp, #-36]	; 0xffffffdc
2001002c:	e50b2028 	str	r2, [fp, #-40]	; 0xffffffd8
20010030:	e51b3020 	ldr	r3, [fp, #-32]	; 0xffffffe0
20010034:	e2833023 	add	r3, r3, #35	; 0x23
20010038:	e50b3014 	str	r3, [fp, #-20]	; 0xffffffec
2001003c:	e3e03000 	mvn	r3, #0
20010040:	e54b300d 	strb	r3, [fp, #-13]
20010044:	e51b1020 	ldr	r1, [fp, #-32]	; 0xffffffe0
20010048:	e51b0024 	ldr	r0, [fp, #-36]	; 0xffffffdc
2001004c:	ebfff4cb 	bl	2000d380 <ip_addr_isbroadcast>
20010050:	e1a03000 	mov	r3, r0
20010054:	e3530000 	cmp	r3, #0
20010058:	1a000024 	bne	200100f0 <etharp_query+0xd8>
2001005c:	e51b3024 	ldr	r3, [fp, #-36]	; 0xffffffdc
20010060:	e5d32000 	ldrb	r2, [r3]
20010064:	e5d31001 	ldrb	r1, [r3, #1]
20010068:	e1a01401 	lsl	r1, r1, #8
2001006c:	e1812002 	orr	r2, r1, r2
20010070:	e5d31002 	ldrb	r1, [r3, #2]
20010074:	e1a01801 	lsl	r1, r1, #16
20010078:	e1812002 	orr	r2, r1, r2
2001007c:	e5d33003 	ldrb	r3, [r3, #3]
20010080:	e1a03c03 	lsl	r3, r3, #24
20010084:	e1833002 	orr	r3, r3, r2
20010088:	e1a04003 	mov	r4, r3
2001008c:	e3a0020f 	mov	r0, #-268435456	; 0xf0000000
20010090:	ebfff4af 	bl	2000d354 <ntohl>
20010094:	e1a03000 	mov	r3, r0
20010098:	e0044003 	and	r4, r4, r3
2001009c:	e3a0020e 	mov	r0, #-536870912	; 0xe0000000
200100a0:	ebfff4ab 	bl	2000d354 <ntohl>
200100a4:	e1a03000 	mov	r3, r0
200100a8:	e1540003 	cmp	r4, r3
200100ac:	0a00000f 	beq	200100f0 <etharp_query+0xd8>
200100b0:	e51b3024 	ldr	r3, [fp, #-36]	; 0xffffffdc
200100b4:	e3530000 	cmp	r3, #0
200100b8:	0a00000c 	beq	200100f0 <etharp_query+0xd8>
200100bc:	e51b3024 	ldr	r3, [fp, #-36]	; 0xffffffdc
200100c0:	e5d32000 	ldrb	r2, [r3]
200100c4:	e5d31001 	ldrb	r1, [r3, #1]
200100c8:	e1a01401 	lsl	r1, r1, #8
200100cc:	e1812002 	orr	r2, r1, r2
200100d0:	e5d31002 	ldrb	r1, [r3, #2]
200100d4:	e1a01801 	lsl	r1, r1, #16
200100d8:	e1812002 	orr	r2, r1, r2
200100dc:	e5d33003 	ldrb	r3, [r3, #3]
200100e0:	e1a03c03 	lsl	r3, r3, #24
200100e4:	e1833002 	orr	r3, r3, r2
200100e8:	e3530000 	cmp	r3, #0
200100ec:	1a000001 	bne	200100f8 <etharp_query+0xe0>
200100f0:	e3a030f6 	mov	r3, #246	; 0xf6
200100f4:	ea00004b 	b	20010228 <etharp_query+0x210>
200100f8:	e3a01001 	mov	r1, #1
200100fc:	e51b0024 	ldr	r0, [fp, #-36]	; 0xffffffdc
20010100:	ebfffc0c 	bl	2000f138 <find_entry>
20010104:	e1a03000 	mov	r3, r0
20010108:	e54b3015 	strb	r3, [fp, #-21]	; 0xffffffeb
2001010c:	e15b31d5 	ldrsb	r3, [fp, #-21]	; 0xffffffeb
20010110:	e3530000 	cmp	r3, #0
20010114:	aa00000b 	bge	20010148 <etharp_query+0x130>
20010118:	e51b3028 	ldr	r3, [fp, #-40]	; 0xffffffd8
2001011c:	e3530000 	cmp	r3, #0
20010120:	0a000006 	beq	20010140 <etharp_query+0x128>
20010124:	e59f3114 	ldr	r3, [pc, #276]	; 20010240 <etharp_query+0x228>
20010128:	e1d332b4 	ldrh	r3, [r3, #36]	; 0x24
2001012c:	e2833001 	add	r3, r3, #1
20010130:	e1a03803 	lsl	r3, r3, #16
20010134:	e1a03823 	lsr	r3, r3, #16
20010138:	e59f2100 	ldr	r2, [pc, #256]	; 20010240 <etharp_query+0x228>
2001013c:	e1c232b4 	strh	r3, [r2, #36]	; 0x24
20010140:	e55b3015 	ldrb	r3, [fp, #-21]	; 0xffffffeb
20010144:	ea000037 	b	20010228 <etharp_query+0x210>
20010148:	e15b31d5 	ldrsb	r3, [fp, #-21]	; 0xffffffeb
2001014c:	e59f20f0 	ldr	r2, [pc, #240]	; 20010244 <etharp_query+0x22c>
20010150:	e1a03203 	lsl	r3, r3, #4
20010154:	e0823003 	add	r3, r2, r3
20010158:	e5d3300a 	ldrb	r3, [r3, #10]
2001015c:	e3530000 	cmp	r3, #0
20010160:	1a000005 	bne	2001017c <etharp_query+0x164>
20010164:	e15b31d5 	ldrsb	r3, [fp, #-21]	; 0xffffffeb
20010168:	e59f20d4 	ldr	r2, [pc, #212]	; 20010244 <etharp_query+0x22c>
2001016c:	e1a03203 	lsl	r3, r3, #4
20010170:	e0823003 	add	r3, r2, r3
20010174:	e3a02001 	mov	r2, #1
20010178:	e5c3200a 	strb	r2, [r3, #10]
2001017c:	e15b31d5 	ldrsb	r3, [fp, #-21]	; 0xffffffeb
20010180:	e59f20bc 	ldr	r2, [pc, #188]	; 20010244 <etharp_query+0x22c>
20010184:	e1a03203 	lsl	r3, r3, #4
20010188:	e0823003 	add	r3, r2, r3
2001018c:	e5d3300a 	ldrb	r3, [r3, #10]
20010190:	e3530001 	cmp	r3, #1
20010194:	e15b31d5 	ldrsb	r3, [fp, #-21]	; 0xffffffeb
20010198:	e59f20a4 	ldr	r2, [pc, #164]	; 20010244 <etharp_query+0x22c>
2001019c:	e1a03203 	lsl	r3, r3, #4
200101a0:	e0823003 	add	r3, r2, r3
200101a4:	e5d3300a 	ldrb	r3, [r3, #10]
200101a8:	e3530001 	cmp	r3, #1
200101ac:	0a000002 	beq	200101bc <etharp_query+0x1a4>
200101b0:	e51b3028 	ldr	r3, [fp, #-40]	; 0xffffffd8
200101b4:	e3530000 	cmp	r3, #0
200101b8:	1a000004 	bne	200101d0 <etharp_query+0x1b8>
200101bc:	e51b1024 	ldr	r1, [fp, #-36]	; 0xffffffdc
200101c0:	e51b0020 	ldr	r0, [fp, #-32]	; 0xffffffe0
200101c4:	eb0000dd 	bl	20010540 <etharp_request>
200101c8:	e1a03000 	mov	r3, r0
200101cc:	e54b300d 	strb	r3, [fp, #-13]
200101d0:	e51b3028 	ldr	r3, [fp, #-40]	; 0xffffffd8
200101d4:	e3530000 	cmp	r3, #0
200101d8:	0a000011 	beq	20010224 <etharp_query+0x20c>
200101dc:	e15b31d5 	ldrsb	r3, [fp, #-21]	; 0xffffffeb
200101e0:	e59f205c 	ldr	r2, [pc, #92]	; 20010244 <etharp_query+0x22c>
200101e4:	e1a03203 	lsl	r3, r3, #4
200101e8:	e0823003 	add	r3, r2, r3
200101ec:	e5d3300a 	ldrb	r3, [r3, #10]
200101f0:	e3530002 	cmp	r3, #2
200101f4:	1a00000a 	bne	20010224 <etharp_query+0x20c>
200101f8:	e15b31d5 	ldrsb	r3, [fp, #-21]	; 0xffffffeb
200101fc:	e1a03203 	lsl	r3, r3, #4
20010200:	e59f203c 	ldr	r2, [pc, #60]	; 20010244 <etharp_query+0x22c>
20010204:	e0833002 	add	r3, r3, r2
20010208:	e2833004 	add	r3, r3, #4
2001020c:	e51b2014 	ldr	r2, [fp, #-20]	; 0xffffffec
20010210:	e51b1028 	ldr	r1, [fp, #-40]	; 0xffffffd8
20010214:	e51b0020 	ldr	r0, [fp, #-32]	; 0xffffffe0
20010218:	ebfffcc8 	bl	2000f540 <etharp_send_ip>
2001021c:	e1a03000 	mov	r3, r0
20010220:	e54b300d 	strb	r3, [fp, #-13]
20010224:	e55b300d 	ldrb	r3, [fp, #-13]
20010228:	e1a03c03 	lsl	r3, r3, #24
2001022c:	e1a03c43 	asr	r3, r3, #24
20010230:	e1a00003 	mov	r0, r3
20010234:	e24bd008 	sub	sp, fp, #8
20010238:	e8bd4810 	pop	{r4, fp, lr}
2001023c:	e12fff1e 	bx	lr
20010240:	20015630 	.word	0x20015630
20010244:	200151c4 	.word	0x200151c4

20010248 <etharp_raw>:
20010248:	e92d4800 	push	{fp, lr}
2001024c:	e28db004 	add	fp, sp, #4
20010250:	e24dd020 	sub	sp, sp, #32
20010254:	e50b0018 	str	r0, [fp, #-24]	; 0xffffffe8
20010258:	e50b101c 	str	r1, [fp, #-28]	; 0xffffffe4
2001025c:	e50b2020 	str	r2, [fp, #-32]	; 0xffffffe0
20010260:	e50b3024 	str	r3, [fp, #-36]	; 0xffffffdc
20010264:	e3a03000 	mov	r3, #0
20010268:	e54b3006 	strb	r3, [fp, #-6]
2001026c:	e3a02000 	mov	r2, #0
20010270:	e3a0102a 	mov	r1, #42	; 0x2a
20010274:	e3a00003 	mov	r0, #3
20010278:	ebffc4c5 	bl	20001594 <pbuf_alloc>
2001027c:	e50b000c 	str	r0, [fp, #-12]
20010280:	e51b300c 	ldr	r3, [fp, #-12]
20010284:	e3530000 	cmp	r3, #0
20010288:	1a000008 	bne	200102b0 <etharp_raw+0x68>
2001028c:	e59f32a0 	ldr	r3, [pc, #672]	; 20010534 <etharp_raw+0x2ec>
20010290:	e1d332b4 	ldrh	r3, [r3, #36]	; 0x24
20010294:	e2833001 	add	r3, r3, #1
20010298:	e1a03803 	lsl	r3, r3, #16
2001029c:	e1a03823 	lsr	r3, r3, #16
200102a0:	e59f228c 	ldr	r2, [pc, #652]	; 20010534 <etharp_raw+0x2ec>
200102a4:	e1c232b4 	strh	r3, [r2, #36]	; 0x24
200102a8:	e3a030ff 	mov	r3, #255	; 0xff
200102ac:	ea00009a 	b	2001051c <etharp_raw+0x2d4>
200102b0:	e51b300c 	ldr	r3, [fp, #-12]
200102b4:	e5933004 	ldr	r3, [r3, #4]
200102b8:	e50b3010 	str	r3, [fp, #-16]
200102bc:	e51b3010 	ldr	r3, [fp, #-16]
200102c0:	e283300e 	add	r3, r3, #14
200102c4:	e50b3014 	str	r3, [fp, #-20]	; 0xffffffec
200102c8:	e1db31b0 	ldrh	r3, [fp, #16]
200102cc:	e1a00003 	mov	r0, r3
200102d0:	ebfff3e5 	bl	2000d26c <htons>
200102d4:	e1a03000 	mov	r3, r0
200102d8:	e1a02003 	mov	r2, r3
200102dc:	e51b3014 	ldr	r3, [fp, #-20]	; 0xffffffec
200102e0:	e20210ff 	and	r1, r2, #255	; 0xff
200102e4:	e3a00000 	mov	r0, #0
200102e8:	e1801001 	orr	r1, r0, r1
200102ec:	e5c31006 	strb	r1, [r3, #6]
200102f0:	e1a02422 	lsr	r2, r2, #8
200102f4:	e1a02802 	lsl	r2, r2, #16
200102f8:	e1a02822 	lsr	r2, r2, #16
200102fc:	e3a01000 	mov	r1, #0
20010300:	e1812002 	orr	r2, r1, r2
20010304:	e5c32007 	strb	r2, [r3, #7]
20010308:	e3a03006 	mov	r3, #6
2001030c:	e54b3005 	strb	r3, [fp, #-5]
20010310:	ea000020 	b	20010398 <etharp_raw+0x150>
20010314:	e55b3005 	ldrb	r3, [fp, #-5]
20010318:	e2433001 	sub	r3, r3, #1
2001031c:	e54b3005 	strb	r3, [fp, #-5]
20010320:	e55b3005 	ldrb	r3, [fp, #-5]
20010324:	e55b2005 	ldrb	r2, [fp, #-5]
20010328:	e51b1024 	ldr	r1, [fp, #-36]	; 0xffffffdc
2001032c:	e7d11002 	ldrb	r1, [r1, r2]
20010330:	e51b2014 	ldr	r2, [fp, #-20]	; 0xffffffec
20010334:	e0823003 	add	r3, r2, r3
20010338:	e1a02001 	mov	r2, r1
2001033c:	e5c32008 	strb	r2, [r3, #8]
20010340:	e55b3005 	ldrb	r3, [fp, #-5]
20010344:	e55b2005 	ldrb	r2, [fp, #-5]
20010348:	e59b1008 	ldr	r1, [fp, #8]
2001034c:	e7d11002 	ldrb	r1, [r1, r2]
20010350:	e51b2014 	ldr	r2, [fp, #-20]	; 0xffffffec
20010354:	e0823003 	add	r3, r2, r3
20010358:	e1a02001 	mov	r2, r1
2001035c:	e5c32012 	strb	r2, [r3, #18]
20010360:	e55b3005 	ldrb	r3, [fp, #-5]
20010364:	e55b2005 	ldrb	r2, [fp, #-5]
20010368:	e51b1020 	ldr	r1, [fp, #-32]	; 0xffffffe0
2001036c:	e7d11002 	ldrb	r1, [r1, r2]
20010370:	e51b2010 	ldr	r2, [fp, #-16]
20010374:	e7c21003 	strb	r1, [r2, r3]
20010378:	e55b3005 	ldrb	r3, [fp, #-5]
2001037c:	e55b2005 	ldrb	r2, [fp, #-5]
20010380:	e51b101c 	ldr	r1, [fp, #-28]	; 0xffffffe4
20010384:	e7d11002 	ldrb	r1, [r1, r2]
20010388:	e51b2010 	ldr	r2, [fp, #-16]
2001038c:	e0823003 	add	r3, r2, r3
20010390:	e1a02001 	mov	r2, r1
20010394:	e5c32006 	strb	r2, [r3, #6]
20010398:	e55b3005 	ldrb	r3, [fp, #-5]
2001039c:	e3530000 	cmp	r3, #0
200103a0:	1affffdb 	bne	20010314 <etharp_raw+0xcc>
200103a4:	e51b3014 	ldr	r3, [fp, #-20]	; 0xffffffec
200103a8:	e59b2004 	ldr	r2, [fp, #4]
200103ac:	e283300e 	add	r3, r3, #14
200103b0:	e1a01002 	mov	r1, r2
200103b4:	e3a02004 	mov	r2, #4
200103b8:	e1a00003 	mov	r0, r3
200103bc:	eb000e02 	bl	20013bcc <__rom_data_end>
200103c0:	e51b3014 	ldr	r3, [fp, #-20]	; 0xffffffec
200103c4:	e59b200c 	ldr	r2, [fp, #12]
200103c8:	e2833018 	add	r3, r3, #24
200103cc:	e1a01002 	mov	r1, r2
200103d0:	e3a02004 	mov	r2, #4
200103d4:	e1a00003 	mov	r0, r3
200103d8:	eb000dfb 	bl	20013bcc <__rom_data_end>
200103dc:	e3a00001 	mov	r0, #1
200103e0:	ebfff3a1 	bl	2000d26c <htons>
200103e4:	e1a03000 	mov	r3, r0
200103e8:	e1a02003 	mov	r2, r3
200103ec:	e51b3014 	ldr	r3, [fp, #-20]	; 0xffffffec
200103f0:	e20210ff 	and	r1, r2, #255	; 0xff
200103f4:	e3a00000 	mov	r0, #0
200103f8:	e1801001 	orr	r1, r0, r1
200103fc:	e5c31000 	strb	r1, [r3]
20010400:	e1a02422 	lsr	r2, r2, #8
20010404:	e1a02802 	lsl	r2, r2, #16
20010408:	e1a02822 	lsr	r2, r2, #16
2001040c:	e3a01000 	mov	r1, #0
20010410:	e1812002 	orr	r2, r1, r2
20010414:	e5c32001 	strb	r2, [r3, #1]
20010418:	e3a00b02 	mov	r0, #2048	; 0x800
2001041c:	ebfff392 	bl	2000d26c <htons>
20010420:	e1a03000 	mov	r3, r0
20010424:	e1a02003 	mov	r2, r3
20010428:	e51b3014 	ldr	r3, [fp, #-20]	; 0xffffffec
2001042c:	e20210ff 	and	r1, r2, #255	; 0xff
20010430:	e3a00000 	mov	r0, #0
20010434:	e1801001 	orr	r1, r0, r1
20010438:	e5c31002 	strb	r1, [r3, #2]
2001043c:	e1a02422 	lsr	r2, r2, #8
20010440:	e1a02802 	lsl	r2, r2, #16
20010444:	e1a02822 	lsr	r2, r2, #16
20010448:	e3a01000 	mov	r1, #0
2001044c:	e1812002 	orr	r2, r1, r2
20010450:	e5c32003 	strb	r2, [r3, #3]
20010454:	e59f00dc 	ldr	r0, [pc, #220]	; 20010538 <etharp_raw+0x2f0>
20010458:	ebfff383 	bl	2000d26c <htons>
2001045c:	e1a03000 	mov	r3, r0
20010460:	e1a02003 	mov	r2, r3
20010464:	e51b3014 	ldr	r3, [fp, #-20]	; 0xffffffec
20010468:	e20210ff 	and	r1, r2, #255	; 0xff
2001046c:	e3a00000 	mov	r0, #0
20010470:	e1801001 	orr	r1, r0, r1
20010474:	e5c31004 	strb	r1, [r3, #4]
20010478:	e1a02422 	lsr	r2, r2, #8
2001047c:	e1a02802 	lsl	r2, r2, #16
20010480:	e1a02822 	lsr	r2, r2, #16
20010484:	e3a01000 	mov	r1, #0
20010488:	e1812002 	orr	r2, r1, r2
2001048c:	e5c32005 	strb	r2, [r3, #5]
20010490:	e59f00a4 	ldr	r0, [pc, #164]	; 2001053c <etharp_raw+0x2f4>
20010494:	ebfff374 	bl	2000d26c <htons>
20010498:	e1a03000 	mov	r3, r0
2001049c:	e1a02003 	mov	r2, r3
200104a0:	e51b3010 	ldr	r3, [fp, #-16]
200104a4:	e20210ff 	and	r1, r2, #255	; 0xff
200104a8:	e3a00000 	mov	r0, #0
200104ac:	e1801001 	orr	r1, r0, r1
200104b0:	e5c3100c 	strb	r1, [r3, #12]
200104b4:	e1a02422 	lsr	r2, r2, #8
200104b8:	e1a02802 	lsl	r2, r2, #16
200104bc:	e1a02822 	lsr	r2, r2, #16
200104c0:	e3a01000 	mov	r1, #0
200104c4:	e1812002 	orr	r2, r1, r2
200104c8:	e5c3200d 	strb	r2, [r3, #13]
200104cc:	e51b3018 	ldr	r3, [fp, #-24]	; 0xffffffe8
200104d0:	e5933018 	ldr	r3, [r3, #24]
200104d4:	e51b100c 	ldr	r1, [fp, #-12]
200104d8:	e51b0018 	ldr	r0, [fp, #-24]	; 0xffffffe8
200104dc:	e1a0e00f 	mov	lr, pc
200104e0:	e12fff13 	bx	r3
200104e4:	e1a03000 	mov	r3, r0
200104e8:	e54b3006 	strb	r3, [fp, #-6]
200104ec:	e59f3040 	ldr	r3, [pc, #64]	; 20010534 <etharp_raw+0x2ec>
200104f0:	e1d331b8 	ldrh	r3, [r3, #24]
200104f4:	e2833001 	add	r3, r3, #1
200104f8:	e1a03803 	lsl	r3, r3, #16
200104fc:	e1a03823 	lsr	r3, r3, #16
20010500:	e59f202c 	ldr	r2, [pc, #44]	; 20010534 <etharp_raw+0x2ec>
20010504:	e1c231b8 	strh	r3, [r2, #24]
20010508:	e51b000c 	ldr	r0, [fp, #-12]
2001050c:	ebffc5d8 	bl	20001c74 <pbuf_free>
20010510:	e3a03000 	mov	r3, #0
20010514:	e50b300c 	str	r3, [fp, #-12]
20010518:	e55b3006 	ldrb	r3, [fp, #-6]
2001051c:	e1a03c03 	lsl	r3, r3, #24
20010520:	e1a03c43 	asr	r3, r3, #24
20010524:	e1a00003 	mov	r0, r3
20010528:	e24bd004 	sub	sp, fp, #4
2001052c:	e8bd4800 	pop	{fp, lr}
20010530:	e12fff1e 	bx	lr
20010534:	20015630 	.word	0x20015630
20010538:	00000604 	.word	0x00000604
2001053c:	00000806 	.word	0x00000806

20010540 <etharp_request>:
20010540:	e92d4800 	push	{fp, lr}
20010544:	e28db004 	add	fp, sp, #4
20010548:	e24dd018 	sub	sp, sp, #24
2001054c:	e50b0008 	str	r0, [fp, #-8]
20010550:	e50b100c 	str	r1, [fp, #-12]
20010554:	e51b3008 	ldr	r3, [fp, #-8]
20010558:	e2831023 	add	r1, r3, #35	; 0x23
2001055c:	e51b3008 	ldr	r3, [fp, #-8]
20010560:	e2830023 	add	r0, r3, #35	; 0x23
20010564:	e51b3008 	ldr	r3, [fp, #-8]
20010568:	e2833004 	add	r3, r3, #4
2001056c:	e3a02001 	mov	r2, #1
20010570:	e58d200c 	str	r2, [sp, #12]
20010574:	e51b200c 	ldr	r2, [fp, #-12]
20010578:	e58d2008 	str	r2, [sp, #8]
2001057c:	e59f2028 	ldr	r2, [pc, #40]	; 200105ac <etharp_request+0x6c>
20010580:	e58d2004 	str	r2, [sp, #4]
20010584:	e58d3000 	str	r3, [sp]
20010588:	e1a03000 	mov	r3, r0
2001058c:	e59f201c 	ldr	r2, [pc, #28]	; 200105b0 <etharp_request+0x70>
20010590:	e51b0008 	ldr	r0, [fp, #-8]
20010594:	ebffff2b 	bl	20010248 <etharp_raw>
20010598:	e1a03000 	mov	r3, r0
2001059c:	e1a00003 	mov	r0, r3
200105a0:	e24bd004 	sub	sp, fp, #4
200105a4:	e8bd4800 	pop	{fp, lr}
200105a8:	e12fff1e 	bx	lr
200105ac:	20013610 	.word	0x20013610
200105b0:	20013608 	.word	0x20013608

200105b4 <ethernet_input>:
200105b4:	e92d4800 	push	{fp, lr}
200105b8:	e28db004 	add	fp, sp, #4
200105bc:	e24dd010 	sub	sp, sp, #16
200105c0:	e50b0010 	str	r0, [fp, #-16]
200105c4:	e50b1014 	str	r1, [fp, #-20]	; 0xffffffec
200105c8:	e51b3010 	ldr	r3, [fp, #-16]
200105cc:	e5933004 	ldr	r3, [r3, #4]
200105d0:	e50b3008 	str	r3, [fp, #-8]
200105d4:	e51b3008 	ldr	r3, [fp, #-8]
200105d8:	e5d3200c 	ldrb	r2, [r3, #12]
200105dc:	e5d3300d 	ldrb	r3, [r3, #13]
200105e0:	e1a03403 	lsl	r3, r3, #8
200105e4:	e1833002 	orr	r3, r3, r2
200105e8:	e1a03803 	lsl	r3, r3, #16
200105ec:	e1a03823 	lsr	r3, r3, #16
200105f0:	e1a00003 	mov	r0, r3
200105f4:	ebfff31c 	bl	2000d26c <htons>
200105f8:	e1a03000 	mov	r3, r0
200105fc:	e14b30ba 	strh	r3, [fp, #-10]
20010600:	e15b30ba 	ldrh	r3, [fp, #-10]
20010604:	e3530b02 	cmp	r3, #2048	; 0x800
20010608:	0a000003 	beq	2001061c <ethernet_input+0x68>
2001060c:	e59f20d4 	ldr	r2, [pc, #212]	; 200106e8 <ethernet_input+0x134>
20010610:	e1530002 	cmp	r3, r2
20010614:	0a000012 	beq	20010664 <ethernet_input+0xb0>
20010618:	ea000018 	b	20010680 <ethernet_input+0xcc>
2001061c:	e51b1010 	ldr	r1, [fp, #-16]
20010620:	e51b0014 	ldr	r0, [fp, #-20]	; 0xffffffec
20010624:	ebfffc9b 	bl	2000f898 <etharp_ip_input>
20010628:	e3e0100d 	mvn	r1, #13
2001062c:	e51b0010 	ldr	r0, [fp, #-16]
20010630:	ebffc525 	bl	20001acc <pbuf_header>
20010634:	e1a03000 	mov	r3, r0
20010638:	e3530000 	cmp	r3, #0
2001063c:	0a000004 	beq	20010654 <ethernet_input+0xa0>
20010640:	e51b0010 	ldr	r0, [fp, #-16]
20010644:	ebffc58a 	bl	20001c74 <pbuf_free>
20010648:	e3a03000 	mov	r3, #0
2001064c:	e50b3010 	str	r3, [fp, #-16]
20010650:	ea00001d 	b	200106cc <ethernet_input+0x118>
20010654:	e51b1014 	ldr	r1, [fp, #-20]	; 0xffffffec
20010658:	e51b0010 	ldr	r0, [fp, #-16]
2001065c:	ebffee98 	bl	2000c0c4 <ip_input>
20010660:	ea000019 	b	200106cc <ethernet_input+0x118>
20010664:	e51b3014 	ldr	r3, [fp, #-20]	; 0xffffffec
20010668:	e2833023 	add	r3, r3, #35	; 0x23
2001066c:	e51b2010 	ldr	r2, [fp, #-16]
20010670:	e1a01003 	mov	r1, r3
20010674:	e51b0014 	ldr	r0, [fp, #-20]	; 0xffffffec
20010678:	ebfffcb6 	bl	2000f958 <etharp_arp_input>
2001067c:	ea000012 	b	200106cc <ethernet_input+0x118>
20010680:	e59f3064 	ldr	r3, [pc, #100]	; 200106ec <ethernet_input+0x138>
20010684:	e1d332b8 	ldrh	r3, [r3, #40]	; 0x28
20010688:	e2833001 	add	r3, r3, #1
2001068c:	e1a03803 	lsl	r3, r3, #16
20010690:	e1a03823 	lsr	r3, r3, #16
20010694:	e59f2050 	ldr	r2, [pc, #80]	; 200106ec <ethernet_input+0x138>
20010698:	e1c232b8 	strh	r3, [r2, #40]	; 0x28
2001069c:	e59f3048 	ldr	r3, [pc, #72]	; 200106ec <ethernet_input+0x138>
200106a0:	e1d331be 	ldrh	r3, [r3, #30]
200106a4:	e2833001 	add	r3, r3, #1
200106a8:	e1a03803 	lsl	r3, r3, #16
200106ac:	e1a03823 	lsr	r3, r3, #16
200106b0:	e59f2034 	ldr	r2, [pc, #52]	; 200106ec <ethernet_input+0x138>
200106b4:	e1c231be 	strh	r3, [r2, #30]
200106b8:	e51b0010 	ldr	r0, [fp, #-16]
200106bc:	ebffc56c 	bl	20001c74 <pbuf_free>
200106c0:	e3a03000 	mov	r3, #0
200106c4:	e50b3010 	str	r3, [fp, #-16]
200106c8:	e1a00000 	nop			; (mov r0, r0)
200106cc:	e3a03000 	mov	r3, #0
200106d0:	e1a03c03 	lsl	r3, r3, #24
200106d4:	e1a03c43 	asr	r3, r3, #24
200106d8:	e1a00003 	mov	r0, r3
200106dc:	e24bd004 	sub	sp, fp, #4
200106e0:	e8bd4800 	pop	{fp, lr}
200106e4:	e12fff1e 	bx	lr
200106e8:	00000806 	.word	0x00000806
200106ec:	20015630 	.word	0x20015630

200106f0 <get_calling_IP>:
200106f0:	e52db004 	push	{fp}		; (str fp, [sp, #-4]!)
200106f4:	e28db000 	add	fp, sp, #0
200106f8:	e59f3010 	ldr	r3, [pc, #16]	; 20010710 <get_calling_IP+0x20>
200106fc:	e5933000 	ldr	r3, [r3]
20010700:	e1a00003 	mov	r0, r3
20010704:	e24bd000 	sub	sp, fp, #0
20010708:	e49db004 	pop	{fp}		; (ldr fp, [sp], #4)
2001070c:	e12fff1e 	bx	lr
20010710:	20015268 	.word	0x20015268

20010714 <get_calling_name>:
20010714:	e52db004 	push	{fp}		; (str fp, [sp, #-4]!)
20010718:	e28db000 	add	fp, sp, #0
2001071c:	e59f300c 	ldr	r3, [pc, #12]	; 20010730 <get_calling_name+0x1c>
20010720:	e1a00003 	mov	r0, r3
20010724:	e24bd000 	sub	sp, fp, #0
20010728:	e49db004 	pop	{fp}		; (ldr fp, [sp], #4)
2001072c:	e12fff1e 	bx	lr
20010730:	2001526c 	.word	0x2001526c

20010734 <set_calling_IP>:
20010734:	e52db004 	push	{fp}		; (str fp, [sp, #-4]!)
20010738:	e28db000 	add	fp, sp, #0
2001073c:	e24dd00c 	sub	sp, sp, #12
20010740:	e50b0008 	str	r0, [fp, #-8]
20010744:	e59f2014 	ldr	r2, [pc, #20]	; 20010760 <set_calling_IP+0x2c>
20010748:	e51b3008 	ldr	r3, [fp, #-8]
2001074c:	e5823000 	str	r3, [r2]
20010750:	e1a00000 	nop			; (mov r0, r0)
20010754:	e24bd000 	sub	sp, fp, #0
20010758:	e49db004 	pop	{fp}		; (ldr fp, [sp], #4)
2001075c:	e12fff1e 	bx	lr
20010760:	20015268 	.word	0x20015268

20010764 <set_calling_name>:
20010764:	e52db004 	push	{fp}		; (str fp, [sp, #-4]!)
20010768:	e28db000 	add	fp, sp, #0
2001076c:	e24dd014 	sub	sp, sp, #20
20010770:	e50b0010 	str	r0, [fp, #-16]
20010774:	e3a03000 	mov	r3, #0
20010778:	e50b3008 	str	r3, [fp, #-8]
2001077c:	ea00000b 	b	200107b0 <set_calling_name+0x4c>
20010780:	e51b3008 	ldr	r3, [fp, #-8]
20010784:	e51b2010 	ldr	r2, [fp, #-16]
20010788:	e0823003 	add	r3, r2, r3
2001078c:	e5d31000 	ldrb	r1, [r3]
20010790:	e59f2060 	ldr	r2, [pc, #96]	; 200107f8 <set_calling_name+0x94>
20010794:	e51b3008 	ldr	r3, [fp, #-8]
20010798:	e0823003 	add	r3, r2, r3
2001079c:	e1a02001 	mov	r2, r1
200107a0:	e5c32000 	strb	r2, [r3]
200107a4:	e51b3008 	ldr	r3, [fp, #-8]
200107a8:	e2833001 	add	r3, r3, #1
200107ac:	e50b3008 	str	r3, [fp, #-8]
200107b0:	e51b3008 	ldr	r3, [fp, #-8]
200107b4:	e3530026 	cmp	r3, #38	; 0x26
200107b8:	ca000005 	bgt	200107d4 <set_calling_name+0x70>
200107bc:	e51b3008 	ldr	r3, [fp, #-8]
200107c0:	e51b2010 	ldr	r2, [fp, #-16]
200107c4:	e0823003 	add	r3, r2, r3
200107c8:	e5d33000 	ldrb	r3, [r3]
200107cc:	e3530000 	cmp	r3, #0
200107d0:	1affffea 	bne	20010780 <set_calling_name+0x1c>
200107d4:	e59f201c 	ldr	r2, [pc, #28]	; 200107f8 <set_calling_name+0x94>
200107d8:	e51b3008 	ldr	r3, [fp, #-8]
200107dc:	e0823003 	add	r3, r2, r3
200107e0:	e3a02000 	mov	r2, #0
200107e4:	e5c32000 	strb	r2, [r3]
200107e8:	e1a00000 	nop			; (mov r0, r0)
200107ec:	e24bd000 	sub	sp, fp, #0
200107f0:	e49db004 	pop	{fp}		; (ldr fp, [sp], #4)
200107f4:	e12fff1e 	bx	lr
200107f8:	2001526c 	.word	0x2001526c

200107fc <incoming_call>:
200107fc:	e92d4800 	push	{fp, lr}
20010800:	e28db004 	add	fp, sp, #4
20010804:	eb0003fb 	bl	200117f8 <have_tcp_connection>
20010808:	e1a03000 	mov	r3, r0
2001080c:	e1a00003 	mov	r0, r3
20010810:	e24bd004 	sub	sp, fp, #4
20010814:	e8bd4800 	pop	{fp, lr}
20010818:	e12fff1e 	bx	lr

2001081c <call_connected>:
2001081c:	e92d4800 	push	{fp, lr}
20010820:	e28db004 	add	fp, sp, #4
20010824:	eb000401 	bl	20011830 <tcp_connection_status>
20010828:	e1a03000 	mov	r3, r0
2001082c:	e3530000 	cmp	r3, #0
20010830:	13a03001 	movne	r3, #1
20010834:	03a03000 	moveq	r3, #0
20010838:	e20330ff 	and	r3, r3, #255	; 0xff
2001083c:	e1a00003 	mov	r0, r3
20010840:	e24bd004 	sub	sp, fp, #4
20010844:	e8bd4800 	pop	{fp, lr}
20010848:	e12fff1e 	bx	lr

2001084c <initiate_outgoing>:
2001084c:	e92d4800 	push	{fp, lr}
20010850:	e28db004 	add	fp, sp, #4
20010854:	e59f3018 	ldr	r3, [pc, #24]	; 20010874 <initiate_outgoing+0x28>
20010858:	e5933000 	ldr	r3, [r3]
2001085c:	e1a00003 	mov	r0, r3
20010860:	eb000467 	bl	20011a04 <tcp_connection_connect>
20010864:	e1a00000 	nop			; (mov r0, r0)
20010868:	e24bd004 	sub	sp, fp, #4
2001086c:	e8bd4800 	pop	{fp, lr}
20010870:	e12fff1e 	bx	lr
20010874:	20015268 	.word	0x20015268

20010878 <start_call>:
20010878:	e92d4800 	push	{fp, lr}
2001087c:	e28db004 	add	fp, sp, #4
20010880:	eb000783 	bl	20012694 <reset_rx_buffer>
20010884:	eb000794 	bl	200126dc <reset_tx_buffer>
20010888:	eb0007f9 	bl	20012874 <get_rx_buffer>
2001088c:	e1a03000 	mov	r3, r0
20010890:	e1a00003 	mov	r0, r3
20010894:	eb00038c 	bl	200116cc <call_start>
20010898:	e59f3020 	ldr	r3, [pc, #32]	; 200108c0 <start_call+0x48>
2001089c:	e3a02000 	mov	r2, #0
200108a0:	e5c32000 	strb	r2, [r3]
200108a4:	e59f3018 	ldr	r3, [pc, #24]	; 200108c4 <start_call+0x4c>
200108a8:	e3a02000 	mov	r2, #0
200108ac:	e5832000 	str	r2, [r3]
200108b0:	e1a00000 	nop			; (mov r0, r0)
200108b4:	e24bd004 	sub	sp, fp, #4
200108b8:	e8bd4800 	pop	{fp, lr}
200108bc:	e12fff1e 	bx	lr
200108c0:	20015294 	.word	0x20015294
200108c4:	20015298 	.word	0x20015298

200108c8 <connect_incoming>:
200108c8:	e92d4800 	push	{fp, lr}
200108cc:	e28db004 	add	fp, sp, #4
200108d0:	eb000475 	bl	20011aac <tcp_connection_answer>
200108d4:	eb00076e 	bl	20012694 <reset_rx_buffer>
200108d8:	eb00077f 	bl	200126dc <reset_tx_buffer>
200108dc:	eb0007e4 	bl	20012874 <get_rx_buffer>
200108e0:	e1a03000 	mov	r3, r0
200108e4:	e1a00003 	mov	r0, r3
200108e8:	eb000377 	bl	200116cc <call_start>
200108ec:	e59f3014 	ldr	r3, [pc, #20]	; 20010908 <connect_incoming+0x40>
200108f0:	e3a02000 	mov	r2, #0
200108f4:	e5c32000 	strb	r2, [r3]
200108f8:	e1a00000 	nop			; (mov r0, r0)
200108fc:	e24bd004 	sub	sp, fp, #4
20010900:	e8bd4800 	pop	{fp, lr}
20010904:	e12fff1e 	bx	lr
20010908:	20015294 	.word	0x20015294

2001090c <process_call>:
2001090c:	e92d4800 	push	{fp, lr}
20010910:	e28db004 	add	fp, sp, #4
20010914:	e24dd008 	sub	sp, sp, #8
20010918:	eb0003c4 	bl	20011830 <tcp_connection_status>
2001091c:	e1a03000 	mov	r3, r0
20010920:	e54b3005 	strb	r3, [fp, #-5]
20010924:	e59f31c4 	ldr	r3, [pc, #452]	; 20010af0 <process_call+0x1e4>
20010928:	e5d33000 	ldrb	r3, [r3]
2001092c:	e55b2005 	ldrb	r2, [fp, #-5]
20010930:	e1520003 	cmp	r2, r3
20010934:	0a000000 	beq	2001093c <process_call+0x30>
20010938:	eb000767 	bl	200126dc <reset_tx_buffer>
2001093c:	e59f21ac 	ldr	r2, [pc, #428]	; 20010af0 <process_call+0x1e4>
20010940:	e55b3005 	ldrb	r3, [fp, #-5]
20010944:	e5c23000 	strb	r3, [r2]
20010948:	e55b3005 	ldrb	r3, [fp, #-5]
2001094c:	e3530003 	cmp	r3, #3
20010950:	0a000012 	beq	200109a0 <process_call+0x94>
20010954:	e3530004 	cmp	r3, #4
20010958:	0a00001f 	beq	200109dc <process_call+0xd0>
2001095c:	e3530002 	cmp	r3, #2
20010960:	1a000038 	bne	20010a48 <process_call+0x13c>
20010964:	eb000855 	bl	20012ac0 <rcv_available>
20010968:	e1a03000 	mov	r3, r0
2001096c:	e3530000 	cmp	r3, #0
20010970:	0a000004 	beq	20010988 <process_call+0x7c>
20010974:	eb0008d5 	bl	20012cd0 <get_rcv_buffer>
20010978:	e1a03000 	mov	r3, r0
2001097c:	e3a01c01 	mov	r1, #256	; 0x100
20010980:	e1a00003 	mov	r0, r3
20010984:	eb000062 	bl	20010b14 <ring_fill>
20010988:	eb00077e 	bl	20012788 <xmit_available>
2001098c:	e1a03000 	mov	r3, r0
20010990:	e3530000 	cmp	r3, #0
20010994:	0a000031 	beq	20010a60 <process_call+0x154>
20010998:	eb00080c 	bl	200129d0 <get_xmit_buffer>
2001099c:	ea00002f 	b	20010a60 <process_call+0x154>
200109a0:	eb000846 	bl	20012ac0 <rcv_available>
200109a4:	e1a03000 	mov	r3, r0
200109a8:	e3530000 	cmp	r3, #0
200109ac:	0a000004 	beq	200109c4 <process_call+0xb8>
200109b0:	eb0008c6 	bl	20012cd0 <get_rcv_buffer>
200109b4:	e1a03000 	mov	r3, r0
200109b8:	e3a01c01 	mov	r1, #256	; 0x100
200109bc:	e1a00003 	mov	r0, r3
200109c0:	eb0000ca 	bl	20010cf0 <busy_fill>
200109c4:	eb00076f 	bl	20012788 <xmit_available>
200109c8:	e1a03000 	mov	r3, r0
200109cc:	e3530000 	cmp	r3, #0
200109d0:	0a000024 	beq	20010a68 <process_call+0x15c>
200109d4:	eb0007fd 	bl	200129d0 <get_xmit_buffer>
200109d8:	ea000022 	b	20010a68 <process_call+0x15c>
200109dc:	eb000769 	bl	20012788 <xmit_available>
200109e0:	e1a03000 	mov	r3, r0
200109e4:	e3530000 	cmp	r3, #0
200109e8:	0a000008 	beq	20010a10 <process_call+0x104>
200109ec:	eb0007d9 	bl	20012958 <get_xmit_next_ptr>
200109f0:	e1a03000 	mov	r3, r0
200109f4:	e3a01c01 	mov	r1, #256	; 0x100
200109f8:	e1a00003 	mov	r0, r3
200109fc:	eb000499 	bl	20011c68 <tcp_connection_tx>
20010a00:	e1a03000 	mov	r3, r0
20010a04:	e3530000 	cmp	r3, #0
20010a08:	0a000000 	beq	20010a10 <process_call+0x104>
20010a0c:	eb0007ef 	bl	200129d0 <get_xmit_buffer>
20010a10:	eb00082a 	bl	20012ac0 <rcv_available>
20010a14:	e1a03000 	mov	r3, r0
20010a18:	e3530000 	cmp	r3, #0
20010a1c:	0a000013 	beq	20010a70 <process_call+0x164>
20010a20:	eb00088c 	bl	20012c58 <get_rcv_next_ptr>
20010a24:	e1a03000 	mov	r3, r0
20010a28:	e3a01c01 	mov	r1, #256	; 0x100
20010a2c:	e1a00003 	mov	r0, r3
20010a30:	eb00045d 	bl	20011bac <tcp_connection_rx>
20010a34:	e1a03000 	mov	r3, r0
20010a38:	e3530000 	cmp	r3, #0
20010a3c:	0a00000b 	beq	20010a70 <process_call+0x164>
20010a40:	eb0008a2 	bl	20012cd0 <get_rcv_buffer>
20010a44:	ea000009 	b	20010a70 <process_call+0x164>
20010a48:	eb00074e 	bl	20012788 <xmit_available>
20010a4c:	e1a03000 	mov	r3, r0
20010a50:	e3530000 	cmp	r3, #0
20010a54:	0a000007 	beq	20010a78 <process_call+0x16c>
20010a58:	eb0007dc 	bl	200129d0 <get_xmit_buffer>
20010a5c:	ea000005 	b	20010a78 <process_call+0x16c>
20010a60:	e1a00000 	nop			; (mov r0, r0)
20010a64:	ea000004 	b	20010a7c <process_call+0x170>
20010a68:	e1a00000 	nop			; (mov r0, r0)
20010a6c:	ea000002 	b	20010a7c <process_call+0x170>
20010a70:	e1a00000 	nop			; (mov r0, r0)
20010a74:	ea000000 	b	20010a7c <process_call+0x170>
20010a78:	e1a00000 	nop			; (mov r0, r0)
20010a7c:	eb000728 	bl	20012724 <rx_available>
20010a80:	e1a03000 	mov	r3, r0
20010a84:	e3530000 	cmp	r3, #0
20010a88:	0a000007 	beq	20010aac <process_call+0x1a0>
20010a8c:	eb00075a 	bl	200127fc <get_rx_next_ptr>
20010a90:	e1a03000 	mov	r3, r0
20010a94:	e1a00003 	mov	r0, r3
20010a98:	eb0002d3 	bl	200115ec <update_rx>
20010a9c:	e1a03000 	mov	r3, r0
20010aa0:	e3530000 	cmp	r3, #0
20010aa4:	0a000000 	beq	20010aac <process_call+0x1a0>
20010aa8:	eb000771 	bl	20012874 <get_rx_buffer>
20010aac:	eb0007e9 	bl	20012a58 <tx_available>
20010ab0:	e1a03000 	mov	r3, r0
20010ab4:	e3530000 	cmp	r3, #0
20010ab8:	0a000008 	beq	20010ae0 <process_call+0x1d4>
20010abc:	eb000818 	bl	20012b24 <get_tx_next_ptr>
20010ac0:	e1a03000 	mov	r3, r0
20010ac4:	e1a00003 	mov	r0, r3
20010ac8:	eb0002d0 	bl	20011610 <update_tx>
20010acc:	e1a03000 	mov	r3, r0
20010ad0:	e3530000 	cmp	r3, #0
20010ad4:	0a000001 	beq	20010ae0 <process_call+0x1d4>
20010ad8:	eb00082f 	bl	20012b9c <get_tx_buffer>
20010adc:	e1a00000 	nop			; (mov r0, r0)
20010ae0:	e1a00000 	nop			; (mov r0, r0)
20010ae4:	e24bd004 	sub	sp, fp, #4
20010ae8:	e8bd4800 	pop	{fp, lr}
20010aec:	e12fff1e 	bx	lr
20010af0:	20015294 	.word	0x20015294

20010af4 <disconnect_call>:
20010af4:	e92d4800 	push	{fp, lr}
20010af8:	e28db004 	add	fp, sp, #4
20010afc:	eb00040b 	bl	20011b30 <tcp_connection_close>
20010b00:	eb0002f9 	bl	200116ec <call_halt>
20010b04:	e1a00000 	nop			; (mov r0, r0)
20010b08:	e24bd004 	sub	sp, fp, #4
20010b0c:	e8bd4800 	pop	{fp, lr}
20010b10:	e12fff1e 	bx	lr

20010b14 <ring_fill>:
20010b14:	e92d4800 	push	{fp, lr}
20010b18:	e28db004 	add	fp, sp, #4
20010b1c:	e24dd018 	sub	sp, sp, #24
20010b20:	e50b0018 	str	r0, [fp, #-24]	; 0xffffffe8
20010b24:	e50b101c 	str	r1, [fp, #-28]	; 0xffffffe4
20010b28:	e3a03000 	mov	r3, #0
20010b2c:	e50b300c 	str	r3, [fp, #-12]
20010b30:	ea000062 	b	20010cc0 <ring_fill+0x1ac>
20010b34:	e59f31a4 	ldr	r3, [pc, #420]	; 20010ce0 <ring_fill+0x1cc>
20010b38:	e5933000 	ldr	r3, [r3]
20010b3c:	e2833001 	add	r3, r3, #1
20010b40:	e59f2198 	ldr	r2, [pc, #408]	; 20010ce0 <ring_fill+0x1cc>
20010b44:	e5823000 	str	r3, [r2]
20010b48:	e59f3190 	ldr	r3, [pc, #400]	; 20010ce0 <ring_fill+0x1cc>
20010b4c:	e5933000 	ldr	r3, [r3]
20010b50:	e59f218c 	ldr	r2, [pc, #396]	; 20010ce4 <ring_fill+0x1d0>
20010b54:	e1530002 	cmp	r3, r2
20010b58:	9a000002 	bls	20010b68 <ring_fill+0x54>
20010b5c:	e59f317c 	ldr	r3, [pc, #380]	; 20010ce0 <ring_fill+0x1cc>
20010b60:	e3a02000 	mov	r2, #0
20010b64:	e5832000 	str	r2, [r3]
20010b68:	e59f3170 	ldr	r3, [pc, #368]	; 20010ce0 <ring_fill+0x1cc>
20010b6c:	e5932000 	ldr	r2, [r3]
20010b70:	e1a03002 	mov	r3, r2
20010b74:	e1a03283 	lsl	r3, r3, #5
20010b78:	e0623003 	rsb	r3, r2, r3
20010b7c:	e1a03103 	lsl	r3, r3, #2
20010b80:	e0833002 	add	r3, r3, r2
20010b84:	e1a03103 	lsl	r3, r3, #2
20010b88:	e1a02003 	mov	r2, r3
20010b8c:	e59f3154 	ldr	r3, [pc, #340]	; 20010ce8 <ring_fill+0x1d4>
20010b90:	e0831392 	umull	r1, r3, r2, r3
20010b94:	e1a034a3 	lsr	r3, r3, #9
20010b98:	e1a00503 	lsl	r0, r3, #10
20010b9c:	e59f313c 	ldr	r3, [pc, #316]	; 20010ce0 <ring_fill+0x1cc>
20010ba0:	e5932000 	ldr	r2, [r3]
20010ba4:	e1a03002 	mov	r3, r2
20010ba8:	e1a03283 	lsl	r3, r3, #5
20010bac:	e0623003 	rsb	r3, r2, r3
20010bb0:	e1a03103 	lsl	r3, r3, #2
20010bb4:	e0833002 	add	r3, r3, r2
20010bb8:	e1a03103 	lsl	r3, r3, #2
20010bbc:	e1a01003 	mov	r1, r3
20010bc0:	e59f3120 	ldr	r3, [pc, #288]	; 20010ce8 <ring_fill+0x1d4>
20010bc4:	e0832391 	umull	r2, r3, r1, r3
20010bc8:	e1a024a3 	lsr	r2, r3, #9
20010bcc:	e1a03002 	mov	r3, r2
20010bd0:	e1a03283 	lsl	r3, r3, #5
20010bd4:	e0623003 	rsb	r3, r2, r3
20010bd8:	e1a03103 	lsl	r3, r3, #2
20010bdc:	e0833002 	add	r3, r3, r2
20010be0:	e1a03303 	lsl	r3, r3, #6
20010be4:	e0632001 	rsb	r2, r3, r1
20010be8:	e1a03502 	lsl	r3, r2, #10
20010bec:	e59f20f4 	ldr	r2, [pc, #244]	; 20010ce8 <ring_fill+0x1d4>
20010bf0:	e0831392 	umull	r1, r3, r2, r3
20010bf4:	e1a034a3 	lsr	r3, r3, #9
20010bf8:	e0803003 	add	r3, r0, r3
20010bfc:	e50b3010 	str	r3, [fp, #-16]
20010c00:	e51b0010 	ldr	r0, [fp, #-16]
20010c04:	eb0000af 	bl	20010ec8 <sine_wave>
20010c08:	e50b0014 	str	r0, [fp, #-20]	; 0xffffffec
20010c0c:	e51b3010 	ldr	r3, [fp, #-16]
20010c10:	e59f20d4 	ldr	r2, [pc, #212]	; 20010cec <ring_fill+0x1d8>
20010c14:	e0c21293 	smull	r1, r2, r3, r2
20010c18:	e1a021c2 	asr	r2, r2, #3
20010c1c:	e1a03fc3 	asr	r3, r3, #31
20010c20:	e0633002 	rsb	r3, r3, r2
20010c24:	e1a00003 	mov	r0, r3
20010c28:	eb0000a6 	bl	20010ec8 <sine_wave>
20010c2c:	e50b0008 	str	r0, [fp, #-8]
20010c30:	e51b3008 	ldr	r3, [fp, #-8]
20010c34:	e3530000 	cmp	r3, #0
20010c38:	aa000002 	bge	20010c48 <ring_fill+0x134>
20010c3c:	e51b3008 	ldr	r3, [fp, #-8]
20010c40:	e2633000 	rsb	r3, r3, #0
20010c44:	e50b3008 	str	r3, [fp, #-8]
20010c48:	e59f3090 	ldr	r3, [pc, #144]	; 20010ce0 <ring_fill+0x1cc>
20010c4c:	e5933000 	ldr	r3, [r3]
20010c50:	e3530dfa 	cmp	r3, #16000	; 0x3e80
20010c54:	2a000010 	bcs	20010c9c <ring_fill+0x188>
20010c58:	e51b300c 	ldr	r3, [fp, #-12]
20010c5c:	e1a03083 	lsl	r3, r3, #1
20010c60:	e51b2018 	ldr	r2, [fp, #-24]	; 0xffffffe8
20010c64:	e0821003 	add	r1, r2, r3
20010c68:	e51b3014 	ldr	r3, [fp, #-20]	; 0xffffffec
20010c6c:	e51b2008 	ldr	r2, [fp, #-8]
20010c70:	e0030392 	mul	r3, r2, r3
20010c74:	e2832dff 	add	r2, r3, #16320	; 0x3fc0
20010c78:	e282203f 	add	r2, r2, #63	; 0x3f
20010c7c:	e3530000 	cmp	r3, #0
20010c80:	b1a03002 	movlt	r3, r2
20010c84:	a1a03003 	movge	r3, r3
20010c88:	e1a03743 	asr	r3, r3, #14
20010c8c:	e1a03803 	lsl	r3, r3, #16
20010c90:	e1a03823 	lsr	r3, r3, #16
20010c94:	e1c130b0 	strh	r3, [r1]
20010c98:	ea000005 	b	20010cb4 <ring_fill+0x1a0>
20010c9c:	e51b300c 	ldr	r3, [fp, #-12]
20010ca0:	e1a03083 	lsl	r3, r3, #1
20010ca4:	e51b2018 	ldr	r2, [fp, #-24]	; 0xffffffe8
20010ca8:	e0823003 	add	r3, r2, r3
20010cac:	e3a02000 	mov	r2, #0
20010cb0:	e1c320b0 	strh	r2, [r3]
20010cb4:	e51b300c 	ldr	r3, [fp, #-12]
20010cb8:	e2833001 	add	r3, r3, #1
20010cbc:	e50b300c 	str	r3, [fp, #-12]
20010cc0:	e51b200c 	ldr	r2, [fp, #-12]
20010cc4:	e51b301c 	ldr	r3, [fp, #-28]	; 0xffffffe4
20010cc8:	e1520003 	cmp	r2, r3
20010ccc:	baffff98 	blt	20010b34 <ring_fill+0x20>
20010cd0:	e1a00000 	nop			; (mov r0, r0)
20010cd4:	e24bd004 	sub	sp, fp, #4
20010cd8:	e8bd4800 	pop	{fp, lr}
20010cdc:	e12fff1e 	bx	lr
20010ce0:	20015298 	.word	0x20015298
20010ce4:	0000bb7f 	.word	0x0000bb7f
20010ce8:	10624dd3 	.word	0x10624dd3
20010cec:	51eb851f 	.word	0x51eb851f

20010cf0 <busy_fill>:
20010cf0:	e92d4800 	push	{fp, lr}
20010cf4:	e28db004 	add	fp, sp, #4
20010cf8:	e24dd018 	sub	sp, sp, #24
20010cfc:	e50b0018 	str	r0, [fp, #-24]	; 0xffffffe8
20010d00:	e50b101c 	str	r1, [fp, #-28]	; 0xffffffe4
20010d04:	e3a03000 	mov	r3, #0
20010d08:	e50b300c 	str	r3, [fp, #-12]
20010d0c:	ea000062 	b	20010e9c <busy_fill+0x1ac>
20010d10:	e59f31a4 	ldr	r3, [pc, #420]	; 20010ebc <busy_fill+0x1cc>
20010d14:	e5933000 	ldr	r3, [r3]
20010d18:	e2833001 	add	r3, r3, #1
20010d1c:	e59f2198 	ldr	r2, [pc, #408]	; 20010ebc <busy_fill+0x1cc>
20010d20:	e5823000 	str	r3, [r2]
20010d24:	e59f3190 	ldr	r3, [pc, #400]	; 20010ebc <busy_fill+0x1cc>
20010d28:	e5933000 	ldr	r3, [r3]
20010d2c:	e3530d7d 	cmp	r3, #8000	; 0x1f40
20010d30:	3a000002 	bcc	20010d40 <busy_fill+0x50>
20010d34:	e59f3180 	ldr	r3, [pc, #384]	; 20010ebc <busy_fill+0x1cc>
20010d38:	e3a02000 	mov	r2, #0
20010d3c:	e5832000 	str	r2, [r3]
20010d40:	e59f3174 	ldr	r3, [pc, #372]	; 20010ebc <busy_fill+0x1cc>
20010d44:	e5932000 	ldr	r2, [r3]
20010d48:	e1a03002 	mov	r3, r2
20010d4c:	e1a03103 	lsl	r3, r3, #2
20010d50:	e0833002 	add	r3, r3, r2
20010d54:	e1a02203 	lsl	r2, r3, #4
20010d58:	e0632002 	rsb	r2, r3, r2
20010d5c:	e1a03182 	lsl	r3, r2, #3
20010d60:	e1a02003 	mov	r2, r3
20010d64:	e59f3154 	ldr	r3, [pc, #340]	; 20010ec0 <busy_fill+0x1d0>
20010d68:	e0831392 	umull	r1, r3, r2, r3
20010d6c:	e1a034a3 	lsr	r3, r3, #9
20010d70:	e1a00503 	lsl	r0, r3, #10
20010d74:	e59f3140 	ldr	r3, [pc, #320]	; 20010ebc <busy_fill+0x1cc>
20010d78:	e5932000 	ldr	r2, [r3]
20010d7c:	e1a03002 	mov	r3, r2
20010d80:	e1a03103 	lsl	r3, r3, #2
20010d84:	e0833002 	add	r3, r3, r2
20010d88:	e1a02203 	lsl	r2, r3, #4
20010d8c:	e0632002 	rsb	r2, r3, r2
20010d90:	e1a03182 	lsl	r3, r2, #3
20010d94:	e1a02003 	mov	r2, r3
20010d98:	e1a01002 	mov	r1, r2
20010d9c:	e59f311c 	ldr	r3, [pc, #284]	; 20010ec0 <busy_fill+0x1d0>
20010da0:	e0832391 	umull	r2, r3, r1, r3
20010da4:	e1a024a3 	lsr	r2, r3, #9
20010da8:	e1a03002 	mov	r3, r2
20010dac:	e1a03283 	lsl	r3, r3, #5
20010db0:	e0623003 	rsb	r3, r2, r3
20010db4:	e1a03103 	lsl	r3, r3, #2
20010db8:	e0833002 	add	r3, r3, r2
20010dbc:	e1a03303 	lsl	r3, r3, #6
20010dc0:	e0632001 	rsb	r2, r3, r1
20010dc4:	e1a03502 	lsl	r3, r2, #10
20010dc8:	e59f20f0 	ldr	r2, [pc, #240]	; 20010ec0 <busy_fill+0x1d0>
20010dcc:	e0831392 	umull	r1, r3, r2, r3
20010dd0:	e1a034a3 	lsr	r3, r3, #9
20010dd4:	e0803003 	add	r3, r0, r3
20010dd8:	e50b3010 	str	r3, [fp, #-16]
20010ddc:	e51b0010 	ldr	r0, [fp, #-16]
20010de0:	eb000038 	bl	20010ec8 <sine_wave>
20010de4:	e50b0014 	str	r0, [fp, #-20]	; 0xffffffec
20010de8:	e51b3010 	ldr	r3, [fp, #-16]
20010dec:	e59f20d0 	ldr	r2, [pc, #208]	; 20010ec4 <busy_fill+0x1d4>
20010df0:	e0c21293 	smull	r1, r2, r3, r2
20010df4:	e1a020c2 	asr	r2, r2, #1
20010df8:	e1a03fc3 	asr	r3, r3, #31
20010dfc:	e0633002 	rsb	r3, r3, r2
20010e00:	e1a00003 	mov	r0, r3
20010e04:	eb00002f 	bl	20010ec8 <sine_wave>
20010e08:	e50b0008 	str	r0, [fp, #-8]
20010e0c:	e51b3008 	ldr	r3, [fp, #-8]
20010e10:	e3530000 	cmp	r3, #0
20010e14:	aa000002 	bge	20010e24 <busy_fill+0x134>
20010e18:	e51b3008 	ldr	r3, [fp, #-8]
20010e1c:	e2633000 	rsb	r3, r3, #0
20010e20:	e50b3008 	str	r3, [fp, #-8]
20010e24:	e59f3090 	ldr	r3, [pc, #144]	; 20010ebc <busy_fill+0x1cc>
20010e28:	e5933000 	ldr	r3, [r3]
20010e2c:	e3530efa 	cmp	r3, #4000	; 0xfa0
20010e30:	2a000010 	bcs	20010e78 <busy_fill+0x188>
20010e34:	e51b300c 	ldr	r3, [fp, #-12]
20010e38:	e1a03083 	lsl	r3, r3, #1
20010e3c:	e51b2018 	ldr	r2, [fp, #-24]	; 0xffffffe8
20010e40:	e0821003 	add	r1, r2, r3
20010e44:	e51b3014 	ldr	r3, [fp, #-20]	; 0xffffffec
20010e48:	e51b2008 	ldr	r2, [fp, #-8]
20010e4c:	e0030392 	mul	r3, r2, r3
20010e50:	e2832dff 	add	r2, r3, #16320	; 0x3fc0
20010e54:	e282203f 	add	r2, r2, #63	; 0x3f
20010e58:	e3530000 	cmp	r3, #0
20010e5c:	b1a03002 	movlt	r3, r2
20010e60:	a1a03003 	movge	r3, r3
20010e64:	e1a03743 	asr	r3, r3, #14
20010e68:	e1a03803 	lsl	r3, r3, #16
20010e6c:	e1a03823 	lsr	r3, r3, #16
20010e70:	e1c130b0 	strh	r3, [r1]
20010e74:	ea000005 	b	20010e90 <busy_fill+0x1a0>
20010e78:	e51b300c 	ldr	r3, [fp, #-12]
20010e7c:	e1a03083 	lsl	r3, r3, #1
20010e80:	e51b2018 	ldr	r2, [fp, #-24]	; 0xffffffe8
20010e84:	e0823003 	add	r3, r2, r3
20010e88:	e3a02000 	mov	r2, #0
20010e8c:	e1c320b0 	strh	r2, [r3]
20010e90:	e51b300c 	ldr	r3, [fp, #-12]
20010e94:	e2833001 	add	r3, r3, #1
20010e98:	e50b300c 	str	r3, [fp, #-12]
20010e9c:	e51b200c 	ldr	r2, [fp, #-12]
20010ea0:	e51b301c 	ldr	r3, [fp, #-28]	; 0xffffffe4
20010ea4:	e1520003 	cmp	r2, r3
20010ea8:	baffff98 	blt	20010d10 <busy_fill+0x20>
20010eac:	e1a00000 	nop			; (mov r0, r0)
20010eb0:	e24bd004 	sub	sp, fp, #4
20010eb4:	e8bd4800 	pop	{fp, lr}
20010eb8:	e12fff1e 	bx	lr
20010ebc:	20015298 	.word	0x20015298
20010ec0:	10624dd3 	.word	0x10624dd3
20010ec4:	66666667 	.word	0x66666667

20010ec8 <sine_wave>:
20010ec8:	e52db004 	push	{fp}		; (str fp, [sp, #-4]!)
20010ecc:	e28db000 	add	fp, sp, #0
20010ed0:	e24dd014 	sub	sp, sp, #20
20010ed4:	e50b0010 	str	r0, [fp, #-16]
20010ed8:	e51b3010 	ldr	r3, [fp, #-16]
20010edc:	e1a02fc3 	asr	r2, r3, #31
20010ee0:	e1a02b22 	lsr	r2, r2, #22
20010ee4:	e0833002 	add	r3, r3, r2
20010ee8:	e1a03b03 	lsl	r3, r3, #22
20010eec:	e1a03b23 	lsr	r3, r3, #22
20010ef0:	e0623003 	rsb	r3, r2, r3
20010ef4:	e50b3010 	str	r3, [fp, #-16]
20010ef8:	e51b3010 	ldr	r3, [fp, #-16]
20010efc:	e3530000 	cmp	r3, #0
20010f00:	aa000002 	bge	20010f10 <sine_wave+0x48>
20010f04:	e51b3010 	ldr	r3, [fp, #-16]
20010f08:	e2833b01 	add	r3, r3, #1024	; 0x400
20010f0c:	e50b3010 	str	r3, [fp, #-16]
20010f10:	e51b3010 	ldr	r3, [fp, #-16]
20010f14:	e3530c02 	cmp	r3, #512	; 0x200
20010f18:	aa000002 	bge	20010f28 <sine_wave+0x60>
20010f1c:	e3a03001 	mov	r3, #1
20010f20:	e50b3008 	str	r3, [fp, #-8]
20010f24:	ea000001 	b	20010f30 <sine_wave+0x68>
20010f28:	e3e03000 	mvn	r3, #0
20010f2c:	e50b3008 	str	r3, [fp, #-8]
20010f30:	e51b3010 	ldr	r3, [fp, #-16]
20010f34:	e28320ff 	add	r2, r3, #255	; 0xff
20010f38:	e3530000 	cmp	r3, #0
20010f3c:	b1a03002 	movlt	r3, r2
20010f40:	a1a03003 	movge	r3, r3
20010f44:	e1a03443 	asr	r3, r3, #8
20010f48:	e2033001 	and	r3, r3, #1
20010f4c:	e3530000 	cmp	r3, #0
20010f50:	1a000007 	bne	20010f74 <sine_wave+0xac>
20010f54:	e51b2010 	ldr	r2, [fp, #-16]
20010f58:	e1a03fc2 	asr	r3, r2, #31
20010f5c:	e1a03c23 	lsr	r3, r3, #24
20010f60:	e0822003 	add	r2, r2, r3
20010f64:	e20220ff 	and	r2, r2, #255	; 0xff
20010f68:	e0633002 	rsb	r3, r3, r2
20010f6c:	e50b300c 	str	r3, [fp, #-12]
20010f70:	ea000007 	b	20010f94 <sine_wave+0xcc>
20010f74:	e51b2010 	ldr	r2, [fp, #-16]
20010f78:	e1a03fc2 	asr	r3, r2, #31
20010f7c:	e1a03c23 	lsr	r3, r3, #24
20010f80:	e0822003 	add	r2, r2, r3
20010f84:	e20220ff 	and	r2, r2, #255	; 0xff
20010f88:	e0633002 	rsb	r3, r3, r2
20010f8c:	e26330ff 	rsb	r3, r3, #255	; 0xff
20010f90:	e50b300c 	str	r3, [fp, #-12]
20010f94:	e59f202c 	ldr	r2, [pc, #44]	; 20010fc8 <sine_wave+0x100>
20010f98:	e51b300c 	ldr	r3, [fp, #-12]
20010f9c:	e1a03083 	lsl	r3, r3, #1
20010fa0:	e0823003 	add	r3, r2, r3
20010fa4:	e1d330b0 	ldrh	r3, [r3]
20010fa8:	e1a03803 	lsl	r3, r3, #16
20010fac:	e1a03843 	asr	r3, r3, #16
20010fb0:	e51b2008 	ldr	r2, [fp, #-8]
20010fb4:	e0030392 	mul	r3, r2, r3
20010fb8:	e1a00003 	mov	r0, r3
20010fbc:	e24bd000 	sub	sp, fp, #0
20010fc0:	e49db004 	pop	{fp}		; (ldr fp, [sp], #4)
20010fc4:	e12fff1e 	bx	lr
20010fc8:	20013618 	.word	0x20013618

20010fcc <start_IPEntry>:
20010fcc:	e92d4800 	push	{fp, lr}
20010fd0:	e28db004 	add	fp, sp, #4
20010fd4:	e24dd010 	sub	sp, sp, #16
20010fd8:	e1a03000 	mov	r3, r0
20010fdc:	e50b1014 	str	r1, [fp, #-20]	; 0xffffffec
20010fe0:	e54b300d 	strb	r3, [fp, #-13]
20010fe4:	eb000172 	bl	200115b4 <clr_IP_address>
20010fe8:	e51b3014 	ldr	r3, [fp, #-20]	; 0xffffffec
20010fec:	e243300d 	sub	r3, r3, #13
20010ff0:	e3530004 	cmp	r3, #4
20010ff4:	979ff103 	ldrls	pc, [pc, r3, lsl #2]
20010ff8:	ea000010 	b	20011040 <start_IPEntry+0x74>
20010ffc:	20011010 	.word	0x20011010
20011000:	20011040 	.word	0x20011040
20011004:	2001101c 	.word	0x2001101c
20011008:	20011028 	.word	0x20011028
2001100c:	20011034 	.word	0x20011034
20011010:	e3a03001 	mov	r3, #1
20011014:	e54b3005 	strb	r3, [fp, #-5]
20011018:	ea00000d 	b	20011054 <start_IPEntry+0x88>
2001101c:	e3a03005 	mov	r3, #5
20011020:	e54b3005 	strb	r3, [fp, #-5]
20011024:	ea00000a 	b	20011054 <start_IPEntry+0x88>
20011028:	e3a03006 	mov	r3, #6
2001102c:	e54b3005 	strb	r3, [fp, #-5]
20011030:	ea000007 	b	20011054 <start_IPEntry+0x88>
20011034:	e3a03007 	mov	r3, #7
20011038:	e54b3005 	strb	r3, [fp, #-5]
2001103c:	ea000004 	b	20011054 <start_IPEntry+0x88>
20011040:	e3a00000 	mov	r0, #0
20011044:	eb000743 	bl	20012d58 <process_error>
20011048:	e55b300d 	ldrb	r3, [fp, #-13]
2001104c:	e54b3005 	strb	r3, [fp, #-5]
20011050:	e1a00000 	nop			; (mov r0, r0)
20011054:	e55b2005 	ldrb	r2, [fp, #-5]
20011058:	e55b300d 	ldrb	r3, [fp, #-13]
2001105c:	e1520003 	cmp	r2, r3
20011060:	0a000003 	beq	20011074 <start_IPEntry+0xa8>
20011064:	e59f301c 	ldr	r3, [pc, #28]	; 20011088 <start_IPEntry+0xbc>
20011068:	e5933000 	ldr	r3, [r3]
2001106c:	e1a00003 	mov	r0, r3
20011070:	eb00017d 	bl	2001166c <display_IP>
20011074:	e55b3005 	ldrb	r3, [fp, #-5]
20011078:	e1a00003 	mov	r0, r3
2001107c:	e24bd004 	sub	sp, fp, #4
20011080:	e8bd4800 	pop	{fp, lr}
20011084:	e12fff1e 	bx	lr
20011088:	2001529c 	.word	0x2001529c

2001108c <clear_IPAddr>:
2001108c:	e92d4800 	push	{fp, lr}
20011090:	e28db004 	add	fp, sp, #4
20011094:	e24dd008 	sub	sp, sp, #8
20011098:	e1a03000 	mov	r3, r0
2001109c:	e50b100c 	str	r1, [fp, #-12]
200110a0:	e54b3005 	strb	r3, [fp, #-5]
200110a4:	eb000142 	bl	200115b4 <clr_IP_address>
200110a8:	e59f3040 	ldr	r3, [pc, #64]	; 200110f0 <clear_IPAddr+0x64>
200110ac:	e5933000 	ldr	r3, [r3]
200110b0:	e1a00003 	mov	r0, r3
200110b4:	ebfffd9e 	bl	20010734 <set_calling_IP>
200110b8:	e59f3030 	ldr	r3, [pc, #48]	; 200110f0 <clear_IPAddr+0x64>
200110bc:	e5933000 	ldr	r3, [r3]
200110c0:	e1a00003 	mov	r0, r3
200110c4:	eb000168 	bl	2001166c <display_IP>
200110c8:	e55b3005 	ldrb	r3, [fp, #-5]
200110cc:	e353000a 	cmp	r3, #10
200110d0:	1a000001 	bne	200110dc <clear_IPAddr+0x50>
200110d4:	e3a03000 	mov	r3, #0
200110d8:	e54b3005 	strb	r3, [fp, #-5]
200110dc:	e55b3005 	ldrb	r3, [fp, #-5]
200110e0:	e1a00003 	mov	r0, r3
200110e4:	e24bd004 	sub	sp, fp, #4
200110e8:	e8bd4800 	pop	{fp, lr}
200110ec:	e12fff1e 	bx	lr
200110f0:	2001529c 	.word	0x2001529c

200110f4 <add_IPDigit>:
200110f4:	e92d4800 	push	{fp, lr}
200110f8:	e28db004 	add	fp, sp, #4
200110fc:	e24dd010 	sub	sp, sp, #16
20011100:	e1a03000 	mov	r3, r0
20011104:	e50b1014 	str	r1, [fp, #-20]	; 0xffffffec
20011108:	e54b300d 	strb	r3, [fp, #-13]
2001110c:	e59f318c 	ldr	r3, [pc, #396]	; 200112a0 <add_IPDigit+0x1ac>
20011110:	e5933000 	ldr	r3, [r3]
20011114:	e353000b 	cmp	r3, #11
20011118:	ca000051 	bgt	20011264 <add_IPDigit+0x170>
2001111c:	e59f317c 	ldr	r3, [pc, #380]	; 200112a0 <add_IPDigit+0x1ac>
20011120:	e5933000 	ldr	r3, [r3]
20011124:	e59f2178 	ldr	r2, [pc, #376]	; 200112a4 <add_IPDigit+0x1b0>
20011128:	e0c21293 	smull	r1, r2, r3, r2
2001112c:	e1a03fc3 	asr	r3, r3, #31
20011130:	e0633002 	rsb	r3, r3, r2
20011134:	e1a03183 	lsl	r3, r3, #3
20011138:	e3a024ff 	mov	r2, #-16777216	; 0xff000000
2001113c:	e1a02332 	lsr	r2, r2, r3
20011140:	e59f3160 	ldr	r3, [pc, #352]	; 200112a8 <add_IPDigit+0x1b4>
20011144:	e5933000 	ldr	r3, [r3]
20011148:	e0033002 	and	r3, r3, r2
2001114c:	e50b3008 	str	r3, [fp, #-8]
20011150:	e59f3148 	ldr	r3, [pc, #328]	; 200112a0 <add_IPDigit+0x1ac>
20011154:	e5933000 	ldr	r3, [r3]
20011158:	e59f2144 	ldr	r2, [pc, #324]	; 200112a4 <add_IPDigit+0x1b0>
2001115c:	e0c21293 	smull	r1, r2, r3, r2
20011160:	e1a03fc3 	asr	r3, r3, #31
20011164:	e0633002 	rsb	r3, r3, r2
20011168:	e2633003 	rsb	r3, r3, #3
2001116c:	e1a03183 	lsl	r3, r3, #3
20011170:	e51b2008 	ldr	r2, [fp, #-8]
20011174:	e1a03332 	lsr	r3, r2, r3
20011178:	e50b3008 	str	r3, [fp, #-8]
2001117c:	e51b2008 	ldr	r2, [fp, #-8]
20011180:	e1a03002 	mov	r3, r2
20011184:	e1a03103 	lsl	r3, r3, #2
20011188:	e0833002 	add	r3, r3, r2
2001118c:	e1a03083 	lsl	r3, r3, #1
20011190:	e1a02003 	mov	r2, r3
20011194:	e51b3014 	ldr	r3, [fp, #-20]	; 0xffffffec
20011198:	e0823003 	add	r3, r2, r3
2001119c:	e35300ff 	cmp	r3, #255	; 0xff
200111a0:	8a00002c 	bhi	20011258 <add_IPDigit+0x164>
200111a4:	e51b2008 	ldr	r2, [fp, #-8]
200111a8:	e1a03002 	mov	r3, r2
200111ac:	e1a03103 	lsl	r3, r3, #2
200111b0:	e0833002 	add	r3, r3, r2
200111b4:	e1a03083 	lsl	r3, r3, #1
200111b8:	e1a02003 	mov	r2, r3
200111bc:	e51b3014 	ldr	r3, [fp, #-20]	; 0xffffffec
200111c0:	e0823003 	add	r3, r2, r3
200111c4:	e50b3008 	str	r3, [fp, #-8]
200111c8:	e59f30d0 	ldr	r3, [pc, #208]	; 200112a0 <add_IPDigit+0x1ac>
200111cc:	e5933000 	ldr	r3, [r3]
200111d0:	e59f20cc 	ldr	r2, [pc, #204]	; 200112a4 <add_IPDigit+0x1b0>
200111d4:	e0c21293 	smull	r1, r2, r3, r2
200111d8:	e1a03fc3 	asr	r3, r3, #31
200111dc:	e0633002 	rsb	r3, r3, r2
200111e0:	e1a03183 	lsl	r3, r3, #3
200111e4:	e3a024ff 	mov	r2, #-16777216	; 0xff000000
200111e8:	e1a03332 	lsr	r3, r2, r3
200111ec:	e1e02003 	mvn	r2, r3
200111f0:	e59f30b0 	ldr	r3, [pc, #176]	; 200112a8 <add_IPDigit+0x1b4>
200111f4:	e5933000 	ldr	r3, [r3]
200111f8:	e0033002 	and	r3, r3, r2
200111fc:	e59f20a4 	ldr	r2, [pc, #164]	; 200112a8 <add_IPDigit+0x1b4>
20011200:	e5823000 	str	r3, [r2]
20011204:	e59f3094 	ldr	r3, [pc, #148]	; 200112a0 <add_IPDigit+0x1ac>
20011208:	e5933000 	ldr	r3, [r3]
2001120c:	e59f2090 	ldr	r2, [pc, #144]	; 200112a4 <add_IPDigit+0x1b0>
20011210:	e0c21293 	smull	r1, r2, r3, r2
20011214:	e1a03fc3 	asr	r3, r3, #31
20011218:	e0633002 	rsb	r3, r3, r2
2001121c:	e2633003 	rsb	r3, r3, #3
20011220:	e1a03183 	lsl	r3, r3, #3
20011224:	e51b2008 	ldr	r2, [fp, #-8]
20011228:	e1a02312 	lsl	r2, r2, r3
2001122c:	e59f3074 	ldr	r3, [pc, #116]	; 200112a8 <add_IPDigit+0x1b4>
20011230:	e5933000 	ldr	r3, [r3]
20011234:	e1823003 	orr	r3, r2, r3
20011238:	e59f2068 	ldr	r2, [pc, #104]	; 200112a8 <add_IPDigit+0x1b4>
2001123c:	e5823000 	str	r3, [r2]
20011240:	e59f3058 	ldr	r3, [pc, #88]	; 200112a0 <add_IPDigit+0x1ac>
20011244:	e5933000 	ldr	r3, [r3]
20011248:	e2833001 	add	r3, r3, #1
2001124c:	e59f204c 	ldr	r2, [pc, #76]	; 200112a0 <add_IPDigit+0x1ac>
20011250:	e5823000 	str	r3, [r2]
20011254:	ea000004 	b	2001126c <add_IPDigit+0x178>
20011258:	e3a00001 	mov	r0, #1
2001125c:	eb0006bd 	bl	20012d58 <process_error>
20011260:	ea000001 	b	2001126c <add_IPDigit+0x178>
20011264:	e3a00001 	mov	r0, #1
20011268:	eb0006ba 	bl	20012d58 <process_error>
2001126c:	e59f3034 	ldr	r3, [pc, #52]	; 200112a8 <add_IPDigit+0x1b4>
20011270:	e5933000 	ldr	r3, [r3]
20011274:	e1a00003 	mov	r0, r3
20011278:	ebfffd2d 	bl	20010734 <set_calling_IP>
2001127c:	e59f3024 	ldr	r3, [pc, #36]	; 200112a8 <add_IPDigit+0x1b4>
20011280:	e5933000 	ldr	r3, [r3]
20011284:	e1a00003 	mov	r0, r3
20011288:	eb0000f7 	bl	2001166c <display_IP>
2001128c:	e55b300d 	ldrb	r3, [fp, #-13]
20011290:	e1a00003 	mov	r0, r3
20011294:	e24bd004 	sub	sp, fp, #4
20011298:	e8bd4800 	pop	{fp, lr}
2001129c:	e12fff1e 	bx	lr
200112a0:	200152a0 	.word	0x200152a0
200112a4:	55555556 	.word	0x55555556
200112a8:	2001529c 	.word	0x2001529c

200112ac <del_IPDigit>:
200112ac:	e92d4800 	push	{fp, lr}
200112b0:	e28db004 	add	fp, sp, #4
200112b4:	e24dd010 	sub	sp, sp, #16
200112b8:	e1a03000 	mov	r3, r0
200112bc:	e50b1014 	str	r1, [fp, #-20]	; 0xffffffec
200112c0:	e54b300d 	strb	r3, [fp, #-13]
200112c4:	e59f3158 	ldr	r3, [pc, #344]	; 20011424 <del_IPDigit+0x178>
200112c8:	e5933000 	ldr	r3, [r3]
200112cc:	e3530000 	cmp	r3, #0
200112d0:	da00004c 	ble	20011408 <del_IPDigit+0x15c>
200112d4:	e59f3148 	ldr	r3, [pc, #328]	; 20011424 <del_IPDigit+0x178>
200112d8:	e5933000 	ldr	r3, [r3]
200112dc:	e2433001 	sub	r3, r3, #1
200112e0:	e59f2140 	ldr	r2, [pc, #320]	; 20011428 <del_IPDigit+0x17c>
200112e4:	e0c21293 	smull	r1, r2, r3, r2
200112e8:	e1a03fc3 	asr	r3, r3, #31
200112ec:	e0633002 	rsb	r3, r3, r2
200112f0:	e1a03183 	lsl	r3, r3, #3
200112f4:	e3a024ff 	mov	r2, #-16777216	; 0xff000000
200112f8:	e1a02332 	lsr	r2, r2, r3
200112fc:	e59f3128 	ldr	r3, [pc, #296]	; 2001142c <del_IPDigit+0x180>
20011300:	e5933000 	ldr	r3, [r3]
20011304:	e0033002 	and	r3, r3, r2
20011308:	e50b3008 	str	r3, [fp, #-8]
2001130c:	e59f3110 	ldr	r3, [pc, #272]	; 20011424 <del_IPDigit+0x178>
20011310:	e5933000 	ldr	r3, [r3]
20011314:	e2433001 	sub	r3, r3, #1
20011318:	e59f2108 	ldr	r2, [pc, #264]	; 20011428 <del_IPDigit+0x17c>
2001131c:	e0c21293 	smull	r1, r2, r3, r2
20011320:	e1a03fc3 	asr	r3, r3, #31
20011324:	e0633002 	rsb	r3, r3, r2
20011328:	e2633003 	rsb	r3, r3, #3
2001132c:	e1a03183 	lsl	r3, r3, #3
20011330:	e51b2008 	ldr	r2, [fp, #-8]
20011334:	e1a03332 	lsr	r3, r2, r3
20011338:	e50b3008 	str	r3, [fp, #-8]
2001133c:	e51b3008 	ldr	r3, [fp, #-8]
20011340:	e59f20e8 	ldr	r2, [pc, #232]	; 20011430 <del_IPDigit+0x184>
20011344:	e0831392 	umull	r1, r3, r2, r3
20011348:	e1a031a3 	lsr	r3, r3, #3
2001134c:	e50b3008 	str	r3, [fp, #-8]
20011350:	e59f30cc 	ldr	r3, [pc, #204]	; 20011424 <del_IPDigit+0x178>
20011354:	e5933000 	ldr	r3, [r3]
20011358:	e2433001 	sub	r3, r3, #1
2001135c:	e59f20c4 	ldr	r2, [pc, #196]	; 20011428 <del_IPDigit+0x17c>
20011360:	e0c21293 	smull	r1, r2, r3, r2
20011364:	e1a03fc3 	asr	r3, r3, #31
20011368:	e0633002 	rsb	r3, r3, r2
2001136c:	e1a03183 	lsl	r3, r3, #3
20011370:	e3a024ff 	mov	r2, #-16777216	; 0xff000000
20011374:	e1a03332 	lsr	r3, r2, r3
20011378:	e1e02003 	mvn	r2, r3
2001137c:	e59f30a8 	ldr	r3, [pc, #168]	; 2001142c <del_IPDigit+0x180>
20011380:	e5933000 	ldr	r3, [r3]
20011384:	e0033002 	and	r3, r3, r2
20011388:	e59f209c 	ldr	r2, [pc, #156]	; 2001142c <del_IPDigit+0x180>
2001138c:	e5823000 	str	r3, [r2]
20011390:	e59f308c 	ldr	r3, [pc, #140]	; 20011424 <del_IPDigit+0x178>
20011394:	e5933000 	ldr	r3, [r3]
20011398:	e2433001 	sub	r3, r3, #1
2001139c:	e59f2084 	ldr	r2, [pc, #132]	; 20011428 <del_IPDigit+0x17c>
200113a0:	e0c21293 	smull	r1, r2, r3, r2
200113a4:	e1a03fc3 	asr	r3, r3, #31
200113a8:	e0633002 	rsb	r3, r3, r2
200113ac:	e2633003 	rsb	r3, r3, #3
200113b0:	e1a03183 	lsl	r3, r3, #3
200113b4:	e51b2008 	ldr	r2, [fp, #-8]
200113b8:	e1a02312 	lsl	r2, r2, r3
200113bc:	e59f3068 	ldr	r3, [pc, #104]	; 2001142c <del_IPDigit+0x180>
200113c0:	e5933000 	ldr	r3, [r3]
200113c4:	e1823003 	orr	r3, r2, r3
200113c8:	e59f205c 	ldr	r2, [pc, #92]	; 2001142c <del_IPDigit+0x180>
200113cc:	e5823000 	str	r3, [r2]
200113d0:	e59f304c 	ldr	r3, [pc, #76]	; 20011424 <del_IPDigit+0x178>
200113d4:	e5933000 	ldr	r3, [r3]
200113d8:	e2433001 	sub	r3, r3, #1
200113dc:	e59f2040 	ldr	r2, [pc, #64]	; 20011424 <del_IPDigit+0x178>
200113e0:	e5823000 	str	r3, [r2]
200113e4:	e59f3040 	ldr	r3, [pc, #64]	; 2001142c <del_IPDigit+0x180>
200113e8:	e5933000 	ldr	r3, [r3]
200113ec:	e1a00003 	mov	r0, r3
200113f0:	ebfffccf 	bl	20010734 <set_calling_IP>
200113f4:	e59f3030 	ldr	r3, [pc, #48]	; 2001142c <del_IPDigit+0x180>
200113f8:	e5933000 	ldr	r3, [r3]
200113fc:	e1a00003 	mov	r0, r3
20011400:	eb000099 	bl	2001166c <display_IP>
20011404:	ea000001 	b	20011410 <del_IPDigit+0x164>
20011408:	e3a00002 	mov	r0, #2
2001140c:	eb000651 	bl	20012d58 <process_error>
20011410:	e55b300d 	ldrb	r3, [fp, #-13]
20011414:	e1a00003 	mov	r0, r3
20011418:	e24bd004 	sub	sp, fp, #4
2001141c:	e8bd4800 	pop	{fp, lr}
20011420:	e12fff1e 	bx	lr
20011424:	200152a0 	.word	0x200152a0
20011428:	55555556 	.word	0x55555556
2001142c:	2001529c 	.word	0x2001529c
20011430:	cccccccd 	.word	0xcccccccd

20011434 <set_IP>:
20011434:	e92d4800 	push	{fp, lr}
20011438:	e28db004 	add	fp, sp, #4
2001143c:	e24dd010 	sub	sp, sp, #16
20011440:	e1a03000 	mov	r3, r0
20011444:	e50b1014 	str	r1, [fp, #-20]	; 0xffffffec
20011448:	e54b300d 	strb	r3, [fp, #-13]
2001144c:	ebfffca7 	bl	200106f0 <get_calling_IP>
20011450:	e1a03000 	mov	r3, r0
20011454:	e1a00003 	mov	r0, r3
20011458:	ebffefa8 	bl	2000d300 <htonl>
2001145c:	e1a03000 	mov	r3, r0
20011460:	e50b300c 	str	r3, [fp, #-12]
20011464:	e59f0044 	ldr	r0, [pc, #68]	; 200114b0 <set_IP+0x7c>
20011468:	ebffbf23 	bl	200010fc <netif_find>
2001146c:	e50b0008 	str	r0, [fp, #-8]
20011470:	e51b3008 	ldr	r3, [fp, #-8]
20011474:	e3530000 	cmp	r3, #0
20011478:	0a000004 	beq	20011490 <set_IP+0x5c>
2001147c:	e24b300c 	sub	r3, fp, #12
20011480:	e1a01003 	mov	r1, r3
20011484:	e51b0008 	ldr	r0, [fp, #-8]
20011488:	ebffbf4d 	bl	200011c4 <netif_set_ipaddr>
2001148c:	ea000001 	b	20011498 <set_IP+0x64>
20011490:	e3a00006 	mov	r0, #6
20011494:	eb00062f 	bl	20012d58 <process_error>
20011498:	eb000101 	bl	200118a4 <tcp_connection_restart>
2001149c:	e3a03000 	mov	r3, #0
200114a0:	e1a00003 	mov	r0, r3
200114a4:	e24bd004 	sub	sp, fp, #4
200114a8:	e8bd4800 	pop	{fp, lr}
200114ac:	e12fff1e 	bx	lr
200114b0:	20013818 	.word	0x20013818

200114b4 <set_gateway>:
200114b4:	e92d4800 	push	{fp, lr}
200114b8:	e28db004 	add	fp, sp, #4
200114bc:	e24dd010 	sub	sp, sp, #16
200114c0:	e1a03000 	mov	r3, r0
200114c4:	e50b1014 	str	r1, [fp, #-20]	; 0xffffffec
200114c8:	e54b300d 	strb	r3, [fp, #-13]
200114cc:	ebfffc87 	bl	200106f0 <get_calling_IP>
200114d0:	e1a03000 	mov	r3, r0
200114d4:	e1a00003 	mov	r0, r3
200114d8:	ebffef88 	bl	2000d300 <htonl>
200114dc:	e1a03000 	mov	r3, r0
200114e0:	e50b300c 	str	r3, [fp, #-12]
200114e4:	e59f0044 	ldr	r0, [pc, #68]	; 20011530 <set_gateway+0x7c>
200114e8:	ebffbf03 	bl	200010fc <netif_find>
200114ec:	e50b0008 	str	r0, [fp, #-8]
200114f0:	e51b3008 	ldr	r3, [fp, #-8]
200114f4:	e3530000 	cmp	r3, #0
200114f8:	0a000004 	beq	20011510 <set_gateway+0x5c>
200114fc:	e24b300c 	sub	r3, fp, #12
20011500:	e1a01003 	mov	r1, r3
20011504:	e51b0008 	ldr	r0, [fp, #-8]
20011508:	ebffbf9e 	bl	20001388 <netif_set_gw>
2001150c:	ea000001 	b	20011518 <set_gateway+0x64>
20011510:	e3a00006 	mov	r0, #6
20011514:	eb00060f 	bl	20012d58 <process_error>
20011518:	eb0000e1 	bl	200118a4 <tcp_connection_restart>
2001151c:	e3a03000 	mov	r3, #0
20011520:	e1a00003 	mov	r0, r3
20011524:	e24bd004 	sub	sp, fp, #4
20011528:	e8bd4800 	pop	{fp, lr}
2001152c:	e12fff1e 	bx	lr
20011530:	20013818 	.word	0x20013818

20011534 <set_subnet>:
20011534:	e92d4800 	push	{fp, lr}
20011538:	e28db004 	add	fp, sp, #4
2001153c:	e24dd010 	sub	sp, sp, #16
20011540:	e1a03000 	mov	r3, r0
20011544:	e50b1014 	str	r1, [fp, #-20]	; 0xffffffec
20011548:	e54b300d 	strb	r3, [fp, #-13]
2001154c:	ebfffc67 	bl	200106f0 <get_calling_IP>
20011550:	e1a03000 	mov	r3, r0
20011554:	e1a00003 	mov	r0, r3
20011558:	ebffef68 	bl	2000d300 <htonl>
2001155c:	e1a03000 	mov	r3, r0
20011560:	e50b300c 	str	r3, [fp, #-12]
20011564:	e59f0044 	ldr	r0, [pc, #68]	; 200115b0 <set_subnet+0x7c>
20011568:	ebffbee3 	bl	200010fc <netif_find>
2001156c:	e50b0008 	str	r0, [fp, #-8]
20011570:	e51b3008 	ldr	r3, [fp, #-8]
20011574:	e3530000 	cmp	r3, #0
20011578:	0a000004 	beq	20011590 <set_subnet+0x5c>
2001157c:	e24b300c 	sub	r3, fp, #12
20011580:	e1a01003 	mov	r1, r3
20011584:	e51b0008 	ldr	r0, [fp, #-8]
20011588:	ebffbf9a 	bl	200013f8 <netif_set_netmask>
2001158c:	ea000001 	b	20011598 <set_subnet+0x64>
20011590:	e3a00006 	mov	r0, #6
20011594:	eb0005ef 	bl	20012d58 <process_error>
20011598:	eb0000c1 	bl	200118a4 <tcp_connection_restart>
2001159c:	e3a03000 	mov	r3, #0
200115a0:	e1a00003 	mov	r0, r3
200115a4:	e24bd004 	sub	sp, fp, #4
200115a8:	e8bd4800 	pop	{fp, lr}
200115ac:	e12fff1e 	bx	lr
200115b0:	20013818 	.word	0x20013818

200115b4 <clr_IP_address>:
200115b4:	e52db004 	push	{fp}		; (str fp, [sp, #-4]!)
200115b8:	e28db000 	add	fp, sp, #0
200115bc:	e59f3020 	ldr	r3, [pc, #32]	; 200115e4 <clr_IP_address+0x30>
200115c0:	e3a02000 	mov	r2, #0
200115c4:	e5832000 	str	r2, [r3]
200115c8:	e59f3018 	ldr	r3, [pc, #24]	; 200115e8 <clr_IP_address+0x34>
200115cc:	e3a02000 	mov	r2, #0
200115d0:	e5832000 	str	r2, [r3]
200115d4:	e1a00000 	nop			; (mov r0, r0)
200115d8:	e24bd000 	sub	sp, fp, #0
200115dc:	e49db004 	pop	{fp}		; (ldr fp, [sp], #4)
200115e0:	e12fff1e 	bx	lr
200115e4:	2001529c 	.word	0x2001529c
200115e8:	200152a0 	.word	0x200152a0

200115ec <update_rx>:
200115ec:	e52db004 	push	{fp}		; (str fp, [sp, #-4]!)
200115f0:	e28db000 	add	fp, sp, #0
200115f4:	e24dd00c 	sub	sp, sp, #12
200115f8:	e50b0008 	str	r0, [fp, #-8]
200115fc:	e3a03000 	mov	r3, #0
20011600:	e1a00003 	mov	r0, r3
20011604:	e24bd000 	sub	sp, fp, #0
20011608:	e49db004 	pop	{fp}		; (ldr fp, [sp], #4)
2001160c:	e12fff1e 	bx	lr

20011610 <update_tx>:
20011610:	e52db004 	push	{fp}		; (str fp, [sp, #-4]!)
20011614:	e28db000 	add	fp, sp, #0
20011618:	e24dd00c 	sub	sp, sp, #12
2001161c:	e50b0008 	str	r0, [fp, #-8]
20011620:	e3a03000 	mov	r3, #0
20011624:	e1a00003 	mov	r0, r3
20011628:	e24bd000 	sub	sp, fp, #0
2001162c:	e49db004 	pop	{fp}		; (ldr fp, [sp], #4)
20011630:	e12fff1e 	bx	lr

20011634 <key_available>:
20011634:	e52db004 	push	{fp}		; (str fp, [sp, #-4]!)
20011638:	e28db000 	add	fp, sp, #0
2001163c:	e3a03000 	mov	r3, #0
20011640:	e1a00003 	mov	r0, r3
20011644:	e24bd000 	sub	sp, fp, #0
20011648:	e49db004 	pop	{fp}		; (ldr fp, [sp], #4)
2001164c:	e12fff1e 	bx	lr

20011650 <getkey>:
20011650:	e52db004 	push	{fp}		; (str fp, [sp, #-4]!)
20011654:	e28db000 	add	fp, sp, #0
20011658:	e3a03014 	mov	r3, #20
2001165c:	e1a00003 	mov	r0, r3
20011660:	e24bd000 	sub	sp, fp, #0
20011664:	e49db004 	pop	{fp}		; (ldr fp, [sp], #4)
20011668:	e12fff1e 	bx	lr

2001166c <display_IP>:
2001166c:	e52db004 	push	{fp}		; (str fp, [sp, #-4]!)
20011670:	e28db000 	add	fp, sp, #0
20011674:	e24dd00c 	sub	sp, sp, #12
20011678:	e50b0008 	str	r0, [fp, #-8]
2001167c:	e1a00000 	nop			; (mov r0, r0)
20011680:	e24bd000 	sub	sp, fp, #0
20011684:	e49db004 	pop	{fp}		; (ldr fp, [sp], #4)
20011688:	e12fff1e 	bx	lr

2001168c <display_memory_addr>:
2001168c:	e52db004 	push	{fp}		; (str fp, [sp, #-4]!)
20011690:	e28db000 	add	fp, sp, #0
20011694:	e24dd00c 	sub	sp, sp, #12
20011698:	e50b0008 	str	r0, [fp, #-8]
2001169c:	e1a00000 	nop			; (mov r0, r0)
200116a0:	e24bd000 	sub	sp, fp, #0
200116a4:	e49db004 	pop	{fp}		; (ldr fp, [sp], #4)
200116a8:	e12fff1e 	bx	lr

200116ac <display_status>:
200116ac:	e52db004 	push	{fp}		; (str fp, [sp, #-4]!)
200116b0:	e28db000 	add	fp, sp, #0
200116b4:	e24dd00c 	sub	sp, sp, #12
200116b8:	e50b0008 	str	r0, [fp, #-8]
200116bc:	e1a00000 	nop			; (mov r0, r0)
200116c0:	e24bd000 	sub	sp, fp, #0
200116c4:	e49db004 	pop	{fp}		; (ldr fp, [sp], #4)
200116c8:	e12fff1e 	bx	lr

200116cc <call_start>:
200116cc:	e52db004 	push	{fp}		; (str fp, [sp, #-4]!)
200116d0:	e28db000 	add	fp, sp, #0
200116d4:	e24dd00c 	sub	sp, sp, #12
200116d8:	e50b0008 	str	r0, [fp, #-8]
200116dc:	e1a00000 	nop			; (mov r0, r0)
200116e0:	e24bd000 	sub	sp, fp, #0
200116e4:	e49db004 	pop	{fp}		; (ldr fp, [sp], #4)
200116e8:	e12fff1e 	bx	lr

200116ec <call_halt>:
200116ec:	e52db004 	push	{fp}		; (str fp, [sp, #-4]!)
200116f0:	e28db000 	add	fp, sp, #0
200116f4:	e1a00000 	nop			; (mov r0, r0)
200116f8:	e24bd000 	sub	sp, fp, #0
200116fc:	e49db004 	pop	{fp}		; (ldr fp, [sp], #4)
20011700:	e12fff1e 	bx	lr

20011704 <elapsed_time>:
20011704:	e52db004 	push	{fp}		; (str fp, [sp, #-4]!)
20011708:	e28db000 	add	fp, sp, #0
2001170c:	e3a03000 	mov	r3, #0
20011710:	e1a00003 	mov	r0, r3
20011714:	e24bd000 	sub	sp, fp, #0
20011718:	e49db004 	pop	{fp}		; (ldr fp, [sp], #4)
2001171c:	e12fff1e 	bx	lr

20011720 <ether_init>:
20011720:	e52db004 	push	{fp}		; (str fp, [sp, #-4]!)
20011724:	e28db000 	add	fp, sp, #0
20011728:	e3a03001 	mov	r3, #1
2001172c:	e1a00003 	mov	r0, r3
20011730:	e24bd000 	sub	sp, fp, #0
20011734:	e49db004 	pop	{fp}		; (ldr fp, [sp], #4)
20011738:	e12fff1e 	bx	lr

2001173c <ether_transmit>:
2001173c:	e52db004 	push	{fp}		; (str fp, [sp, #-4]!)
20011740:	e28db000 	add	fp, sp, #0
20011744:	e24dd00c 	sub	sp, sp, #12
20011748:	e50b0008 	str	r0, [fp, #-8]
2001174c:	e3a03001 	mov	r3, #1
20011750:	e1a00003 	mov	r0, r3
20011754:	e24bd000 	sub	sp, fp, #0
20011758:	e49db004 	pop	{fp}		; (ldr fp, [sp], #4)
2001175c:	e12fff1e 	bx	lr

20011760 <ether_rx_available>:
20011760:	e52db004 	push	{fp}		; (str fp, [sp, #-4]!)
20011764:	e28db000 	add	fp, sp, #0
20011768:	e3a03000 	mov	r3, #0
2001176c:	e1a00003 	mov	r0, r3
20011770:	e24bd000 	sub	sp, fp, #0
20011774:	e49db004 	pop	{fp}		; (ldr fp, [sp], #4)
20011778:	e12fff1e 	bx	lr

2001177c <ether_receive>:
2001177c:	e52db004 	push	{fp}		; (str fp, [sp, #-4]!)
20011780:	e28db000 	add	fp, sp, #0
20011784:	e3a03000 	mov	r3, #0
20011788:	e1a00003 	mov	r0, r3
2001178c:	e24bd000 	sub	sp, fp, #0
20011790:	e49db004 	pop	{fp}		; (ldr fp, [sp], #4)
20011794:	e12fff1e 	bx	lr

20011798 <lwip_htons>:
20011798:	e52db004 	push	{fp}		; (str fp, [sp, #-4]!)
2001179c:	e28db000 	add	fp, sp, #0
200117a0:	e1a00000 	nop			; (mov r0, r0)
200117a4:	e24bd000 	sub	sp, fp, #0
200117a8:	e49db004 	pop	{fp}		; (ldr fp, [sp], #4)
200117ac:	e12fff1e 	bx	lr

200117b0 <lwip_ntohs>:
200117b0:	e52db004 	push	{fp}		; (str fp, [sp, #-4]!)
200117b4:	e28db000 	add	fp, sp, #0
200117b8:	e1a00000 	nop			; (mov r0, r0)
200117bc:	e24bd000 	sub	sp, fp, #0
200117c0:	e49db004 	pop	{fp}		; (ldr fp, [sp], #4)
200117c4:	e12fff1e 	bx	lr

200117c8 <lwip_htonl>:
200117c8:	e52db004 	push	{fp}		; (str fp, [sp, #-4]!)
200117cc:	e28db000 	add	fp, sp, #0
200117d0:	e1a00000 	nop			; (mov r0, r0)
200117d4:	e24bd000 	sub	sp, fp, #0
200117d8:	e49db004 	pop	{fp}		; (ldr fp, [sp], #4)
200117dc:	e12fff1e 	bx	lr

200117e0 <lwip_ntohl>:
200117e0:	e52db004 	push	{fp}		; (str fp, [sp, #-4]!)
200117e4:	e28db000 	add	fp, sp, #0
200117e8:	e1a00000 	nop			; (mov r0, r0)
200117ec:	e24bd000 	sub	sp, fp, #0
200117f0:	e49db004 	pop	{fp}		; (ldr fp, [sp], #4)
200117f4:	e12fff1e 	bx	lr

200117f8 <have_tcp_connection>:
200117f8:	e92d4800 	push	{fp, lr}
200117fc:	e28db004 	add	fp, sp, #4
20011800:	eb000160 	bl	20011d88 <check_for_close>
20011804:	e59f3020 	ldr	r3, [pc, #32]	; 2001182c <have_tcp_connection+0x34>
20011808:	e5933000 	ldr	r3, [r3]
2001180c:	e3530000 	cmp	r3, #0
20011810:	13a03001 	movne	r3, #1
20011814:	03a03000 	moveq	r3, #0
20011818:	e20330ff 	and	r3, r3, #255	; 0xff
2001181c:	e1a00003 	mov	r0, r3
20011820:	e24bd004 	sub	sp, fp, #4
20011824:	e8bd4800 	pop	{fp, lr}
20011828:	e12fff1e 	bx	lr
2001182c:	200152a8 	.word	0x200152a8

20011830 <tcp_connection_status>:
20011830:	e92d4800 	push	{fp, lr}
20011834:	e28db004 	add	fp, sp, #4
20011838:	eb000152 	bl	20011d88 <check_for_close>
2001183c:	e59f3010 	ldr	r3, [pc, #16]	; 20011854 <tcp_connection_status+0x24>
20011840:	e5d33000 	ldrb	r3, [r3]
20011844:	e1a00003 	mov	r0, r3
20011848:	e24bd004 	sub	sp, fp, #4
2001184c:	e8bd4800 	pop	{fp, lr}
20011850:	e12fff1e 	bx	lr
20011854:	200152a4 	.word	0x200152a4

20011858 <tcp_connection_init>:
20011858:	e92d4800 	push	{fp, lr}
2001185c:	e28db004 	add	fp, sp, #4
20011860:	e59f3030 	ldr	r3, [pc, #48]	; 20011898 <tcp_connection_init+0x40>
20011864:	e3a02000 	mov	r2, #0
20011868:	e5c32000 	strb	r2, [r3]
2001186c:	e59f3028 	ldr	r3, [pc, #40]	; 2001189c <tcp_connection_init+0x44>
20011870:	e3a02000 	mov	r2, #0
20011874:	e5832000 	str	r2, [r3]
20011878:	e59f3020 	ldr	r3, [pc, #32]	; 200118a0 <tcp_connection_init+0x48>
2001187c:	e3a02000 	mov	r2, #0
20011880:	e5832000 	str	r2, [r3]
20011884:	eb000006 	bl	200118a4 <tcp_connection_restart>
20011888:	e1a00000 	nop			; (mov r0, r0)
2001188c:	e24bd004 	sub	sp, fp, #4
20011890:	e8bd4800 	pop	{fp, lr}
20011894:	e12fff1e 	bx	lr
20011898:	200152a4 	.word	0x200152a4
2001189c:	200152a8 	.word	0x200152a8
200118a0:	200152ac 	.word	0x200152ac

200118a4 <tcp_connection_restart>:
200118a4:	e92d4800 	push	{fp, lr}
200118a8:	e28db004 	add	fp, sp, #4
200118ac:	e24dd008 	sub	sp, sp, #8
200118b0:	e59f312c 	ldr	r3, [pc, #300]	; 200119e4 <tcp_connection_restart+0x140>
200118b4:	e5933000 	ldr	r3, [r3]
200118b8:	e3530000 	cmp	r3, #0
200118bc:	0a000004 	beq	200118d4 <tcp_connection_restart+0x30>
200118c0:	e59f311c 	ldr	r3, [pc, #284]	; 200119e4 <tcp_connection_restart+0x140>
200118c4:	e5933000 	ldr	r3, [r3]
200118c8:	e3a01001 	mov	r1, #1
200118cc:	e1a00003 	mov	r0, r3
200118d0:	ebffc51d 	bl	20002d4c <tcp_abandon>
200118d4:	e59f310c 	ldr	r3, [pc, #268]	; 200119e8 <tcp_connection_restart+0x144>
200118d8:	e5933000 	ldr	r3, [r3]
200118dc:	e3530000 	cmp	r3, #0
200118e0:	0a000004 	beq	200118f8 <tcp_connection_restart+0x54>
200118e4:	e59f30fc 	ldr	r3, [pc, #252]	; 200119e8 <tcp_connection_restart+0x144>
200118e8:	e5933000 	ldr	r3, [r3]
200118ec:	e3a01001 	mov	r1, #1
200118f0:	e1a00003 	mov	r0, r3
200118f4:	ebffc514 	bl	20002d4c <tcp_abandon>
200118f8:	e59f30ec 	ldr	r3, [pc, #236]	; 200119ec <tcp_connection_restart+0x148>
200118fc:	e3a02000 	mov	r2, #0
20011900:	e5c32000 	strb	r2, [r3]
20011904:	e59f30d8 	ldr	r3, [pc, #216]	; 200119e4 <tcp_connection_restart+0x140>
20011908:	e3a02000 	mov	r2, #0
2001190c:	e5832000 	str	r2, [r3]
20011910:	e59f30d8 	ldr	r3, [pc, #216]	; 200119f0 <tcp_connection_restart+0x14c>
20011914:	e3a02000 	mov	r2, #0
20011918:	e5832000 	str	r2, [r3]
2001191c:	ebffcbb8 	bl	20004804 <tcp_new>
20011920:	e1a02000 	mov	r2, r0
20011924:	e59f30bc 	ldr	r3, [pc, #188]	; 200119e8 <tcp_connection_restart+0x144>
20011928:	e5832000 	str	r2, [r3]
2001192c:	e59f30b4 	ldr	r3, [pc, #180]	; 200119e8 <tcp_connection_restart+0x144>
20011930:	e5933000 	ldr	r3, [r3]
20011934:	e59f20b8 	ldr	r2, [pc, #184]	; 200119f4 <tcp_connection_restart+0x150>
20011938:	e59f10b8 	ldr	r1, [pc, #184]	; 200119f8 <tcp_connection_restart+0x154>
2001193c:	e1a00003 	mov	r0, r3
20011940:	ebffc565 	bl	20002edc <tcp_bind>
20011944:	e1a03000 	mov	r3, r0
20011948:	e3530000 	cmp	r3, #0
2001194c:	1a00001e 	bne	200119cc <tcp_connection_restart+0x128>
20011950:	e59f3090 	ldr	r3, [pc, #144]	; 200119e8 <tcp_connection_restart+0x144>
20011954:	e5933000 	ldr	r3, [r3]
20011958:	e3a010ff 	mov	r1, #255	; 0xff
2001195c:	e1a00003 	mov	r0, r3
20011960:	ebffc66f 	bl	20003324 <tcp_listen_with_backlog>
20011964:	e50b0008 	str	r0, [fp, #-8]
20011968:	e51b3008 	ldr	r3, [fp, #-8]
2001196c:	e3530000 	cmp	r3, #0
20011970:	0a000012 	beq	200119c0 <tcp_connection_restart+0x11c>
20011974:	e59f206c 	ldr	r2, [pc, #108]	; 200119e8 <tcp_connection_restart+0x144>
20011978:	e51b3008 	ldr	r3, [fp, #-8]
2001197c:	e5823000 	str	r3, [r2]
20011980:	e59f3060 	ldr	r3, [pc, #96]	; 200119e8 <tcp_connection_restart+0x144>
20011984:	e5933000 	ldr	r3, [r3]
20011988:	e59f106c 	ldr	r1, [pc, #108]	; 200119fc <tcp_connection_restart+0x158>
2001198c:	e1a00003 	mov	r0, r3
20011990:	ebffcbd4 	bl	200048e8 <tcp_accept>
20011994:	e59f304c 	ldr	r3, [pc, #76]	; 200119e8 <tcp_connection_restart+0x144>
20011998:	e5933000 	ldr	r3, [r3]
2001199c:	e3a01000 	mov	r1, #0
200119a0:	e1a00003 	mov	r0, r3
200119a4:	ebffcb9f 	bl	20004828 <tcp_arg>
200119a8:	e59f3038 	ldr	r3, [pc, #56]	; 200119e8 <tcp_connection_restart+0x144>
200119ac:	e5933000 	ldr	r3, [r3]
200119b0:	e59f1048 	ldr	r1, [pc, #72]	; 20011a00 <tcp_connection_restart+0x15c>
200119b4:	e1a00003 	mov	r0, r3
200119b8:	ebffcbbe 	bl	200048b8 <tcp_err>
200119bc:	ea000005 	b	200119d8 <tcp_connection_restart+0x134>
200119c0:	e3a00009 	mov	r0, #9
200119c4:	eb0004e3 	bl	20012d58 <process_error>
200119c8:	ea000002 	b	200119d8 <tcp_connection_restart+0x134>
200119cc:	e3a0000a 	mov	r0, #10
200119d0:	eb0004e0 	bl	20012d58 <process_error>
200119d4:	e1a00000 	nop			; (mov r0, r0)
200119d8:	e24bd004 	sub	sp, fp, #4
200119dc:	e8bd4800 	pop	{fp, lr}
200119e0:	e12fff1e 	bx	lr
200119e4:	200152a8 	.word	0x200152a8
200119e8:	200152ac 	.word	0x200152ac
200119ec:	200152a4 	.word	0x200152a4
200119f0:	200154b0 	.word	0x200154b0
200119f4:	00004747 	.word	0x00004747
200119f8:	20013600 	.word	0x20013600
200119fc:	20011eb0 	.word	0x20011eb0
20011a00:	200121b4 	.word	0x200121b4

20011a04 <tcp_connection_connect>:
20011a04:	e92d4800 	push	{fp, lr}
20011a08:	e28db004 	add	fp, sp, #4
20011a0c:	e24dd010 	sub	sp, sp, #16
20011a10:	e50b0010 	str	r0, [fp, #-16]
20011a14:	e59f3080 	ldr	r3, [pc, #128]	; 20011a9c <tcp_connection_connect+0x98>
20011a18:	e5933000 	ldr	r3, [r3]
20011a1c:	e3530000 	cmp	r3, #0
20011a20:	1a000016 	bne	20011a80 <tcp_connection_connect+0x7c>
20011a24:	ebffcb76 	bl	20004804 <tcp_new>
20011a28:	e50b0008 	str	r0, [fp, #-8]
20011a2c:	e3a01000 	mov	r1, #0
20011a30:	e51b0008 	ldr	r0, [fp, #-8]
20011a34:	ebffcb7b 	bl	20004828 <tcp_arg>
20011a38:	e59f1060 	ldr	r1, [pc, #96]	; 20011aa0 <tcp_connection_connect+0x9c>
20011a3c:	e51b0008 	ldr	r0, [fp, #-8]
20011a40:	ebffcb9c 	bl	200048b8 <tcp_err>
20011a44:	e51b0010 	ldr	r0, [fp, #-16]
20011a48:	ebffee2c 	bl	2000d300 <htonl>
20011a4c:	e1a03000 	mov	r3, r0
20011a50:	e50b300c 	str	r3, [fp, #-12]
20011a54:	e24b100c 	sub	r1, fp, #12
20011a58:	e59f3044 	ldr	r3, [pc, #68]	; 20011aa4 <tcp_connection_connect+0xa0>
20011a5c:	e59f2044 	ldr	r2, [pc, #68]	; 20011aa8 <tcp_connection_connect+0xa4>
20011a60:	e51b0008 	ldr	r0, [fp, #-8]
20011a64:	ebffc766 	bl	20003804 <tcp_connect>
20011a68:	e1a03000 	mov	r3, r0
20011a6c:	e3530000 	cmp	r3, #0
20011a70:	0a000005 	beq	20011a8c <tcp_connection_connect+0x88>
20011a74:	e3a0000d 	mov	r0, #13
20011a78:	eb0004b6 	bl	20012d58 <process_error>
20011a7c:	ea000002 	b	20011a8c <tcp_connection_connect+0x88>
20011a80:	e3a00008 	mov	r0, #8
20011a84:	eb0004b3 	bl	20012d58 <process_error>
20011a88:	e1a00000 	nop			; (mov r0, r0)
20011a8c:	e1a00000 	nop			; (mov r0, r0)
20011a90:	e24bd004 	sub	sp, fp, #4
20011a94:	e8bd4800 	pop	{fp, lr}
20011a98:	e12fff1e 	bx	lr
20011a9c:	200152a8 	.word	0x200152a8
20011aa0:	200121b4 	.word	0x200121b4
20011aa4:	20011e1c 	.word	0x20011e1c
20011aa8:	00004747 	.word	0x00004747

20011aac <tcp_connection_answer>:
20011aac:	e92d4800 	push	{fp, lr}
20011ab0:	e28db004 	add	fp, sp, #4
20011ab4:	e59f3060 	ldr	r3, [pc, #96]	; 20011b1c <tcp_connection_answer+0x70>
20011ab8:	e5933000 	ldr	r3, [r3]
20011abc:	e59f105c 	ldr	r1, [pc, #92]	; 20011b20 <tcp_connection_answer+0x74>
20011ac0:	e1a00003 	mov	r0, r3
20011ac4:	ebffcb63 	bl	20004858 <tcp_recv>
20011ac8:	e59f3054 	ldr	r3, [pc, #84]	; 20011b24 <tcp_connection_answer+0x78>
20011acc:	e3a02000 	mov	r2, #0
20011ad0:	e5832000 	str	r2, [r3]
20011ad4:	e59f3040 	ldr	r3, [pc, #64]	; 20011b1c <tcp_connection_answer+0x70>
20011ad8:	e5930000 	ldr	r0, [r3]
20011adc:	e3a03001 	mov	r3, #1
20011ae0:	e3a02001 	mov	r2, #1
20011ae4:	e59f103c 	ldr	r1, [pc, #60]	; 20011b28 <tcp_connection_answer+0x7c>
20011ae8:	ebffda45 	bl	20008404 <tcp_write>
20011aec:	e1a03000 	mov	r3, r0
20011af0:	e3530000 	cmp	r3, #0
20011af4:	0a000001 	beq	20011b00 <tcp_connection_answer+0x54>
20011af8:	e3a0000b 	mov	r0, #11
20011afc:	eb000495 	bl	20012d58 <process_error>
20011b00:	e59f3024 	ldr	r3, [pc, #36]	; 20011b2c <tcp_connection_answer+0x80>
20011b04:	e3a02004 	mov	r2, #4
20011b08:	e5c32000 	strb	r2, [r3]
20011b0c:	e1a00000 	nop			; (mov r0, r0)
20011b10:	e24bd004 	sub	sp, fp, #4
20011b14:	e8bd4800 	pop	{fp, lr}
20011b18:	e12fff1e 	bx	lr
20011b1c:	200152a8 	.word	0x200152a8
20011b20:	20011fbc 	.word	0x20011fbc
20011b24:	200154b0 	.word	0x200154b0
20011b28:	2001381c 	.word	0x2001381c
20011b2c:	200152a4 	.word	0x200152a4

20011b30 <tcp_connection_close>:
20011b30:	e92d4800 	push	{fp, lr}
20011b34:	e28db004 	add	fp, sp, #4
20011b38:	e59f3060 	ldr	r3, [pc, #96]	; 20011ba0 <tcp_connection_close+0x70>
20011b3c:	e5933000 	ldr	r3, [r3]
20011b40:	e3530000 	cmp	r3, #0
20011b44:	0a000008 	beq	20011b6c <tcp_connection_close+0x3c>
20011b48:	e59f3050 	ldr	r3, [pc, #80]	; 20011ba0 <tcp_connection_close+0x70>
20011b4c:	e5933000 	ldr	r3, [r3]
20011b50:	e1a00003 	mov	r0, r3
20011b54:	ebffc3e4 	bl	20002aec <tcp_close>
20011b58:	e1a03000 	mov	r3, r0
20011b5c:	e3530000 	cmp	r3, #0
20011b60:	0a000001 	beq	20011b6c <tcp_connection_close+0x3c>
20011b64:	e3a0000c 	mov	r0, #12
20011b68:	eb00047a 	bl	20012d58 <process_error>
20011b6c:	e59f3030 	ldr	r3, [pc, #48]	; 20011ba4 <tcp_connection_close+0x74>
20011b70:	e3a02000 	mov	r2, #0
20011b74:	e5c32000 	strb	r2, [r3]
20011b78:	e59f3020 	ldr	r3, [pc, #32]	; 20011ba0 <tcp_connection_close+0x70>
20011b7c:	e3a02000 	mov	r2, #0
20011b80:	e5832000 	str	r2, [r3]
20011b84:	e59f301c 	ldr	r3, [pc, #28]	; 20011ba8 <tcp_connection_close+0x78>
20011b88:	e3a02000 	mov	r2, #0
20011b8c:	e5832000 	str	r2, [r3]
20011b90:	e1a00000 	nop			; (mov r0, r0)
20011b94:	e24bd004 	sub	sp, fp, #4
20011b98:	e8bd4800 	pop	{fp, lr}
20011b9c:	e12fff1e 	bx	lr
20011ba0:	200152a8 	.word	0x200152a8
20011ba4:	200152a4 	.word	0x200152a4
20011ba8:	200154b0 	.word	0x200154b0

20011bac <tcp_connection_rx>:
20011bac:	e52db004 	push	{fp}		; (str fp, [sp, #-4]!)
20011bb0:	e28db000 	add	fp, sp, #0
20011bb4:	e24dd014 	sub	sp, sp, #20
20011bb8:	e50b0010 	str	r0, [fp, #-16]
20011bbc:	e50b1014 	str	r1, [fp, #-20]	; 0xffffffec
20011bc0:	e59f3098 	ldr	r3, [pc, #152]	; 20011c60 <tcp_connection_rx+0xb4>
20011bc4:	e5933000 	ldr	r3, [r3]
20011bc8:	e3530000 	cmp	r3, #0
20011bcc:	0a00001c 	beq	20011c44 <tcp_connection_rx+0x98>
20011bd0:	e3a03000 	mov	r3, #0
20011bd4:	e50b300c 	str	r3, [fp, #-12]
20011bd8:	ea00000c 	b	20011c10 <tcp_connection_rx+0x64>
20011bdc:	e51b300c 	ldr	r3, [fp, #-12]
20011be0:	e1a03083 	lsl	r3, r3, #1
20011be4:	e51b2010 	ldr	r2, [fp, #-16]
20011be8:	e0823003 	add	r3, r2, r3
20011bec:	e59f1070 	ldr	r1, [pc, #112]	; 20011c64 <tcp_connection_rx+0xb8>
20011bf0:	e51b200c 	ldr	r2, [fp, #-12]
20011bf4:	e1a02082 	lsl	r2, r2, #1
20011bf8:	e0812002 	add	r2, r1, r2
20011bfc:	e1d220b0 	ldrh	r2, [r2]
20011c00:	e1c320b0 	strh	r2, [r3]
20011c04:	e51b300c 	ldr	r3, [fp, #-12]
20011c08:	e2833001 	add	r3, r3, #1
20011c0c:	e50b300c 	str	r3, [fp, #-12]
20011c10:	e51b200c 	ldr	r2, [fp, #-12]
20011c14:	e51b3014 	ldr	r3, [fp, #-20]	; 0xffffffec
20011c18:	e1520003 	cmp	r2, r3
20011c1c:	aa000002 	bge	20011c2c <tcp_connection_rx+0x80>
20011c20:	e51b300c 	ldr	r3, [fp, #-12]
20011c24:	e35300ff 	cmp	r3, #255	; 0xff
20011c28:	daffffeb 	ble	20011bdc <tcp_connection_rx+0x30>
20011c2c:	e59f302c 	ldr	r3, [pc, #44]	; 20011c60 <tcp_connection_rx+0xb4>
20011c30:	e3a02000 	mov	r2, #0
20011c34:	e5832000 	str	r2, [r3]
20011c38:	e3a03001 	mov	r3, #1
20011c3c:	e54b3005 	strb	r3, [fp, #-5]
20011c40:	ea000001 	b	20011c4c <tcp_connection_rx+0xa0>
20011c44:	e3a03000 	mov	r3, #0
20011c48:	e54b3005 	strb	r3, [fp, #-5]
20011c4c:	e55b3005 	ldrb	r3, [fp, #-5]
20011c50:	e1a00003 	mov	r0, r3
20011c54:	e24bd000 	sub	sp, fp, #0
20011c58:	e49db004 	pop	{fp}		; (ldr fp, [sp], #4)
20011c5c:	e12fff1e 	bx	lr
20011c60:	200154b0 	.word	0x200154b0
20011c64:	200152b0 	.word	0x200152b0

20011c68 <tcp_connection_tx>:
20011c68:	e92d4800 	push	{fp, lr}
20011c6c:	e28db004 	add	fp, sp, #4
20011c70:	e24ddf86 	sub	sp, sp, #536	; 0x218
20011c74:	e50b0218 	str	r0, [fp, #-536]	; 0xfffffde8
20011c78:	e50b121c 	str	r1, [fp, #-540]	; 0xfffffde4
20011c7c:	e3a03044 	mov	r3, #68	; 0x44
20011c80:	e54b3210 	strb	r3, [fp, #-528]	; 0xfffffdf0
20011c84:	e3a03000 	mov	r3, #0
20011c88:	e50b300c 	str	r3, [fp, #-12]
20011c8c:	ea00001f 	b	20011d10 <tcp_connection_tx+0xa8>
20011c90:	e51b300c 	ldr	r3, [fp, #-12]
20011c94:	e1a03083 	lsl	r3, r3, #1
20011c98:	e2833001 	add	r3, r3, #1
20011c9c:	e51b200c 	ldr	r2, [fp, #-12]
20011ca0:	e1a02082 	lsl	r2, r2, #1
20011ca4:	e51b1218 	ldr	r1, [fp, #-536]	; 0xfffffde8
20011ca8:	e0812002 	add	r2, r1, r2
20011cac:	e1d220b0 	ldrh	r2, [r2]
20011cb0:	e1a02802 	lsl	r2, r2, #16
20011cb4:	e1a02842 	asr	r2, r2, #16
20011cb8:	e1a02442 	asr	r2, r2, #8
20011cbc:	e1a02802 	lsl	r2, r2, #16
20011cc0:	e1a02822 	lsr	r2, r2, #16
20011cc4:	e20220ff 	and	r2, r2, #255	; 0xff
20011cc8:	e24b1004 	sub	r1, fp, #4
20011ccc:	e0813003 	add	r3, r1, r3
20011cd0:	e543220c 	strb	r2, [r3, #-524]	; 0xfffffdf4
20011cd4:	e51b300c 	ldr	r3, [fp, #-12]
20011cd8:	e2833001 	add	r3, r3, #1
20011cdc:	e1a03083 	lsl	r3, r3, #1
20011ce0:	e51b200c 	ldr	r2, [fp, #-12]
20011ce4:	e1a02082 	lsl	r2, r2, #1
20011ce8:	e51b1218 	ldr	r1, [fp, #-536]	; 0xfffffde8
20011cec:	e0812002 	add	r2, r1, r2
20011cf0:	e1d220b0 	ldrh	r2, [r2]
20011cf4:	e20220ff 	and	r2, r2, #255	; 0xff
20011cf8:	e24b1004 	sub	r1, fp, #4
20011cfc:	e0813003 	add	r3, r1, r3
20011d00:	e543220c 	strb	r2, [r3, #-524]	; 0xfffffdf4
20011d04:	e51b300c 	ldr	r3, [fp, #-12]
20011d08:	e2833001 	add	r3, r3, #1
20011d0c:	e50b300c 	str	r3, [fp, #-12]
20011d10:	e51b200c 	ldr	r2, [fp, #-12]
20011d14:	e51b321c 	ldr	r3, [fp, #-540]	; 0xfffffde4
20011d18:	e1520003 	cmp	r2, r3
20011d1c:	aa000002 	bge	20011d2c <tcp_connection_tx+0xc4>
20011d20:	e51b300c 	ldr	r3, [fp, #-12]
20011d24:	e35300ff 	cmp	r3, #255	; 0xff
20011d28:	daffffd8 	ble	20011c90 <tcp_connection_tx+0x28>
20011d2c:	e59f304c 	ldr	r3, [pc, #76]	; 20011d80 <tcp_connection_tx+0x118>
20011d30:	e5930000 	ldr	r0, [r3]
20011d34:	e24b1e21 	sub	r1, fp, #528	; 0x210
20011d38:	e3a03001 	mov	r3, #1
20011d3c:	e59f2040 	ldr	r2, [pc, #64]	; 20011d84 <tcp_connection_tx+0x11c>
20011d40:	ebffd9af 	bl	20008404 <tcp_write>
20011d44:	e1a03000 	mov	r3, r0
20011d48:	e3530000 	cmp	r3, #0
20011d4c:	0a000004 	beq	20011d64 <tcp_connection_tx+0xfc>
20011d50:	e3a0000b 	mov	r0, #11
20011d54:	eb0003ff 	bl	20012d58 <process_error>
20011d58:	e3a03000 	mov	r3, #0
20011d5c:	e54b3005 	strb	r3, [fp, #-5]
20011d60:	ea000001 	b	20011d6c <tcp_connection_tx+0x104>
20011d64:	e3a03001 	mov	r3, #1
20011d68:	e54b3005 	strb	r3, [fp, #-5]
20011d6c:	e55b3005 	ldrb	r3, [fp, #-5]
20011d70:	e1a00003 	mov	r0, r3
20011d74:	e24bd004 	sub	sp, fp, #4
20011d78:	e8bd4800 	pop	{fp, lr}
20011d7c:	e12fff1e 	bx	lr
20011d80:	200152a8 	.word	0x200152a8
20011d84:	00000201 	.word	0x00000201

20011d88 <check_for_close>:
20011d88:	e92d4800 	push	{fp, lr}
20011d8c:	e28db004 	add	fp, sp, #4
20011d90:	e59f3078 	ldr	r3, [pc, #120]	; 20011e10 <check_for_close+0x88>
20011d94:	e5933000 	ldr	r3, [r3]
20011d98:	e3530000 	cmp	r3, #0
20011d9c:	0a000017 	beq	20011e00 <check_for_close+0x78>
20011da0:	e59f3068 	ldr	r3, [pc, #104]	; 20011e10 <check_for_close+0x88>
20011da4:	e5933000 	ldr	r3, [r3]
20011da8:	e5d33010 	ldrb	r3, [r3, #16]
20011dac:	e3530000 	cmp	r3, #0
20011db0:	1a000012 	bne	20011e00 <check_for_close+0x78>
20011db4:	e59f3054 	ldr	r3, [pc, #84]	; 20011e10 <check_for_close+0x88>
20011db8:	e5933000 	ldr	r3, [r3]
20011dbc:	e1a00003 	mov	r0, r3
20011dc0:	ebffc349 	bl	20002aec <tcp_close>
20011dc4:	e1a03000 	mov	r3, r0
20011dc8:	e3530000 	cmp	r3, #0
20011dcc:	0a000001 	beq	20011dd8 <check_for_close+0x50>
20011dd0:	e3a0000c 	mov	r0, #12
20011dd4:	eb0003df 	bl	20012d58 <process_error>
20011dd8:	e59f3034 	ldr	r3, [pc, #52]	; 20011e14 <check_for_close+0x8c>
20011ddc:	e3a02000 	mov	r2, #0
20011de0:	e5c32000 	strb	r2, [r3]
20011de4:	e59f3024 	ldr	r3, [pc, #36]	; 20011e10 <check_for_close+0x88>
20011de8:	e3a02000 	mov	r2, #0
20011dec:	e5832000 	str	r2, [r3]
20011df0:	e59f3020 	ldr	r3, [pc, #32]	; 20011e18 <check_for_close+0x90>
20011df4:	e3a02000 	mov	r2, #0
20011df8:	e5832000 	str	r2, [r3]
20011dfc:	e1a00000 	nop			; (mov r0, r0)
20011e00:	e1a00000 	nop			; (mov r0, r0)
20011e04:	e24bd004 	sub	sp, fp, #4
20011e08:	e8bd4800 	pop	{fp, lr}
20011e0c:	e12fff1e 	bx	lr
20011e10:	200152a8 	.word	0x200152a8
20011e14:	200152a4 	.word	0x200152a4
20011e18:	200154b0 	.word	0x200154b0

20011e1c <handle_connection>:
20011e1c:	e92d4800 	push	{fp, lr}
20011e20:	e28db004 	add	fp, sp, #4
20011e24:	e24dd010 	sub	sp, sp, #16
20011e28:	e50b0008 	str	r0, [fp, #-8]
20011e2c:	e50b100c 	str	r1, [fp, #-12]
20011e30:	e1a03002 	mov	r3, r2
20011e34:	e54b300d 	strb	r3, [fp, #-13]
20011e38:	e59f205c 	ldr	r2, [pc, #92]	; 20011e9c <handle_connection+0x80>
20011e3c:	e51b300c 	ldr	r3, [fp, #-12]
20011e40:	e5823000 	str	r3, [r2]
20011e44:	e3a01000 	mov	r1, #0
20011e48:	e51b000c 	ldr	r0, [fp, #-12]
20011e4c:	ebffca75 	bl	20004828 <tcp_arg>
20011e50:	e59f1048 	ldr	r1, [pc, #72]	; 20011ea0 <handle_connection+0x84>
20011e54:	e51b000c 	ldr	r0, [fp, #-12]
20011e58:	ebffca96 	bl	200048b8 <tcp_err>
20011e5c:	e59f1040 	ldr	r1, [pc, #64]	; 20011ea4 <handle_connection+0x88>
20011e60:	e51b000c 	ldr	r0, [fp, #-12]
20011e64:	ebffca7b 	bl	20004858 <tcp_recv>
20011e68:	e59f3038 	ldr	r3, [pc, #56]	; 20011ea8 <handle_connection+0x8c>
20011e6c:	e3a02001 	mov	r2, #1
20011e70:	e5c32000 	strb	r2, [r3]
20011e74:	e59f3030 	ldr	r3, [pc, #48]	; 20011eac <handle_connection+0x90>
20011e78:	e3a02000 	mov	r2, #0
20011e7c:	e5832000 	str	r2, [r3]
20011e80:	e55b300d 	ldrb	r3, [fp, #-13]
20011e84:	e1a03c03 	lsl	r3, r3, #24
20011e88:	e1a03c43 	asr	r3, r3, #24
20011e8c:	e1a00003 	mov	r0, r3
20011e90:	e24bd004 	sub	sp, fp, #4
20011e94:	e8bd4800 	pop	{fp, lr}
20011e98:	e12fff1e 	bx	lr
20011e9c:	200152a8 	.word	0x200152a8
20011ea0:	200121b4 	.word	0x200121b4
20011ea4:	20011fbc 	.word	0x20011fbc
20011ea8:	200152a4 	.word	0x200152a4
20011eac:	200154b0 	.word	0x200154b0

20011eb0 <accept_connection>:
20011eb0:	e92d4800 	push	{fp, lr}
20011eb4:	e28db004 	add	fp, sp, #4
20011eb8:	e24dd010 	sub	sp, sp, #16
20011ebc:	e50b0008 	str	r0, [fp, #-8]
20011ec0:	e50b100c 	str	r1, [fp, #-12]
20011ec4:	e1a03002 	mov	r3, r2
20011ec8:	e54b300d 	strb	r3, [fp, #-13]
20011ecc:	e3a01000 	mov	r1, #0
20011ed0:	e51b000c 	ldr	r0, [fp, #-12]
20011ed4:	ebffca53 	bl	20004828 <tcp_arg>
20011ed8:	e59f10c4 	ldr	r1, [pc, #196]	; 20011fa4 <accept_connection+0xf4>
20011edc:	e51b000c 	ldr	r0, [fp, #-12]
20011ee0:	ebffca74 	bl	200048b8 <tcp_err>
20011ee4:	e59f30bc 	ldr	r3, [pc, #188]	; 20011fa8 <accept_connection+0xf8>
20011ee8:	e5933000 	ldr	r3, [r3]
20011eec:	e3530000 	cmp	r3, #0
20011ef0:	1a000017 	bne	20011f54 <accept_connection+0xa4>
20011ef4:	e59f20ac 	ldr	r2, [pc, #172]	; 20011fa8 <accept_connection+0xf8>
20011ef8:	e51b300c 	ldr	r3, [fp, #-12]
20011efc:	e5823000 	str	r3, [r2]
20011f00:	e51b300c 	ldr	r3, [fp, #-12]
20011f04:	e5933004 	ldr	r3, [r3, #4]
20011f08:	e1a00003 	mov	r0, r3
20011f0c:	ebffed10 	bl	2000d354 <ntohl>
20011f10:	e1a03000 	mov	r3, r0
20011f14:	e1a00003 	mov	r0, r3
20011f18:	ebfffa05 	bl	20010734 <set_calling_IP>
20011f1c:	e3a03001 	mov	r3, #1
20011f20:	e3a02001 	mov	r2, #1
20011f24:	e59f1080 	ldr	r1, [pc, #128]	; 20011fac <accept_connection+0xfc>
20011f28:	e51b000c 	ldr	r0, [fp, #-12]
20011f2c:	ebffd934 	bl	20008404 <tcp_write>
20011f30:	e1a03000 	mov	r3, r0
20011f34:	e3530000 	cmp	r3, #0
20011f38:	0a000001 	beq	20011f44 <accept_connection+0x94>
20011f3c:	e3a0000b 	mov	r0, #11
20011f40:	eb000384 	bl	20012d58 <process_error>
20011f44:	e59f3064 	ldr	r3, [pc, #100]	; 20011fb0 <accept_connection+0x100>
20011f48:	e3a02001 	mov	r2, #1
20011f4c:	e5c32000 	strb	r2, [r3]
20011f50:	ea00000c 	b	20011f88 <accept_connection+0xd8>
20011f54:	e59f1058 	ldr	r1, [pc, #88]	; 20011fb4 <accept_connection+0x104>
20011f58:	e51b000c 	ldr	r0, [fp, #-12]
20011f5c:	ebffca49 	bl	20004888 <tcp_sent>
20011f60:	e3a03001 	mov	r3, #1
20011f64:	e3a02001 	mov	r2, #1
20011f68:	e59f1048 	ldr	r1, [pc, #72]	; 20011fb8 <accept_connection+0x108>
20011f6c:	e51b000c 	ldr	r0, [fp, #-12]
20011f70:	ebffd923 	bl	20008404 <tcp_write>
20011f74:	e1a03000 	mov	r3, r0
20011f78:	e3530000 	cmp	r3, #0
20011f7c:	0a000001 	beq	20011f88 <accept_connection+0xd8>
20011f80:	e3a0000b 	mov	r0, #11
20011f84:	eb000373 	bl	20012d58 <process_error>
20011f88:	e55b300d 	ldrb	r3, [fp, #-13]
20011f8c:	e1a03c03 	lsl	r3, r3, #24
20011f90:	e1a03c43 	asr	r3, r3, #24
20011f94:	e1a00003 	mov	r0, r3
20011f98:	e24bd004 	sub	sp, fp, #4
20011f9c:	e8bd4800 	pop	{fp, lr}
20011fa0:	e12fff1e 	bx	lr
20011fa4:	200121b4 	.word	0x200121b4
20011fa8:	200152a8 	.word	0x200152a8
20011fac:	20013820 	.word	0x20013820
20011fb0:	200152a4 	.word	0x200152a4
20011fb4:	20012160 	.word	0x20012160
20011fb8:	20013824 	.word	0x20013824

20011fbc <receive_data>:
20011fbc:	e92d4800 	push	{fp, lr}
20011fc0:	e28db004 	add	fp, sp, #4
20011fc4:	e24dd018 	sub	sp, sp, #24
20011fc8:	e50b0010 	str	r0, [fp, #-16]
20011fcc:	e50b1014 	str	r1, [fp, #-20]	; 0xffffffec
20011fd0:	e50b2018 	str	r2, [fp, #-24]	; 0xffffffe8
20011fd4:	e54b3019 	strb	r3, [fp, #-25]	; 0xffffffe7
20011fd8:	e51b3018 	ldr	r3, [fp, #-24]	; 0xffffffe8
20011fdc:	e1d330ba 	ldrh	r3, [r3, #10]
20011fe0:	e1a01003 	mov	r1, r3
20011fe4:	e51b0014 	ldr	r0, [fp, #-20]	; 0xffffffec
20011fe8:	ebffc58b 	bl	2000361c <tcp_recved>
20011fec:	e51b3018 	ldr	r3, [fp, #-24]	; 0xffffffe8
20011ff0:	e5933004 	ldr	r3, [r3, #4]
20011ff4:	e5d33000 	ldrb	r3, [r3]
20011ff8:	e2433041 	sub	r3, r3, #65	; 0x41
20011ffc:	e3530011 	cmp	r3, #17
20012000:	979ff103 	ldrls	pc, [pc, r3, lsl #2]
20012004:	ea000046 	b	20012124 <receive_data+0x168>
20012008:	20012050 	.word	0x20012050
2001200c:	20012070 	.word	0x20012070
20012010:	20012124 	.word	0x20012124
20012014:	20012080 	.word	0x20012080
20012018:	20012124 	.word	0x20012124
2001201c:	20012124 	.word	0x20012124
20012020:	20012124 	.word	0x20012124
20012024:	20012124 	.word	0x20012124
20012028:	20012124 	.word	0x20012124
2001202c:	20012124 	.word	0x20012124
20012030:	20012124 	.word	0x20012124
20012034:	20012124 	.word	0x20012124
20012038:	20012124 	.word	0x20012124
2001203c:	20012124 	.word	0x20012124
20012040:	20012124 	.word	0x20012124
20012044:	20012124 	.word	0x20012124
20012048:	20012124 	.word	0x20012124
2001204c:	20012060 	.word	0x20012060
20012050:	e59f30fc 	ldr	r3, [pc, #252]	; 20012154 <receive_data+0x198>
20012054:	e3a02004 	mov	r2, #4
20012058:	e5c32000 	strb	r2, [r3]
2001205c:	ea000033 	b	20012130 <receive_data+0x174>
20012060:	e59f30ec 	ldr	r3, [pc, #236]	; 20012154 <receive_data+0x198>
20012064:	e3a02002 	mov	r2, #2
20012068:	e5c32000 	strb	r2, [r3]
2001206c:	ea00002f 	b	20012130 <receive_data+0x174>
20012070:	e59f30dc 	ldr	r3, [pc, #220]	; 20012154 <receive_data+0x198>
20012074:	e3a02003 	mov	r2, #3
20012078:	e5c32000 	strb	r2, [r3]
2001207c:	ea00002b 	b	20012130 <receive_data+0x174>
20012080:	e3a03000 	mov	r3, #0
20012084:	e50b3008 	str	r3, [fp, #-8]
20012088:	ea00001e 	b	20012108 <receive_data+0x14c>
2001208c:	e51b3018 	ldr	r3, [fp, #-24]	; 0xffffffe8
20012090:	e5932004 	ldr	r2, [r3, #4]
20012094:	e51b3008 	ldr	r3, [fp, #-8]
20012098:	e1a03083 	lsl	r3, r3, #1
2001209c:	e2833001 	add	r3, r3, #1
200120a0:	e0823003 	add	r3, r2, r3
200120a4:	e5d33000 	ldrb	r3, [r3]
200120a8:	e1a03403 	lsl	r3, r3, #8
200120ac:	e1a03803 	lsl	r3, r3, #16
200120b0:	e1a01823 	lsr	r1, r3, #16
200120b4:	e51b3018 	ldr	r3, [fp, #-24]	; 0xffffffe8
200120b8:	e5932004 	ldr	r2, [r3, #4]
200120bc:	e51b3008 	ldr	r3, [fp, #-8]
200120c0:	e1a03083 	lsl	r3, r3, #1
200120c4:	e2833002 	add	r3, r3, #2
200120c8:	e0823003 	add	r3, r2, r3
200120cc:	e5d33000 	ldrb	r3, [r3]
200120d0:	e1a03803 	lsl	r3, r3, #16
200120d4:	e1a03823 	lsr	r3, r3, #16
200120d8:	e1a02001 	mov	r2, r1
200120dc:	e1823003 	orr	r3, r2, r3
200120e0:	e1a03803 	lsl	r3, r3, #16
200120e4:	e1a02823 	lsr	r2, r3, #16
200120e8:	e59f1068 	ldr	r1, [pc, #104]	; 20012158 <receive_data+0x19c>
200120ec:	e51b3008 	ldr	r3, [fp, #-8]
200120f0:	e1a03083 	lsl	r3, r3, #1
200120f4:	e0813003 	add	r3, r1, r3
200120f8:	e1c320b0 	strh	r2, [r3]
200120fc:	e51b3008 	ldr	r3, [fp, #-8]
20012100:	e2833001 	add	r3, r3, #1
20012104:	e50b3008 	str	r3, [fp, #-8]
20012108:	e51b3008 	ldr	r3, [fp, #-8]
2001210c:	e35300ff 	cmp	r3, #255	; 0xff
20012110:	daffffdd 	ble	2001208c <receive_data+0xd0>
20012114:	e59f3040 	ldr	r3, [pc, #64]	; 2001215c <receive_data+0x1a0>
20012118:	e3a02001 	mov	r2, #1
2001211c:	e5832000 	str	r2, [r3]
20012120:	ea000002 	b	20012130 <receive_data+0x174>
20012124:	e3a0000e 	mov	r0, #14
20012128:	eb00030a 	bl	20012d58 <process_error>
2001212c:	e1a00000 	nop			; (mov r0, r0)
20012130:	e51b0018 	ldr	r0, [fp, #-24]	; 0xffffffe8
20012134:	ebffbece 	bl	20001c74 <pbuf_free>
20012138:	e55b3019 	ldrb	r3, [fp, #-25]	; 0xffffffe7
2001213c:	e1a03c03 	lsl	r3, r3, #24
20012140:	e1a03c43 	asr	r3, r3, #24
20012144:	e1a00003 	mov	r0, r3
20012148:	e24bd004 	sub	sp, fp, #4
2001214c:	e8bd4800 	pop	{fp, lr}
20012150:	e12fff1e 	bx	lr
20012154:	200152a4 	.word	0x200152a4
20012158:	200152b0 	.word	0x200152b0
2001215c:	200154b0 	.word	0x200154b0

20012160 <busy_sent>:
20012160:	e92d4800 	push	{fp, lr}
20012164:	e28db004 	add	fp, sp, #4
20012168:	e24dd010 	sub	sp, sp, #16
2001216c:	e50b0008 	str	r0, [fp, #-8]
20012170:	e50b100c 	str	r1, [fp, #-12]
20012174:	e1a03002 	mov	r3, r2
20012178:	e14b30be 	strh	r3, [fp, #-14]
2001217c:	e51b000c 	ldr	r0, [fp, #-12]
20012180:	ebffc259 	bl	20002aec <tcp_close>
20012184:	e1a03000 	mov	r3, r0
20012188:	e3530000 	cmp	r3, #0
2001218c:	0a000001 	beq	20012198 <busy_sent+0x38>
20012190:	e3a0000c 	mov	r0, #12
20012194:	eb0002ef 	bl	20012d58 <process_error>
20012198:	e3a03000 	mov	r3, #0
2001219c:	e1a03c03 	lsl	r3, r3, #24
200121a0:	e1a03c43 	asr	r3, r3, #24
200121a4:	e1a00003 	mov	r0, r3
200121a8:	e24bd004 	sub	sp, fp, #4
200121ac:	e8bd4800 	pop	{fp, lr}
200121b0:	e12fff1e 	bx	lr

200121b4 <error_handler>:
200121b4:	e92d4800 	push	{fp, lr}
200121b8:	e28db004 	add	fp, sp, #4
200121bc:	e24dd008 	sub	sp, sp, #8
200121c0:	e50b0008 	str	r0, [fp, #-8]
200121c4:	e1a03001 	mov	r3, r1
200121c8:	e54b3009 	strb	r3, [fp, #-9]
200121cc:	e3a0000f 	mov	r0, #15
200121d0:	eb0002e0 	bl	20012d58 <process_error>
200121d4:	e1a00000 	nop			; (mov r0, r0)
200121d8:	e24bd004 	sub	sp, fp, #4
200121dc:	e8bd4800 	pop	{fp, lr}
200121e0:	e12fff1e 	bx	lr

200121e4 <no_action>:
200121e4:	e52db004 	push	{fp}		; (str fp, [sp, #-4]!)
200121e8:	e28db000 	add	fp, sp, #0
200121ec:	e24dd00c 	sub	sp, sp, #12
200121f0:	e1a03000 	mov	r3, r0
200121f4:	e50b100c 	str	r1, [fp, #-12]
200121f8:	e54b3005 	strb	r3, [fp, #-5]
200121fc:	e55b3005 	ldrb	r3, [fp, #-5]
20012200:	e1a00003 	mov	r0, r3
20012204:	e24bd000 	sub	sp, fp, #0
20012208:	e49db004 	pop	{fp}		; (ldr fp, [sp], #4)
2001220c:	e12fff1e 	bx	lr

20012210 <reset_input>:
20012210:	e92d4800 	push	{fp, lr}
20012214:	e28db004 	add	fp, sp, #4
20012218:	e24dd008 	sub	sp, sp, #8
2001221c:	e1a03000 	mov	r3, r0
20012220:	e50b100c 	str	r1, [fp, #-12]
20012224:	e54b3005 	strb	r3, [fp, #-5]
20012228:	e3a00000 	mov	r0, #0
2001222c:	ebfff940 	bl	20010734 <set_calling_IP>
20012230:	e3a03000 	mov	r3, #0
20012234:	e1a00003 	mov	r0, r3
20012238:	e24bd004 	sub	sp, fp, #4
2001223c:	e8bd4800 	pop	{fp, lr}
20012240:	e12fff1e 	bx	lr

20012244 <init_networking>:
20012244:	e92d4800 	push	{fp, lr}
20012248:	e28db004 	add	fp, sp, #4
2001224c:	e24dd020 	sub	sp, sp, #32
20012250:	ebffb7d1 	bl	2000019c <mem_init>
20012254:	ebffba12 	bl	20000aa4 <memp_init>
20012258:	e59f0078 	ldr	r0, [pc, #120]	; 200122d8 <init_networking+0x94>
2001225c:	ebffec27 	bl	2000d300 <htonl>
20012260:	e1a03000 	mov	r3, r0
20012264:	e50b3008 	str	r3, [fp, #-8]
20012268:	e3e000ff 	mvn	r0, #255	; 0xff
2001226c:	ebffec23 	bl	2000d300 <htonl>
20012270:	e1a03000 	mov	r3, r0
20012274:	e50b300c 	str	r3, [fp, #-12]
20012278:	e59f005c 	ldr	r0, [pc, #92]	; 200122dc <init_networking+0x98>
2001227c:	ebffec1f 	bl	2000d300 <htonl>
20012280:	e1a03000 	mov	r3, r0
20012284:	e50b3010 	str	r3, [fp, #-16]
20012288:	e24b0008 	sub	r0, fp, #8
2001228c:	e24b200c 	sub	r2, fp, #12
20012290:	e24b1010 	sub	r1, fp, #16
20012294:	e59f3044 	ldr	r3, [pc, #68]	; 200122e0 <init_networking+0x9c>
20012298:	e58d3008 	str	r3, [sp, #8]
2001229c:	e59f3040 	ldr	r3, [pc, #64]	; 200122e4 <init_networking+0xa0>
200122a0:	e58d3004 	str	r3, [sp, #4]
200122a4:	e3a03000 	mov	r3, #0
200122a8:	e58d3000 	str	r3, [sp]
200122ac:	e1a03000 	mov	r3, r0
200122b0:	e59f0030 	ldr	r0, [pc, #48]	; 200122e8 <init_networking+0xa4>
200122b4:	ebffbb07 	bl	20000ed8 <netif_add>
200122b8:	e59f0028 	ldr	r0, [pc, #40]	; 200122e8 <init_networking+0xa4>
200122bc:	ebffbc69 	bl	20001468 <netif_set_default>
200122c0:	e59f0020 	ldr	r0, [pc, #32]	; 200122e8 <init_networking+0xa4>
200122c4:	ebffbc73 	bl	20001498 <netif_set_up>
200122c8:	e1a00000 	nop			; (mov r0, r0)
200122cc:	e24bd004 	sub	sp, fp, #4
200122d0:	e8bd4800 	pop	{fp, lr}
200122d4:	e12fff1e 	bx	lr
200122d8:	c0a80101 	.word	0xc0a80101
200122dc:	c0a80115 	.word	0xc0a80115
200122e0:	2000c0c4 	.word	0x2000c0c4
200122e4:	200122ec 	.word	0x200122ec
200122e8:	200154b4 	.word	0x200154b4

200122ec <ethernetif_init>:
200122ec:	e92d4800 	push	{fp, lr}
200122f0:	e28db004 	add	fp, sp, #4
200122f4:	e24dd010 	sub	sp, sp, #16
200122f8:	e50b0010 	str	r0, [fp, #-16]
200122fc:	e51b3010 	ldr	r3, [fp, #-16]
20012300:	e3a02000 	mov	r2, #0
20012304:	e583201c 	str	r2, [r3, #28]
20012308:	e51b3010 	ldr	r3, [fp, #-16]
2001230c:	e3a02065 	mov	r2, #101	; 0x65
20012310:	e5c3202a 	strb	r2, [r3, #42]	; 0x2a
20012314:	e51b3010 	ldr	r3, [fp, #-16]
20012318:	e3a02074 	mov	r2, #116	; 0x74
2001231c:	e5c3202b 	strb	r2, [r3, #43]	; 0x2b
20012320:	e51b3010 	ldr	r3, [fp, #-16]
20012324:	e59f20c4 	ldr	r2, [pc, #196]	; 200123f0 <ethernetif_init+0x104>
20012328:	e5832014 	str	r2, [r3, #20]
2001232c:	e51b3010 	ldr	r3, [fp, #-16]
20012330:	e59f20bc 	ldr	r2, [pc, #188]	; 200123f4 <ethernetif_init+0x108>
20012334:	e5832018 	str	r2, [r3, #24]
20012338:	e51b3010 	ldr	r3, [fp, #-16]
2001233c:	e3a02006 	mov	r2, #6
20012340:	e5c32022 	strb	r2, [r3, #34]	; 0x22
20012344:	e51b3010 	ldr	r3, [fp, #-16]
20012348:	e3a02021 	mov	r2, #33	; 0x21
2001234c:	e5c32023 	strb	r2, [r3, #35]	; 0x23
20012350:	e51b3010 	ldr	r3, [fp, #-16]
20012354:	e3a02043 	mov	r2, #67	; 0x43
20012358:	e5c32024 	strb	r2, [r3, #36]	; 0x24
2001235c:	e51b3010 	ldr	r3, [fp, #-16]
20012360:	e3a02065 	mov	r2, #101	; 0x65
20012364:	e5c32025 	strb	r2, [r3, #37]	; 0x25
20012368:	e51b3010 	ldr	r3, [fp, #-16]
2001236c:	e3e02078 	mvn	r2, #120	; 0x78
20012370:	e5c32026 	strb	r2, [r3, #38]	; 0x26
20012374:	e51b3010 	ldr	r3, [fp, #-16]
20012378:	e3a02009 	mov	r2, #9
2001237c:	e5c32027 	strb	r2, [r3, #39]	; 0x27
20012380:	e51b3010 	ldr	r3, [fp, #-16]
20012384:	e3e02015 	mvn	r2, #21
20012388:	e5c32028 	strb	r2, [r3, #40]	; 0x28
2001238c:	e51b3010 	ldr	r3, [fp, #-16]
20012390:	e59f2060 	ldr	r2, [pc, #96]	; 200123f8 <ethernetif_init+0x10c>
20012394:	e1c322b0 	strh	r2, [r3, #32]
20012398:	e51b3010 	ldr	r3, [fp, #-16]
2001239c:	e3a02032 	mov	r2, #50	; 0x32
200123a0:	e5c32029 	strb	r2, [r3, #41]	; 0x29
200123a4:	ebfffcdd 	bl	20011720 <ether_init>
200123a8:	e1a03000 	mov	r3, r0
200123ac:	e3530000 	cmp	r3, #0
200123b0:	03a03001 	moveq	r3, #1
200123b4:	13a03000 	movne	r3, #0
200123b8:	e20330ff 	and	r3, r3, #255	; 0xff
200123bc:	e54b3005 	strb	r3, [fp, #-5]
200123c0:	e55b3005 	ldrb	r3, [fp, #-5]
200123c4:	e3530000 	cmp	r3, #0
200123c8:	0a000001 	beq	200123d4 <ethernetif_init+0xe8>
200123cc:	e3a030f4 	mov	r3, #244	; 0xf4
200123d0:	ea000000 	b	200123d8 <ethernetif_init+0xec>
200123d4:	e3a03000 	mov	r3, #0
200123d8:	e1a03c03 	lsl	r3, r3, #24
200123dc:	e1a03c43 	asr	r3, r3, #24
200123e0:	e1a00003 	mov	r0, r3
200123e4:	e24bd004 	sub	sp, fp, #4
200123e8:	e8bd4800 	pop	{fp, lr}
200123ec:	e12fff1e 	bx	lr
200123f0:	2000fd84 	.word	0x2000fd84
200123f4:	200124d8 	.word	0x200124d8
200123f8:	000005dc 	.word	0x000005dc

200123fc <ethernetif_input>:
200123fc:	e92d4800 	push	{fp, lr}
20012400:	e28db004 	add	fp, sp, #4
20012404:	e24dd008 	sub	sp, sp, #8
20012408:	ebfffcdb 	bl	2001177c <ether_receive>
2001240c:	e50b0008 	str	r0, [fp, #-8]
20012410:	e51b3008 	ldr	r3, [fp, #-8]
20012414:	e3530000 	cmp	r3, #0
20012418:	0a000027 	beq	200124bc <ethernetif_input+0xc0>
2001241c:	e51b3008 	ldr	r3, [fp, #-8]
20012420:	e5933004 	ldr	r3, [r3, #4]
20012424:	e50b300c 	str	r3, [fp, #-12]
20012428:	e51b300c 	ldr	r3, [fp, #-12]
2001242c:	e5d3200c 	ldrb	r2, [r3, #12]
20012430:	e5d3300d 	ldrb	r3, [r3, #13]
20012434:	e1a03403 	lsl	r3, r3, #8
20012438:	e1833002 	orr	r3, r3, r2
2001243c:	e1a03803 	lsl	r3, r3, #16
20012440:	e1a03823 	lsr	r3, r3, #16
20012444:	e1a00003 	mov	r0, r3
20012448:	ebffeb87 	bl	2000d26c <htons>
2001244c:	e1a03000 	mov	r3, r0
20012450:	e3530b02 	cmp	r3, #2048	; 0x800
20012454:	0a000003 	beq	20012468 <ethernetif_input+0x6c>
20012458:	e59f206c 	ldr	r2, [pc, #108]	; 200124cc <ethernetif_input+0xd0>
2001245c:	e1530002 	cmp	r3, r2
20012460:	0a00000a 	beq	20012490 <ethernetif_input+0x94>
20012464:	ea00000e 	b	200124a4 <ethernetif_input+0xa8>
20012468:	e51b1008 	ldr	r1, [fp, #-8]
2001246c:	e59f005c 	ldr	r0, [pc, #92]	; 200124d0 <ethernetif_input+0xd4>
20012470:	ebfff508 	bl	2000f898 <etharp_ip_input>
20012474:	e3e0100d 	mvn	r1, #13
20012478:	e51b0008 	ldr	r0, [fp, #-8]
2001247c:	ebffbd92 	bl	20001acc <pbuf_header>
20012480:	e59f1048 	ldr	r1, [pc, #72]	; 200124d0 <ethernetif_input+0xd4>
20012484:	e51b0008 	ldr	r0, [fp, #-8]
20012488:	ebffe70d 	bl	2000c0c4 <ip_input>
2001248c:	ea000009 	b	200124b8 <ethernetif_input+0xbc>
20012490:	e51b2008 	ldr	r2, [fp, #-8]
20012494:	e59f1038 	ldr	r1, [pc, #56]	; 200124d4 <ethernetif_input+0xd8>
20012498:	e59f0030 	ldr	r0, [pc, #48]	; 200124d0 <ethernetif_input+0xd4>
2001249c:	ebfff52d 	bl	2000f958 <etharp_arp_input>
200124a0:	ea000004 	b	200124b8 <ethernetif_input+0xbc>
200124a4:	e51b0008 	ldr	r0, [fp, #-8]
200124a8:	ebffbdf1 	bl	20001c74 <pbuf_free>
200124ac:	e3a03000 	mov	r3, #0
200124b0:	e50b3008 	str	r3, [fp, #-8]
200124b4:	e1a00000 	nop			; (mov r0, r0)
200124b8:	e1a00000 	nop			; (mov r0, r0)
200124bc:	e1a00000 	nop			; (mov r0, r0)
200124c0:	e24bd004 	sub	sp, fp, #4
200124c4:	e8bd4800 	pop	{fp, lr}
200124c8:	e12fff1e 	bx	lr
200124cc:	00000806 	.word	0x00000806
200124d0:	200154b4 	.word	0x200154b4
200124d4:	200154d7 	.word	0x200154d7

200124d8 <ethernetif_output>:
200124d8:	e92d4800 	push	{fp, lr}
200124dc:	e28db004 	add	fp, sp, #4
200124e0:	e24dd010 	sub	sp, sp, #16
200124e4:	e50b0010 	str	r0, [fp, #-16]
200124e8:	e50b1014 	str	r1, [fp, #-20]	; 0xffffffec
200124ec:	e51b0014 	ldr	r0, [fp, #-20]	; 0xffffffec
200124f0:	ebfffc91 	bl	2001173c <ether_transmit>
200124f4:	e1a03000 	mov	r3, r0
200124f8:	e3530000 	cmp	r3, #0
200124fc:	03a03001 	moveq	r3, #1
20012500:	13a03000 	movne	r3, #0
20012504:	e20330ff 	and	r3, r3, #255	; 0xff
20012508:	e54b3005 	strb	r3, [fp, #-5]
2001250c:	e51b3014 	ldr	r3, [fp, #-20]	; 0xffffffec
20012510:	e3530000 	cmp	r3, #0
20012514:	0a000001 	beq	20012520 <ethernetif_output+0x48>
20012518:	e51b0014 	ldr	r0, [fp, #-20]	; 0xffffffec
2001251c:	ebffbdd4 	bl	20001c74 <pbuf_free>
20012520:	e55b3005 	ldrb	r3, [fp, #-5]
20012524:	e3530000 	cmp	r3, #0
20012528:	0a000001 	beq	20012534 <ethernetif_output+0x5c>
2001252c:	e3a030f4 	mov	r3, #244	; 0xf4
20012530:	ea000000 	b	20012538 <ethernetif_output+0x60>
20012534:	e3a03000 	mov	r3, #0
20012538:	e1a03c03 	lsl	r3, r3, #24
2001253c:	e1a03c43 	asr	r3, r3, #24
20012540:	e1a00003 	mov	r0, r3
20012544:	e24bd004 	sub	sp, fp, #4
20012548:	e8bd4800 	pop	{fp, lr}
2001254c:	e12fff1e 	bx	lr

20012550 <do_answer>:
20012550:	e92d4800 	push	{fp, lr}
20012554:	e28db004 	add	fp, sp, #4
20012558:	e24dd008 	sub	sp, sp, #8
2001255c:	e1a03000 	mov	r3, r0
20012560:	e50b100c 	str	r1, [fp, #-12]
20012564:	e54b3005 	strb	r3, [fp, #-5]
20012568:	ebfff8d6 	bl	200108c8 <connect_incoming>
2001256c:	e3a03004 	mov	r3, #4
20012570:	e1a00003 	mov	r0, r3
20012574:	e24bd004 	sub	sp, fp, #4
20012578:	e8bd4800 	pop	{fp, lr}
2001257c:	e12fff1e 	bx	lr

20012580 <do_call>:
20012580:	e92d4800 	push	{fp, lr}
20012584:	e28db004 	add	fp, sp, #4
20012588:	e24dd008 	sub	sp, sp, #8
2001258c:	e1a03000 	mov	r3, r0
20012590:	e50b100c 	str	r1, [fp, #-12]
20012594:	e54b3005 	strb	r3, [fp, #-5]
20012598:	ebfff8ab 	bl	2001084c <initiate_outgoing>
2001259c:	e3a03003 	mov	r3, #3
200125a0:	e1a00003 	mov	r0, r3
200125a4:	e24bd004 	sub	sp, fp, #4
200125a8:	e8bd4800 	pop	{fp, lr}
200125ac:	e12fff1e 	bx	lr

200125b0 <end_call>:
200125b0:	e92d4800 	push	{fp, lr}
200125b4:	e28db004 	add	fp, sp, #4
200125b8:	e24dd008 	sub	sp, sp, #8
200125bc:	e1a03000 	mov	r3, r0
200125c0:	e50b100c 	str	r1, [fp, #-12]
200125c4:	e54b3005 	strb	r3, [fp, #-5]
200125c8:	ebfff949 	bl	20010af4 <disconnect_call>
200125cc:	e3a03000 	mov	r3, #0
200125d0:	e1a00003 	mov	r0, r3
200125d4:	e24bd004 	sub	sp, fp, #4
200125d8:	e8bd4800 	pop	{fp, lr}
200125dc:	e12fff1e 	bx	lr

200125e0 <init_buffers>:
200125e0:	e92d4800 	push	{fp, lr}
200125e4:	e28db004 	add	fp, sp, #4
200125e8:	e24dd008 	sub	sp, sp, #8
200125ec:	e3a03101 	mov	r3, #1073741824	; 0x40000000
200125f0:	e50b3008 	str	r3, [fp, #-8]
200125f4:	e3a03000 	mov	r3, #0
200125f8:	e50b300c 	str	r3, [fp, #-12]
200125fc:	ea000009 	b	20012628 <init_buffers+0x48>
20012600:	e59f1084 	ldr	r1, [pc, #132]	; 2001268c <init_buffers+0xac>
20012604:	e51b300c 	ldr	r3, [fp, #-12]
20012608:	e51b2008 	ldr	r2, [fp, #-8]
2001260c:	e7812103 	str	r2, [r1, r3, lsl #2]
20012610:	e51b3008 	ldr	r3, [fp, #-8]
20012614:	e2833c02 	add	r3, r3, #512	; 0x200
20012618:	e50b3008 	str	r3, [fp, #-8]
2001261c:	e51b300c 	ldr	r3, [fp, #-12]
20012620:	e2833001 	add	r3, r3, #1
20012624:	e50b300c 	str	r3, [fp, #-12]
20012628:	e51b300c 	ldr	r3, [fp, #-12]
2001262c:	e3530013 	cmp	r3, #19
20012630:	dafffff2 	ble	20012600 <init_buffers+0x20>
20012634:	eb000016 	bl	20012694 <reset_rx_buffer>
20012638:	e3a03000 	mov	r3, #0
2001263c:	e50b300c 	str	r3, [fp, #-12]
20012640:	ea000009 	b	2001266c <init_buffers+0x8c>
20012644:	e59f1044 	ldr	r1, [pc, #68]	; 20012690 <init_buffers+0xb0>
20012648:	e51b300c 	ldr	r3, [fp, #-12]
2001264c:	e51b2008 	ldr	r2, [fp, #-8]
20012650:	e7812103 	str	r2, [r1, r3, lsl #2]
20012654:	e51b3008 	ldr	r3, [fp, #-8]
20012658:	e2833c02 	add	r3, r3, #512	; 0x200
2001265c:	e50b3008 	str	r3, [fp, #-8]
20012660:	e51b300c 	ldr	r3, [fp, #-12]
20012664:	e2833001 	add	r3, r3, #1
20012668:	e50b300c 	str	r3, [fp, #-12]
2001266c:	e51b300c 	ldr	r3, [fp, #-12]
20012670:	e3530013 	cmp	r3, #19
20012674:	dafffff2 	ble	20012644 <init_buffers+0x64>
20012678:	eb000017 	bl	200126dc <reset_tx_buffer>
2001267c:	e1a00000 	nop			; (mov r0, r0)
20012680:	e24bd004 	sub	sp, fp, #4
20012684:	e8bd4800 	pop	{fp, lr}
20012688:	e12fff1e 	bx	lr
2001268c:	200154e4 	.word	0x200154e4
20012690:	20015540 	.word	0x20015540

20012694 <reset_rx_buffer>:
20012694:	e52db004 	push	{fp}		; (str fp, [sp, #-4]!)
20012698:	e28db000 	add	fp, sp, #0
2001269c:	e59f302c 	ldr	r3, [pc, #44]	; 200126d0 <reset_rx_buffer+0x3c>
200126a0:	e3a02012 	mov	r2, #18
200126a4:	e5832000 	str	r2, [r3]
200126a8:	e59f3024 	ldr	r3, [pc, #36]	; 200126d4 <reset_rx_buffer+0x40>
200126ac:	e3a02013 	mov	r2, #19
200126b0:	e5832000 	str	r2, [r3]
200126b4:	e59f301c 	ldr	r3, [pc, #28]	; 200126d8 <reset_rx_buffer+0x44>
200126b8:	e3e02002 	mvn	r2, #2
200126bc:	e5832000 	str	r2, [r3]
200126c0:	e1a00000 	nop			; (mov r0, r0)
200126c4:	e24bd000 	sub	sp, fp, #0
200126c8:	e49db004 	pop	{fp}		; (ldr fp, [sp], #4)
200126cc:	e12fff1e 	bx	lr
200126d0:	20015534 	.word	0x20015534
200126d4:	20015538 	.word	0x20015538
200126d8:	2001553c 	.word	0x2001553c

200126dc <reset_tx_buffer>:
200126dc:	e52db004 	push	{fp}		; (str fp, [sp, #-4]!)
200126e0:	e28db000 	add	fp, sp, #0
200126e4:	e59f302c 	ldr	r3, [pc, #44]	; 20012718 <reset_tx_buffer+0x3c>
200126e8:	e3a02012 	mov	r2, #18
200126ec:	e5832000 	str	r2, [r3]
200126f0:	e59f3024 	ldr	r3, [pc, #36]	; 2001271c <reset_tx_buffer+0x40>
200126f4:	e3a02013 	mov	r2, #19
200126f8:	e5832000 	str	r2, [r3]
200126fc:	e59f301c 	ldr	r3, [pc, #28]	; 20012720 <reset_tx_buffer+0x44>
20012700:	e3a02013 	mov	r2, #19
20012704:	e5832000 	str	r2, [r3]
20012708:	e1a00000 	nop			; (mov r0, r0)
2001270c:	e24bd000 	sub	sp, fp, #0
20012710:	e49db004 	pop	{fp}		; (ldr fp, [sp], #4)
20012714:	e12fff1e 	bx	lr
20012718:	20015590 	.word	0x20015590
2001271c:	20015594 	.word	0x20015594
20012720:	20015598 	.word	0x20015598

20012724 <rx_available>:
20012724:	e52db004 	push	{fp}		; (str fp, [sp, #-4]!)
20012728:	e28db000 	add	fp, sp, #0
2001272c:	e24dd00c 	sub	sp, sp, #12
20012730:	e59f3048 	ldr	r3, [pc, #72]	; 20012780 <rx_available+0x5c>
20012734:	e5933000 	ldr	r3, [r3]
20012738:	e2833001 	add	r3, r3, #1
2001273c:	e50b3008 	str	r3, [fp, #-8]
20012740:	e51b3008 	ldr	r3, [fp, #-8]
20012744:	e3530013 	cmp	r3, #19
20012748:	da000001 	ble	20012754 <rx_available+0x30>
2001274c:	e3a03000 	mov	r3, #0
20012750:	e50b3008 	str	r3, [fp, #-8]
20012754:	e59f3028 	ldr	r3, [pc, #40]	; 20012784 <rx_available+0x60>
20012758:	e5933000 	ldr	r3, [r3]
2001275c:	e51b2008 	ldr	r2, [fp, #-8]
20012760:	e1520003 	cmp	r2, r3
20012764:	13a03001 	movne	r3, #1
20012768:	03a03000 	moveq	r3, #0
2001276c:	e20330ff 	and	r3, r3, #255	; 0xff
20012770:	e1a00003 	mov	r0, r3
20012774:	e24bd000 	sub	sp, fp, #0
20012778:	e49db004 	pop	{fp}		; (ldr fp, [sp], #4)
2001277c:	e12fff1e 	bx	lr
20012780:	20015538 	.word	0x20015538
20012784:	2001553c 	.word	0x2001553c

20012788 <xmit_available>:
20012788:	e52db004 	push	{fp}		; (str fp, [sp, #-4]!)
2001278c:	e28db000 	add	fp, sp, #0
20012790:	e24dd00c 	sub	sp, sp, #12
20012794:	e59f3058 	ldr	r3, [pc, #88]	; 200127f4 <xmit_available+0x6c>
20012798:	e5933000 	ldr	r3, [r3]
2001279c:	e2833001 	add	r3, r3, #1
200127a0:	e50b3008 	str	r3, [fp, #-8]
200127a4:	e51b3008 	ldr	r3, [fp, #-8]
200127a8:	e3530013 	cmp	r3, #19
200127ac:	da000001 	ble	200127b8 <xmit_available+0x30>
200127b0:	e3a03000 	mov	r3, #0
200127b4:	e50b3008 	str	r3, [fp, #-8]
200127b8:	e51b3008 	ldr	r3, [fp, #-8]
200127bc:	e3530000 	cmp	r3, #0
200127c0:	ba000006 	blt	200127e0 <xmit_available+0x58>
200127c4:	e59f302c 	ldr	r3, [pc, #44]	; 200127f8 <xmit_available+0x70>
200127c8:	e5933000 	ldr	r3, [r3]
200127cc:	e51b2008 	ldr	r2, [fp, #-8]
200127d0:	e1520003 	cmp	r2, r3
200127d4:	0a000001 	beq	200127e0 <xmit_available+0x58>
200127d8:	e3a03001 	mov	r3, #1
200127dc:	ea000000 	b	200127e4 <xmit_available+0x5c>
200127e0:	e3a03000 	mov	r3, #0
200127e4:	e1a00003 	mov	r0, r3
200127e8:	e24bd000 	sub	sp, fp, #0
200127ec:	e49db004 	pop	{fp}		; (ldr fp, [sp], #4)
200127f0:	e12fff1e 	bx	lr
200127f4:	2001553c 	.word	0x2001553c
200127f8:	20015534 	.word	0x20015534

200127fc <get_rx_next_ptr>:
200127fc:	e92d4800 	push	{fp, lr}
20012800:	e28db004 	add	fp, sp, #4
20012804:	e24dd008 	sub	sp, sp, #8
20012808:	ebffffc5 	bl	20012724 <rx_available>
2001280c:	e1a03000 	mov	r3, r0
20012810:	e3530000 	cmp	r3, #0
20012814:	0a00000d 	beq	20012850 <get_rx_next_ptr+0x54>
20012818:	e59f304c 	ldr	r3, [pc, #76]	; 2001286c <get_rx_next_ptr+0x70>
2001281c:	e5933000 	ldr	r3, [r3]
20012820:	e2833001 	add	r3, r3, #1
20012824:	e50b300c 	str	r3, [fp, #-12]
20012828:	e51b300c 	ldr	r3, [fp, #-12]
2001282c:	e3530013 	cmp	r3, #19
20012830:	da000001 	ble	2001283c <get_rx_next_ptr+0x40>
20012834:	e3a03000 	mov	r3, #0
20012838:	e50b300c 	str	r3, [fp, #-12]
2001283c:	e59f202c 	ldr	r2, [pc, #44]	; 20012870 <get_rx_next_ptr+0x74>
20012840:	e51b300c 	ldr	r3, [fp, #-12]
20012844:	e7923103 	ldr	r3, [r2, r3, lsl #2]
20012848:	e50b3008 	str	r3, [fp, #-8]
2001284c:	ea000001 	b	20012858 <get_rx_next_ptr+0x5c>
20012850:	e3a03000 	mov	r3, #0
20012854:	e50b3008 	str	r3, [fp, #-8]
20012858:	e51b3008 	ldr	r3, [fp, #-8]
2001285c:	e1a00003 	mov	r0, r3
20012860:	e24bd004 	sub	sp, fp, #4
20012864:	e8bd4800 	pop	{fp, lr}
20012868:	e12fff1e 	bx	lr
2001286c:	20015538 	.word	0x20015538
20012870:	200154e4 	.word	0x200154e4

20012874 <get_rx_buffer>:
20012874:	e92d4800 	push	{fp, lr}
20012878:	e28db004 	add	fp, sp, #4
2001287c:	e24dd008 	sub	sp, sp, #8
20012880:	ebffffa7 	bl	20012724 <rx_available>
20012884:	e1a03000 	mov	r3, r0
20012888:	e3530000 	cmp	r3, #0
2001288c:	0a000026 	beq	2001292c <get_rx_buffer+0xb8>
20012890:	e59f30b0 	ldr	r3, [pc, #176]	; 20012948 <get_rx_buffer+0xd4>
20012894:	e5933000 	ldr	r3, [r3]
20012898:	e2833001 	add	r3, r3, #1
2001289c:	e59f20a4 	ldr	r2, [pc, #164]	; 20012948 <get_rx_buffer+0xd4>
200128a0:	e5823000 	str	r3, [r2]
200128a4:	e59f309c 	ldr	r3, [pc, #156]	; 20012948 <get_rx_buffer+0xd4>
200128a8:	e5933000 	ldr	r3, [r3]
200128ac:	e3530013 	cmp	r3, #19
200128b0:	da000002 	ble	200128c0 <get_rx_buffer+0x4c>
200128b4:	e59f308c 	ldr	r3, [pc, #140]	; 20012948 <get_rx_buffer+0xd4>
200128b8:	e3a02000 	mov	r2, #0
200128bc:	e5832000 	str	r2, [r3]
200128c0:	e59f3080 	ldr	r3, [pc, #128]	; 20012948 <get_rx_buffer+0xd4>
200128c4:	e5933000 	ldr	r3, [r3]
200128c8:	e59f207c 	ldr	r2, [pc, #124]	; 2001294c <get_rx_buffer+0xd8>
200128cc:	e7923103 	ldr	r3, [r2, r3, lsl #2]
200128d0:	e50b3008 	str	r3, [fp, #-8]
200128d4:	e59f3074 	ldr	r3, [pc, #116]	; 20012950 <get_rx_buffer+0xdc>
200128d8:	e5933000 	ldr	r3, [r3]
200128dc:	e2833001 	add	r3, r3, #1
200128e0:	e59f2068 	ldr	r2, [pc, #104]	; 20012950 <get_rx_buffer+0xdc>
200128e4:	e5823000 	str	r3, [r2]
200128e8:	e59f3060 	ldr	r3, [pc, #96]	; 20012950 <get_rx_buffer+0xdc>
200128ec:	e5933000 	ldr	r3, [r3]
200128f0:	e3530013 	cmp	r3, #19
200128f4:	da000002 	ble	20012904 <get_rx_buffer+0x90>
200128f8:	e59f3050 	ldr	r3, [pc, #80]	; 20012950 <get_rx_buffer+0xdc>
200128fc:	e3a02000 	mov	r2, #0
20012900:	e5832000 	str	r2, [r3]
20012904:	e59f3048 	ldr	r3, [pc, #72]	; 20012954 <get_rx_buffer+0xe0>
20012908:	e5933000 	ldr	r3, [r3]
2001290c:	e3730001 	cmn	r3, #1
20012910:	aa000007 	bge	20012934 <get_rx_buffer+0xc0>
20012914:	e59f3038 	ldr	r3, [pc, #56]	; 20012954 <get_rx_buffer+0xe0>
20012918:	e5933000 	ldr	r3, [r3]
2001291c:	e2833001 	add	r3, r3, #1
20012920:	e59f202c 	ldr	r2, [pc, #44]	; 20012954 <get_rx_buffer+0xe0>
20012924:	e5823000 	str	r3, [r2]
20012928:	ea000001 	b	20012934 <get_rx_buffer+0xc0>
2001292c:	e3a03000 	mov	r3, #0
20012930:	e50b3008 	str	r3, [fp, #-8]
20012934:	e51b3008 	ldr	r3, [fp, #-8]
20012938:	e1a00003 	mov	r0, r3
2001293c:	e24bd004 	sub	sp, fp, #4
20012940:	e8bd4800 	pop	{fp, lr}
20012944:	e12fff1e 	bx	lr
20012948:	20015538 	.word	0x20015538
2001294c:	200154e4 	.word	0x200154e4
20012950:	20015534 	.word	0x20015534
20012954:	2001553c 	.word	0x2001553c

20012958 <get_xmit_next_ptr>:
20012958:	e92d4800 	push	{fp, lr}
2001295c:	e28db004 	add	fp, sp, #4
20012960:	e24dd008 	sub	sp, sp, #8
20012964:	ebffff87 	bl	20012788 <xmit_available>
20012968:	e1a03000 	mov	r3, r0
2001296c:	e3530000 	cmp	r3, #0
20012970:	0a00000d 	beq	200129ac <get_xmit_next_ptr+0x54>
20012974:	e59f304c 	ldr	r3, [pc, #76]	; 200129c8 <get_xmit_next_ptr+0x70>
20012978:	e5933000 	ldr	r3, [r3]
2001297c:	e2833001 	add	r3, r3, #1
20012980:	e50b300c 	str	r3, [fp, #-12]
20012984:	e51b300c 	ldr	r3, [fp, #-12]
20012988:	e3530013 	cmp	r3, #19
2001298c:	da000001 	ble	20012998 <get_xmit_next_ptr+0x40>
20012990:	e3a03000 	mov	r3, #0
20012994:	e50b300c 	str	r3, [fp, #-12]
20012998:	e59f202c 	ldr	r2, [pc, #44]	; 200129cc <get_xmit_next_ptr+0x74>
2001299c:	e51b300c 	ldr	r3, [fp, #-12]
200129a0:	e7923103 	ldr	r3, [r2, r3, lsl #2]
200129a4:	e50b3008 	str	r3, [fp, #-8]
200129a8:	ea000001 	b	200129b4 <get_xmit_next_ptr+0x5c>
200129ac:	e3a03000 	mov	r3, #0
200129b0:	e50b3008 	str	r3, [fp, #-8]
200129b4:	e51b3008 	ldr	r3, [fp, #-8]
200129b8:	e1a00003 	mov	r0, r3
200129bc:	e24bd004 	sub	sp, fp, #4
200129c0:	e8bd4800 	pop	{fp, lr}
200129c4:	e12fff1e 	bx	lr
200129c8:	2001553c 	.word	0x2001553c
200129cc:	200154e4 	.word	0x200154e4

200129d0 <get_xmit_buffer>:
200129d0:	e92d4800 	push	{fp, lr}
200129d4:	e28db004 	add	fp, sp, #4
200129d8:	e24dd008 	sub	sp, sp, #8
200129dc:	ebffff69 	bl	20012788 <xmit_available>
200129e0:	e1a03000 	mov	r3, r0
200129e4:	e3530000 	cmp	r3, #0
200129e8:	0a000011 	beq	20012a34 <get_xmit_buffer+0x64>
200129ec:	e59f305c 	ldr	r3, [pc, #92]	; 20012a50 <get_xmit_buffer+0x80>
200129f0:	e5933000 	ldr	r3, [r3]
200129f4:	e2833001 	add	r3, r3, #1
200129f8:	e59f2050 	ldr	r2, [pc, #80]	; 20012a50 <get_xmit_buffer+0x80>
200129fc:	e5823000 	str	r3, [r2]
20012a00:	e59f3048 	ldr	r3, [pc, #72]	; 20012a50 <get_xmit_buffer+0x80>
20012a04:	e5933000 	ldr	r3, [r3]
20012a08:	e3530013 	cmp	r3, #19
20012a0c:	da000002 	ble	20012a1c <get_xmit_buffer+0x4c>
20012a10:	e59f3038 	ldr	r3, [pc, #56]	; 20012a50 <get_xmit_buffer+0x80>
20012a14:	e3a02000 	mov	r2, #0
20012a18:	e5832000 	str	r2, [r3]
20012a1c:	e59f302c 	ldr	r3, [pc, #44]	; 20012a50 <get_xmit_buffer+0x80>
20012a20:	e5933000 	ldr	r3, [r3]
20012a24:	e59f2028 	ldr	r2, [pc, #40]	; 20012a54 <get_xmit_buffer+0x84>
20012a28:	e7923103 	ldr	r3, [r2, r3, lsl #2]
20012a2c:	e50b3008 	str	r3, [fp, #-8]
20012a30:	ea000001 	b	20012a3c <get_xmit_buffer+0x6c>
20012a34:	e3a03000 	mov	r3, #0
20012a38:	e50b3008 	str	r3, [fp, #-8]
20012a3c:	e51b3008 	ldr	r3, [fp, #-8]
20012a40:	e1a00003 	mov	r0, r3
20012a44:	e24bd004 	sub	sp, fp, #4
20012a48:	e8bd4800 	pop	{fp, lr}
20012a4c:	e12fff1e 	bx	lr
20012a50:	2001553c 	.word	0x2001553c
20012a54:	200154e4 	.word	0x200154e4

20012a58 <tx_available>:
20012a58:	e52db004 	push	{fp}		; (str fp, [sp, #-4]!)
20012a5c:	e28db000 	add	fp, sp, #0
20012a60:	e24dd00c 	sub	sp, sp, #12
20012a64:	e59f304c 	ldr	r3, [pc, #76]	; 20012ab8 <tx_available+0x60>
20012a68:	e5932000 	ldr	r2, [r3]
20012a6c:	e59f3048 	ldr	r3, [pc, #72]	; 20012abc <tx_available+0x64>
20012a70:	e5933000 	ldr	r3, [r3]
20012a74:	e0633002 	rsb	r3, r3, r2
20012a78:	e50b3008 	str	r3, [fp, #-8]
20012a7c:	e51b3008 	ldr	r3, [fp, #-8]
20012a80:	e3530000 	cmp	r3, #0
20012a84:	aa000002 	bge	20012a94 <tx_available+0x3c>
20012a88:	e51b3008 	ldr	r3, [fp, #-8]
20012a8c:	e2833014 	add	r3, r3, #20
20012a90:	e50b3008 	str	r3, [fp, #-8]
20012a94:	e51b3008 	ldr	r3, [fp, #-8]
20012a98:	e3530001 	cmp	r3, #1
20012a9c:	c3a03001 	movgt	r3, #1
20012aa0:	d3a03000 	movle	r3, #0
20012aa4:	e20330ff 	and	r3, r3, #255	; 0xff
20012aa8:	e1a00003 	mov	r0, r3
20012aac:	e24bd000 	sub	sp, fp, #0
20012ab0:	e49db004 	pop	{fp}		; (ldr fp, [sp], #4)
20012ab4:	e12fff1e 	bx	lr
20012ab8:	20015598 	.word	0x20015598
20012abc:	20015594 	.word	0x20015594

20012ac0 <rcv_available>:
20012ac0:	e52db004 	push	{fp}		; (str fp, [sp, #-4]!)
20012ac4:	e28db000 	add	fp, sp, #0
20012ac8:	e24dd00c 	sub	sp, sp, #12
20012acc:	e59f3048 	ldr	r3, [pc, #72]	; 20012b1c <rcv_available+0x5c>
20012ad0:	e5933000 	ldr	r3, [r3]
20012ad4:	e2833001 	add	r3, r3, #1
20012ad8:	e50b3008 	str	r3, [fp, #-8]
20012adc:	e51b3008 	ldr	r3, [fp, #-8]
20012ae0:	e3530013 	cmp	r3, #19
20012ae4:	da000001 	ble	20012af0 <rcv_available+0x30>
20012ae8:	e3a03000 	mov	r3, #0
20012aec:	e50b3008 	str	r3, [fp, #-8]
20012af0:	e59f3028 	ldr	r3, [pc, #40]	; 20012b20 <rcv_available+0x60>
20012af4:	e5933000 	ldr	r3, [r3]
20012af8:	e51b2008 	ldr	r2, [fp, #-8]
20012afc:	e1520003 	cmp	r2, r3
20012b00:	13a03001 	movne	r3, #1
20012b04:	03a03000 	moveq	r3, #0
20012b08:	e20330ff 	and	r3, r3, #255	; 0xff
20012b0c:	e1a00003 	mov	r0, r3
20012b10:	e24bd000 	sub	sp, fp, #0
20012b14:	e49db004 	pop	{fp}		; (ldr fp, [sp], #4)
20012b18:	e12fff1e 	bx	lr
20012b1c:	20015598 	.word	0x20015598
20012b20:	20015590 	.word	0x20015590

20012b24 <get_tx_next_ptr>:
20012b24:	e92d4800 	push	{fp, lr}
20012b28:	e28db004 	add	fp, sp, #4
20012b2c:	e24dd008 	sub	sp, sp, #8
20012b30:	ebffffc8 	bl	20012a58 <tx_available>
20012b34:	e1a03000 	mov	r3, r0
20012b38:	e3530000 	cmp	r3, #0
20012b3c:	0a00000d 	beq	20012b78 <get_tx_next_ptr+0x54>
20012b40:	e59f304c 	ldr	r3, [pc, #76]	; 20012b94 <get_tx_next_ptr+0x70>
20012b44:	e5933000 	ldr	r3, [r3]
20012b48:	e2833001 	add	r3, r3, #1
20012b4c:	e50b300c 	str	r3, [fp, #-12]
20012b50:	e51b300c 	ldr	r3, [fp, #-12]
20012b54:	e3530013 	cmp	r3, #19
20012b58:	da000001 	ble	20012b64 <get_tx_next_ptr+0x40>
20012b5c:	e3a03000 	mov	r3, #0
20012b60:	e50b300c 	str	r3, [fp, #-12]
20012b64:	e59f202c 	ldr	r2, [pc, #44]	; 20012b98 <get_tx_next_ptr+0x74>
20012b68:	e51b300c 	ldr	r3, [fp, #-12]
20012b6c:	e7923103 	ldr	r3, [r2, r3, lsl #2]
20012b70:	e50b3008 	str	r3, [fp, #-8]
20012b74:	ea000001 	b	20012b80 <get_tx_next_ptr+0x5c>
20012b78:	e3a03000 	mov	r3, #0
20012b7c:	e50b3008 	str	r3, [fp, #-8]
20012b80:	e51b3008 	ldr	r3, [fp, #-8]
20012b84:	e1a00003 	mov	r0, r3
20012b88:	e24bd004 	sub	sp, fp, #4
20012b8c:	e8bd4800 	pop	{fp, lr}
20012b90:	e12fff1e 	bx	lr
20012b94:	20015594 	.word	0x20015594
20012b98:	20015540 	.word	0x20015540

20012b9c <get_tx_buffer>:
20012b9c:	e92d4800 	push	{fp, lr}
20012ba0:	e28db004 	add	fp, sp, #4
20012ba4:	e24dd008 	sub	sp, sp, #8
20012ba8:	ebffffaa 	bl	20012a58 <tx_available>
20012bac:	e1a03000 	mov	r3, r0
20012bb0:	e3530000 	cmp	r3, #0
20012bb4:	0a00001d 	beq	20012c30 <get_tx_buffer+0x94>
20012bb8:	e59f308c 	ldr	r3, [pc, #140]	; 20012c4c <get_tx_buffer+0xb0>
20012bbc:	e5933000 	ldr	r3, [r3]
20012bc0:	e2833001 	add	r3, r3, #1
20012bc4:	e59f2080 	ldr	r2, [pc, #128]	; 20012c4c <get_tx_buffer+0xb0>
20012bc8:	e5823000 	str	r3, [r2]
20012bcc:	e59f3078 	ldr	r3, [pc, #120]	; 20012c4c <get_tx_buffer+0xb0>
20012bd0:	e5933000 	ldr	r3, [r3]
20012bd4:	e3530013 	cmp	r3, #19
20012bd8:	da000002 	ble	20012be8 <get_tx_buffer+0x4c>
20012bdc:	e59f3068 	ldr	r3, [pc, #104]	; 20012c4c <get_tx_buffer+0xb0>
20012be0:	e3a02000 	mov	r2, #0
20012be4:	e5832000 	str	r2, [r3]
20012be8:	e59f305c 	ldr	r3, [pc, #92]	; 20012c4c <get_tx_buffer+0xb0>
20012bec:	e5933000 	ldr	r3, [r3]
20012bf0:	e59f2058 	ldr	r2, [pc, #88]	; 20012c50 <get_tx_buffer+0xb4>
20012bf4:	e7923103 	ldr	r3, [r2, r3, lsl #2]
20012bf8:	e50b3008 	str	r3, [fp, #-8]
20012bfc:	e59f3050 	ldr	r3, [pc, #80]	; 20012c54 <get_tx_buffer+0xb8>
20012c00:	e5933000 	ldr	r3, [r3]
20012c04:	e2833001 	add	r3, r3, #1
20012c08:	e59f2044 	ldr	r2, [pc, #68]	; 20012c54 <get_tx_buffer+0xb8>
20012c0c:	e5823000 	str	r3, [r2]
20012c10:	e59f303c 	ldr	r3, [pc, #60]	; 20012c54 <get_tx_buffer+0xb8>
20012c14:	e5933000 	ldr	r3, [r3]
20012c18:	e3530013 	cmp	r3, #19
20012c1c:	da000005 	ble	20012c38 <get_tx_buffer+0x9c>
20012c20:	e59f302c 	ldr	r3, [pc, #44]	; 20012c54 <get_tx_buffer+0xb8>
20012c24:	e3a02000 	mov	r2, #0
20012c28:	e5832000 	str	r2, [r3]
20012c2c:	ea000001 	b	20012c38 <get_tx_buffer+0x9c>
20012c30:	e3a03000 	mov	r3, #0
20012c34:	e50b3008 	str	r3, [fp, #-8]
20012c38:	e51b3008 	ldr	r3, [fp, #-8]
20012c3c:	e1a00003 	mov	r0, r3
20012c40:	e24bd004 	sub	sp, fp, #4
20012c44:	e8bd4800 	pop	{fp, lr}
20012c48:	e12fff1e 	bx	lr
20012c4c:	20015594 	.word	0x20015594
20012c50:	20015540 	.word	0x20015540
20012c54:	20015590 	.word	0x20015590

20012c58 <get_rcv_next_ptr>:
20012c58:	e92d4800 	push	{fp, lr}
20012c5c:	e28db004 	add	fp, sp, #4
20012c60:	e24dd008 	sub	sp, sp, #8
20012c64:	ebffff95 	bl	20012ac0 <rcv_available>
20012c68:	e1a03000 	mov	r3, r0
20012c6c:	e3530000 	cmp	r3, #0
20012c70:	0a00000d 	beq	20012cac <get_rcv_next_ptr+0x54>
20012c74:	e59f304c 	ldr	r3, [pc, #76]	; 20012cc8 <get_rcv_next_ptr+0x70>
20012c78:	e5933000 	ldr	r3, [r3]
20012c7c:	e2833001 	add	r3, r3, #1
20012c80:	e50b300c 	str	r3, [fp, #-12]
20012c84:	e51b300c 	ldr	r3, [fp, #-12]
20012c88:	e3530013 	cmp	r3, #19
20012c8c:	da000001 	ble	20012c98 <get_rcv_next_ptr+0x40>
20012c90:	e3a03000 	mov	r3, #0
20012c94:	e50b300c 	str	r3, [fp, #-12]
20012c98:	e59f202c 	ldr	r2, [pc, #44]	; 20012ccc <get_rcv_next_ptr+0x74>
20012c9c:	e51b300c 	ldr	r3, [fp, #-12]
20012ca0:	e7923103 	ldr	r3, [r2, r3, lsl #2]
20012ca4:	e50b3008 	str	r3, [fp, #-8]
20012ca8:	ea000001 	b	20012cb4 <get_rcv_next_ptr+0x5c>
20012cac:	e3a03000 	mov	r3, #0
20012cb0:	e50b3008 	str	r3, [fp, #-8]
20012cb4:	e51b3008 	ldr	r3, [fp, #-8]
20012cb8:	e1a00003 	mov	r0, r3
20012cbc:	e24bd004 	sub	sp, fp, #4
20012cc0:	e8bd4800 	pop	{fp, lr}
20012cc4:	e12fff1e 	bx	lr
20012cc8:	20015598 	.word	0x20015598
20012ccc:	20015540 	.word	0x20015540

20012cd0 <get_rcv_buffer>:
20012cd0:	e92d4800 	push	{fp, lr}
20012cd4:	e28db004 	add	fp, sp, #4
20012cd8:	e24dd008 	sub	sp, sp, #8
20012cdc:	ebffff77 	bl	20012ac0 <rcv_available>
20012ce0:	e1a03000 	mov	r3, r0
20012ce4:	e3530000 	cmp	r3, #0
20012ce8:	0a000011 	beq	20012d34 <get_rcv_buffer+0x64>
20012cec:	e59f305c 	ldr	r3, [pc, #92]	; 20012d50 <get_rcv_buffer+0x80>
20012cf0:	e5933000 	ldr	r3, [r3]
20012cf4:	e2833001 	add	r3, r3, #1
20012cf8:	e59f2050 	ldr	r2, [pc, #80]	; 20012d50 <get_rcv_buffer+0x80>
20012cfc:	e5823000 	str	r3, [r2]
20012d00:	e59f3048 	ldr	r3, [pc, #72]	; 20012d50 <get_rcv_buffer+0x80>
20012d04:	e5933000 	ldr	r3, [r3]
20012d08:	e3530013 	cmp	r3, #19
20012d0c:	da000002 	ble	20012d1c <get_rcv_buffer+0x4c>
20012d10:	e59f3038 	ldr	r3, [pc, #56]	; 20012d50 <get_rcv_buffer+0x80>
20012d14:	e3a02000 	mov	r2, #0
20012d18:	e5832000 	str	r2, [r3]
20012d1c:	e59f302c 	ldr	r3, [pc, #44]	; 20012d50 <get_rcv_buffer+0x80>
20012d20:	e5933000 	ldr	r3, [r3]
20012d24:	e59f2028 	ldr	r2, [pc, #40]	; 20012d54 <get_rcv_buffer+0x84>
20012d28:	e7923103 	ldr	r3, [r2, r3, lsl #2]
20012d2c:	e50b3008 	str	r3, [fp, #-8]
20012d30:	ea000001 	b	20012d3c <get_rcv_buffer+0x6c>
20012d34:	e3a03000 	mov	r3, #0
20012d38:	e50b3008 	str	r3, [fp, #-8]
20012d3c:	e51b3008 	ldr	r3, [fp, #-8]
20012d40:	e1a00003 	mov	r0, r3
20012d44:	e24bd004 	sub	sp, fp, #4
20012d48:	e8bd4800 	pop	{fp, lr}
20012d4c:	e12fff1e 	bx	lr
20012d50:	20015598 	.word	0x20015598
20012d54:	20015540 	.word	0x20015540

20012d58 <process_error>:
20012d58:	e52db004 	push	{fp}		; (str fp, [sp, #-4]!)
20012d5c:	e28db000 	add	fp, sp, #0
20012d60:	e24dd00c 	sub	sp, sp, #12
20012d64:	e1a03000 	mov	r3, r0
20012d68:	e54b3005 	strb	r3, [fp, #-5]
20012d6c:	e1a00000 	nop			; (mov r0, r0)
20012d70:	e24bd000 	sub	sp, fp, #0
20012d74:	e49db004 	pop	{fp}		; (ldr fp, [sp], #4)
20012d78:	e12fff1e 	bx	lr

20012d7c <main>:
20012d7c:	e92d4800 	push	{fp, lr}
20012d80:	e28db004 	add	fp, sp, #4
20012d84:	e24dd008 	sub	sp, sp, #8
20012d88:	e3a03000 	mov	r3, #0
20012d8c:	e54b3009 	strb	r3, [fp, #-9]
20012d90:	e3a03000 	mov	r3, #0
20012d94:	e54b300a 	strb	r3, [fp, #-10]
20012d98:	ebfffe10 	bl	200125e0 <init_buffers>
20012d9c:	eb0000a2 	bl	2001302c <init_memory>
20012da0:	ebfffaac 	bl	20011858 <tcp_connection_init>
20012da4:	ebfffd26 	bl	20012244 <init_networking>
20012da8:	ebfffa55 	bl	20011704 <elapsed_time>
20012dac:	e3a03000 	mov	r3, #0
20012db0:	e50b3008 	str	r3, [fp, #-8]
20012db4:	e55b3009 	ldrb	r3, [fp, #-9]
20012db8:	e59f219c 	ldr	r2, [pc, #412]	; 20012f5c <main+0x1e0>
20012dbc:	e7923103 	ldr	r3, [r2, r3, lsl #2]
20012dc0:	e1a00003 	mov	r0, r3
20012dc4:	ebfffa38 	bl	200116ac <display_status>
20012dc8:	e55b3009 	ldrb	r3, [fp, #-9]
20012dcc:	e3530000 	cmp	r3, #0
20012dd0:	1a00000a 	bne	20012e00 <main+0x84>
20012dd4:	ebfff688 	bl	200107fc <incoming_call>
20012dd8:	e1a03000 	mov	r3, r0
20012ddc:	e3530000 	cmp	r3, #0
20012de0:	0a000006 	beq	20012e00 <main+0x84>
20012de4:	e3a03002 	mov	r3, #2
20012de8:	e54b3009 	strb	r3, [fp, #-9]
20012dec:	ebfff63f 	bl	200106f0 <get_calling_IP>
20012df0:	e1a03000 	mov	r3, r0
20012df4:	e1a00003 	mov	r0, r3
20012df8:	ebfffa1b 	bl	2001166c <display_IP>
20012dfc:	ea000018 	b	20012e64 <main+0xe8>
20012e00:	e55b3009 	ldrb	r3, [fp, #-9]
20012e04:	e3530002 	cmp	r3, #2
20012e08:	1a000006 	bne	20012e28 <main+0xac>
20012e0c:	ebfff67a 	bl	200107fc <incoming_call>
20012e10:	e1a03000 	mov	r3, r0
20012e14:	e3530000 	cmp	r3, #0
20012e18:	1a000002 	bne	20012e28 <main+0xac>
20012e1c:	e3a03000 	mov	r3, #0
20012e20:	e54b3009 	strb	r3, [fp, #-9]
20012e24:	ea00000e 	b	20012e64 <main+0xe8>
20012e28:	e55b3009 	ldrb	r3, [fp, #-9]
20012e2c:	e3530003 	cmp	r3, #3
20012e30:	1a000007 	bne	20012e54 <main+0xd8>
20012e34:	ebfff678 	bl	2001081c <call_connected>
20012e38:	e1a03000 	mov	r3, r0
20012e3c:	e3530000 	cmp	r3, #0
20012e40:	0a000003 	beq	20012e54 <main+0xd8>
20012e44:	e3a03004 	mov	r3, #4
20012e48:	e54b3009 	strb	r3, [fp, #-9]
20012e4c:	ebfff689 	bl	20010878 <start_call>
20012e50:	ea000003 	b	20012e64 <main+0xe8>
20012e54:	e55b3009 	ldrb	r3, [fp, #-9]
20012e58:	e3530004 	cmp	r3, #4
20012e5c:	1a000000 	bne	20012e64 <main+0xe8>
20012e60:	ebfff6a9 	bl	2001090c <process_call>
20012e64:	ebfff9f2 	bl	20011634 <key_available>
20012e68:	e1a03000 	mov	r3, r0
20012e6c:	e3530000 	cmp	r3, #0
20012e70:	0a00001c 	beq	20012ee8 <main+0x16c>
20012e74:	e55b3009 	ldrb	r3, [fp, #-9]
20012e78:	e59f20e0 	ldr	r2, [pc, #224]	; 20012f60 <main+0x1e4>
20012e7c:	e7923103 	ldr	r3, [r2, r3, lsl #2]
20012e80:	e1a00003 	mov	r0, r3
20012e84:	eb000039 	bl	20012f70 <key_lookup>
20012e88:	e1a03000 	mov	r3, r0
20012e8c:	e54b300b 	strb	r3, [fp, #-11]
20012e90:	e55b300b 	ldrb	r3, [fp, #-11]
20012e94:	e59f20c8 	ldr	r2, [pc, #200]	; 20012f64 <main+0x1e8>
20012e98:	e7d23003 	ldrb	r3, [r2, r3]
20012e9c:	e1a02003 	mov	r2, r3
20012ea0:	e55b1009 	ldrb	r1, [fp, #-9]
20012ea4:	e59f00bc 	ldr	r0, [pc, #188]	; 20012f68 <main+0x1ec>
20012ea8:	e1a03002 	mov	r3, r2
20012eac:	e1a03103 	lsl	r3, r3, #2
20012eb0:	e0833002 	add	r3, r3, r2
20012eb4:	e1a03083 	lsl	r3, r3, #1
20012eb8:	e0833002 	add	r3, r3, r2
20012ebc:	e0833001 	add	r3, r3, r1
20012ec0:	e7903103 	ldr	r3, [r0, r3, lsl #2]
20012ec4:	e55b200b 	ldrb	r2, [fp, #-11]
20012ec8:	e59f109c 	ldr	r1, [pc, #156]	; 20012f6c <main+0x1f0>
20012ecc:	e7911102 	ldr	r1, [r1, r2, lsl #2]
20012ed0:	e55b2009 	ldrb	r2, [fp, #-9]
20012ed4:	e1a00002 	mov	r0, r2
20012ed8:	e1a0e00f 	mov	lr, pc
20012edc:	e12fff13 	bx	r3
20012ee0:	e1a03000 	mov	r3, r0
20012ee4:	e54b3009 	strb	r3, [fp, #-9]
20012ee8:	e55b2009 	ldrb	r2, [fp, #-9]
20012eec:	e55b300a 	ldrb	r3, [fp, #-10]
20012ef0:	e1520003 	cmp	r2, r3
20012ef4:	0a000004 	beq	20012f0c <main+0x190>
20012ef8:	e55b3009 	ldrb	r3, [fp, #-9]
20012efc:	e59f2058 	ldr	r2, [pc, #88]	; 20012f5c <main+0x1e0>
20012f00:	e7923103 	ldr	r3, [r2, r3, lsl #2]
20012f04:	e1a00003 	mov	r0, r3
20012f08:	ebfff9e7 	bl	200116ac <display_status>
20012f0c:	e55b3009 	ldrb	r3, [fp, #-9]
20012f10:	e54b300a 	strb	r3, [fp, #-10]
20012f14:	ebfff9fa 	bl	20011704 <elapsed_time>
20012f18:	e1a02000 	mov	r2, r0
20012f1c:	e51b3008 	ldr	r3, [fp, #-8]
20012f20:	e0833002 	add	r3, r3, r2
20012f24:	e50b3008 	str	r3, [fp, #-8]
20012f28:	e51b3008 	ldr	r3, [fp, #-8]
20012f2c:	e35300f9 	cmp	r3, #249	; 0xf9
20012f30:	da000003 	ble	20012f44 <main+0x1c8>
20012f34:	ebffbed8 	bl	20002a9c <tcp_tmr>
20012f38:	e51b3008 	ldr	r3, [fp, #-8]
20012f3c:	e24330fa 	sub	r3, r3, #250	; 0xfa
20012f40:	e50b3008 	str	r3, [fp, #-8]
20012f44:	ebfffa05 	bl	20011760 <ether_rx_available>
20012f48:	e1a03000 	mov	r3, r0
20012f4c:	e3530000 	cmp	r3, #0
20012f50:	0affff9c 	beq	20012dc8 <main+0x4c>
20012f54:	ebfffd28 	bl	200123fc <ethernetif_input>
20012f58:	eaffff9a 	b	20012dc8 <main+0x4c>
20012f5c:	20013828 	.word	0x20013828
20012f60:	20013854 	.word	0x20013854
20012f64:	20013880 	.word	0x20013880
20012f68:	20013898 	.word	0x20013898
20012f6c:	20013aa8 	.word	0x20013aa8

20012f70 <key_lookup>:
20012f70:	e92d4800 	push	{fp, lr}
20012f74:	e28db004 	add	fp, sp, #4
20012f78:	e24dd018 	sub	sp, sp, #24
20012f7c:	e50b0018 	str	r0, [fp, #-24]	; 0xffffffe8
20012f80:	e51b3018 	ldr	r3, [fp, #-24]	; 0xffffffe8
20012f84:	e3530000 	cmp	r3, #0
20012f88:	0a000004 	beq	20012fa0 <key_lookup+0x30>
20012f8c:	e59f3088 	ldr	r3, [pc, #136]	; 2001301c <key_lookup+0xac>
20012f90:	e50b3008 	str	r3, [fp, #-8]
20012f94:	e59f3084 	ldr	r3, [pc, #132]	; 20013020 <key_lookup+0xb0>
20012f98:	e50b300c 	str	r3, [fp, #-12]
20012f9c:	ea000003 	b	20012fb0 <key_lookup+0x40>
20012fa0:	e59f307c 	ldr	r3, [pc, #124]	; 20013024 <key_lookup+0xb4>
20012fa4:	e50b3008 	str	r3, [fp, #-8]
20012fa8:	e59f3078 	ldr	r3, [pc, #120]	; 20013028 <key_lookup+0xb8>
20012fac:	e50b300c 	str	r3, [fp, #-12]
20012fb0:	ebfff9a6 	bl	20011650 <getkey>
20012fb4:	e50b0014 	str	r0, [fp, #-20]	; 0xffffffec
20012fb8:	e3a03000 	mov	r3, #0
20012fbc:	e50b3010 	str	r3, [fp, #-16]
20012fc0:	ea000002 	b	20012fd0 <key_lookup+0x60>
20012fc4:	e51b3010 	ldr	r3, [fp, #-16]
20012fc8:	e2833001 	add	r3, r3, #1
20012fcc:	e50b3010 	str	r3, [fp, #-16]
20012fd0:	e51b3010 	ldr	r3, [fp, #-16]
20012fd4:	e3530013 	cmp	r3, #19
20012fd8:	8a000007 	bhi	20012ffc <key_lookup+0x8c>
20012fdc:	e51b3010 	ldr	r3, [fp, #-16]
20012fe0:	e1a03103 	lsl	r3, r3, #2
20012fe4:	e51b200c 	ldr	r2, [fp, #-12]
20012fe8:	e0823003 	add	r3, r2, r3
20012fec:	e5932000 	ldr	r2, [r3]
20012ff0:	e51b3014 	ldr	r3, [fp, #-20]	; 0xffffffec
20012ff4:	e1520003 	cmp	r2, r3
20012ff8:	1afffff1 	bne	20012fc4 <key_lookup+0x54>
20012ffc:	e51b3010 	ldr	r3, [fp, #-16]
20013000:	e51b2008 	ldr	r2, [fp, #-8]
20013004:	e0823003 	add	r3, r2, r3
20013008:	e5d33000 	ldrb	r3, [r3]
2001300c:	e1a00003 	mov	r0, r3
20013010:	e24bd004 	sub	sp, fp, #4
20013014:	e8bd4800 	pop	{fp, lr}
20013018:	e12fff1e 	bx	lr
2001301c:	20013afc 	.word	0x20013afc
20013020:	20013b14 	.word	0x20013b14
20013024:	20013b64 	.word	0x20013b64
20013028:	20013b7c 	.word	0x20013b7c

2001302c <init_memory>:
2001302c:	e52db004 	push	{fp}		; (str fp, [sp, #-4]!)
20013030:	e28db000 	add	fp, sp, #0
20013034:	e24dd00c 	sub	sp, sp, #12
20013038:	e59f3060 	ldr	r3, [pc, #96]	; 200130a0 <init_memory+0x74>
2001303c:	e5933000 	ldr	r3, [r3]
20013040:	e59f205c 	ldr	r2, [pc, #92]	; 200130a4 <init_memory+0x78>
20013044:	e1530002 	cmp	r3, r2
20013048:	0a000010 	beq	20013090 <init_memory+0x64>
2001304c:	e59f304c 	ldr	r3, [pc, #76]	; 200130a0 <init_memory+0x74>
20013050:	e59f204c 	ldr	r2, [pc, #76]	; 200130a4 <init_memory+0x78>
20013054:	e5832000 	str	r2, [r3]
20013058:	e3a03001 	mov	r3, #1
2001305c:	e50b3008 	str	r3, [fp, #-8]
20013060:	ea000006 	b	20013080 <init_memory+0x54>
20013064:	e59f2034 	ldr	r2, [pc, #52]	; 200130a0 <init_memory+0x74>
20013068:	e51b3008 	ldr	r3, [fp, #-8]
2001306c:	e3a01000 	mov	r1, #0
20013070:	e7821103 	str	r1, [r2, r3, lsl #2]
20013074:	e51b3008 	ldr	r3, [fp, #-8]
20013078:	e2833001 	add	r3, r3, #1
2001307c:	e50b3008 	str	r3, [fp, #-8]
20013080:	e51b3008 	ldr	r3, [fp, #-8]
20013084:	e3530020 	cmp	r3, #32
20013088:	dafffff5 	ble	20013064 <init_memory+0x38>
2001308c:	e1a00000 	nop			; (mov r0, r0)
20013090:	e1a00000 	nop			; (mov r0, r0)
20013094:	e24bd000 	sub	sp, fp, #0
20013098:	e49db004 	pop	{fp}		; (ldr fp, [sp], #4)
2001309c:	e12fff1e 	bx	lr
200130a0:	200155a0 	.word	0x200155a0
200130a4:	00ff55aa 	.word	0x00ff55aa

200130a8 <start_memLoc>:
200130a8:	e92d4800 	push	{fp, lr}
200130ac:	e28db004 	add	fp, sp, #4
200130b0:	e24dd008 	sub	sp, sp, #8
200130b4:	e1a03000 	mov	r3, r0
200130b8:	e50b100c 	str	r1, [fp, #-12]
200130bc:	e54b3005 	strb	r3, [fp, #-5]
200130c0:	e59f3070 	ldr	r3, [pc, #112]	; 20013138 <start_memLoc+0x90>
200130c4:	e3a02000 	mov	r2, #0
200130c8:	e5832000 	str	r2, [r3]
200130cc:	e59f3064 	ldr	r3, [pc, #100]	; 20013138 <start_memLoc+0x90>
200130d0:	e5933000 	ldr	r3, [r3]
200130d4:	e1a00003 	mov	r0, r3
200130d8:	ebfff96b 	bl	2001168c <display_memory_addr>
200130dc:	e59f2058 	ldr	r2, [pc, #88]	; 2001313c <start_memLoc+0x94>
200130e0:	e55b3005 	ldrb	r3, [fp, #-5]
200130e4:	e5c23000 	strb	r3, [r2]
200130e8:	e51b300c 	ldr	r3, [fp, #-12]
200130ec:	e3530012 	cmp	r3, #18
200130f0:	0a000002 	beq	20013100 <start_memLoc+0x58>
200130f4:	e3530013 	cmp	r3, #19
200130f8:	0a000003 	beq	2001310c <start_memLoc+0x64>
200130fc:	ea000005 	b	20013118 <start_memLoc+0x70>
20013100:	e3a03008 	mov	r3, #8
20013104:	e54b3005 	strb	r3, [fp, #-5]
20013108:	ea000005 	b	20013124 <start_memLoc+0x7c>
2001310c:	e3a03009 	mov	r3, #9
20013110:	e54b3005 	strb	r3, [fp, #-5]
20013114:	ea000002 	b	20013124 <start_memLoc+0x7c>
20013118:	e3a00000 	mov	r0, #0
2001311c:	ebffff0d 	bl	20012d58 <process_error>
20013120:	e1a00000 	nop			; (mov r0, r0)
20013124:	e55b3005 	ldrb	r3, [fp, #-5]
20013128:	e1a00003 	mov	r0, r3
2001312c:	e24bd004 	sub	sp, fp, #4
20013130:	e8bd4800 	pop	{fp, lr}
20013134:	e12fff1e 	bx	lr
20013138:	2001559c 	.word	0x2001559c
2001313c:	20015624 	.word	0x20015624

20013140 <clear_memLoc>:
20013140:	e92d4800 	push	{fp, lr}
20013144:	e28db004 	add	fp, sp, #4
20013148:	e24dd008 	sub	sp, sp, #8
2001314c:	e1a03000 	mov	r3, r0
20013150:	e50b100c 	str	r1, [fp, #-12]
20013154:	e54b3005 	strb	r3, [fp, #-5]
20013158:	e59f3028 	ldr	r3, [pc, #40]	; 20013188 <clear_memLoc+0x48>
2001315c:	e3a02000 	mov	r2, #0
20013160:	e5832000 	str	r2, [r3]
20013164:	e59f301c 	ldr	r3, [pc, #28]	; 20013188 <clear_memLoc+0x48>
20013168:	e5933000 	ldr	r3, [r3]
2001316c:	e1a00003 	mov	r0, r3
20013170:	ebfff945 	bl	2001168c <display_memory_addr>
20013174:	e55b3005 	ldrb	r3, [fp, #-5]
20013178:	e1a00003 	mov	r0, r3
2001317c:	e24bd004 	sub	sp, fp, #4
20013180:	e8bd4800 	pop	{fp, lr}
20013184:	e12fff1e 	bx	lr
20013188:	2001559c 	.word	0x2001559c

2001318c <add_memDigit>:
2001318c:	e92d4800 	push	{fp, lr}
20013190:	e28db004 	add	fp, sp, #4
20013194:	e24dd008 	sub	sp, sp, #8
20013198:	e1a03000 	mov	r3, r0
2001319c:	e50b100c 	str	r1, [fp, #-12]
200131a0:	e54b3005 	strb	r3, [fp, #-5]
200131a4:	e59f3080 	ldr	r3, [pc, #128]	; 2001322c <add_memDigit+0xa0>
200131a8:	e5932000 	ldr	r2, [r3]
200131ac:	e1a03002 	mov	r3, r2
200131b0:	e1a03103 	lsl	r3, r3, #2
200131b4:	e0833002 	add	r3, r3, r2
200131b8:	e1a03083 	lsl	r3, r3, #1
200131bc:	e1a02003 	mov	r2, r3
200131c0:	e51b300c 	ldr	r3, [fp, #-12]
200131c4:	e0823003 	add	r3, r2, r3
200131c8:	e3530020 	cmp	r3, #32
200131cc:	8a00000b 	bhi	20013200 <add_memDigit+0x74>
200131d0:	e59f3054 	ldr	r3, [pc, #84]	; 2001322c <add_memDigit+0xa0>
200131d4:	e5932000 	ldr	r2, [r3]
200131d8:	e1a03002 	mov	r3, r2
200131dc:	e1a03103 	lsl	r3, r3, #2
200131e0:	e0833002 	add	r3, r3, r2
200131e4:	e1a03083 	lsl	r3, r3, #1
200131e8:	e1a02003 	mov	r2, r3
200131ec:	e51b300c 	ldr	r3, [fp, #-12]
200131f0:	e0823003 	add	r3, r2, r3
200131f4:	e59f2030 	ldr	r2, [pc, #48]	; 2001322c <add_memDigit+0xa0>
200131f8:	e5823000 	str	r3, [r2]
200131fc:	ea000001 	b	20013208 <add_memDigit+0x7c>
20013200:	e3a00003 	mov	r0, #3
20013204:	ebfffed3 	bl	20012d58 <process_error>
20013208:	e59f301c 	ldr	r3, [pc, #28]	; 2001322c <add_memDigit+0xa0>
2001320c:	e5933000 	ldr	r3, [r3]
20013210:	e1a00003 	mov	r0, r3
20013214:	ebfff91c 	bl	2001168c <display_memory_addr>
20013218:	e55b3005 	ldrb	r3, [fp, #-5]
2001321c:	e1a00003 	mov	r0, r3
20013220:	e24bd004 	sub	sp, fp, #4
20013224:	e8bd4800 	pop	{fp, lr}
20013228:	e12fff1e 	bx	lr
2001322c:	2001559c 	.word	0x2001559c

20013230 <del_memDigit>:
20013230:	e92d4800 	push	{fp, lr}
20013234:	e28db004 	add	fp, sp, #4
20013238:	e24dd008 	sub	sp, sp, #8
2001323c:	e1a03000 	mov	r3, r0
20013240:	e50b100c 	str	r1, [fp, #-12]
20013244:	e54b3005 	strb	r3, [fp, #-5]
20013248:	e59f3054 	ldr	r3, [pc, #84]	; 200132a4 <del_memDigit+0x74>
2001324c:	e5933000 	ldr	r3, [r3]
20013250:	e3530000 	cmp	r3, #0
20013254:	0a000007 	beq	20013278 <del_memDigit+0x48>
20013258:	e59f3044 	ldr	r3, [pc, #68]	; 200132a4 <del_memDigit+0x74>
2001325c:	e5933000 	ldr	r3, [r3]
20013260:	e59f2040 	ldr	r2, [pc, #64]	; 200132a8 <del_memDigit+0x78>
20013264:	e0831392 	umull	r1, r3, r2, r3
20013268:	e1a031a3 	lsr	r3, r3, #3
2001326c:	e59f2030 	ldr	r2, [pc, #48]	; 200132a4 <del_memDigit+0x74>
20013270:	e5823000 	str	r3, [r2]
20013274:	ea000001 	b	20013280 <del_memDigit+0x50>
20013278:	e3a00004 	mov	r0, #4
2001327c:	ebfffeb5 	bl	20012d58 <process_error>
20013280:	e59f301c 	ldr	r3, [pc, #28]	; 200132a4 <del_memDigit+0x74>
20013284:	e5933000 	ldr	r3, [r3]
20013288:	e1a00003 	mov	r0, r3
2001328c:	ebfff8fe 	bl	2001168c <display_memory_addr>
20013290:	e55b3005 	ldrb	r3, [fp, #-5]
20013294:	e1a00003 	mov	r0, r3
20013298:	e24bd004 	sub	sp, fp, #4
2001329c:	e8bd4800 	pop	{fp, lr}
200132a0:	e12fff1e 	bx	lr
200132a4:	2001559c 	.word	0x2001559c
200132a8:	cccccccd 	.word	0xcccccccd

200132ac <save_mem>:
200132ac:	e92d4810 	push	{r4, fp, lr}
200132b0:	e28db008 	add	fp, sp, #8
200132b4:	e24dd00c 	sub	sp, sp, #12
200132b8:	e1a03000 	mov	r3, r0
200132bc:	e50b1014 	str	r1, [fp, #-20]	; 0xffffffec
200132c0:	e54b300d 	strb	r3, [fp, #-13]
200132c4:	e59f306c 	ldr	r3, [pc, #108]	; 20013338 <save_mem+0x8c>
200132c8:	e5933000 	ldr	r3, [r3]
200132cc:	e3530000 	cmp	r3, #0
200132d0:	0a000011 	beq	2001331c <save_mem+0x70>
200132d4:	e59f305c 	ldr	r3, [pc, #92]	; 20013338 <save_mem+0x8c>
200132d8:	e5933000 	ldr	r3, [r3]
200132dc:	e3530020 	cmp	r3, #32
200132e0:	8a00000d 	bhi	2001331c <save_mem+0x70>
200132e4:	e59f304c 	ldr	r3, [pc, #76]	; 20013338 <save_mem+0x8c>
200132e8:	e5934000 	ldr	r4, [r3]
200132ec:	ebfff4ff 	bl	200106f0 <get_calling_IP>
200132f0:	e1a02000 	mov	r2, r0
200132f4:	e59f3040 	ldr	r3, [pc, #64]	; 2001333c <save_mem+0x90>
200132f8:	e7832104 	str	r2, [r3, r4, lsl #2]
200132fc:	e59f303c 	ldr	r3, [pc, #60]	; 20013340 <save_mem+0x94>
20013300:	e5d33000 	ldrb	r3, [r3]
20013304:	e54b300d 	strb	r3, [fp, #-13]
20013308:	ebfff4f8 	bl	200106f0 <get_calling_IP>
2001330c:	e1a03000 	mov	r3, r0
20013310:	e1a00003 	mov	r0, r3
20013314:	ebfff8d4 	bl	2001166c <display_IP>
20013318:	ea000001 	b	20013324 <save_mem+0x78>
2001331c:	e3a00005 	mov	r0, #5
20013320:	ebfffe8c 	bl	20012d58 <process_error>
20013324:	e55b300d 	ldrb	r3, [fp, #-13]
20013328:	e1a00003 	mov	r0, r3
2001332c:	e24bd008 	sub	sp, fp, #8
20013330:	e8bd4810 	pop	{r4, fp, lr}
20013334:	e12fff1e 	bx	lr
20013338:	2001559c 	.word	0x2001559c
2001333c:	200155a0 	.word	0x200155a0
20013340:	20015624 	.word	0x20015624

20013344 <recall_mem>:
20013344:	e92d4800 	push	{fp, lr}
20013348:	e28db004 	add	fp, sp, #4
2001334c:	e24dd008 	sub	sp, sp, #8
20013350:	e1a03000 	mov	r3, r0
20013354:	e50b100c 	str	r1, [fp, #-12]
20013358:	e54b3005 	strb	r3, [fp, #-5]
2001335c:	e59f308c 	ldr	r3, [pc, #140]	; 200133f0 <recall_mem+0xac>
20013360:	e5933000 	ldr	r3, [r3]
20013364:	e3530000 	cmp	r3, #0
20013368:	0a000019 	beq	200133d4 <recall_mem+0x90>
2001336c:	e59f307c 	ldr	r3, [pc, #124]	; 200133f0 <recall_mem+0xac>
20013370:	e5933000 	ldr	r3, [r3]
20013374:	e3530020 	cmp	r3, #32
20013378:	8a000015 	bhi	200133d4 <recall_mem+0x90>
2001337c:	e59f306c 	ldr	r3, [pc, #108]	; 200133f0 <recall_mem+0xac>
20013380:	e5933000 	ldr	r3, [r3]
20013384:	e59f2068 	ldr	r2, [pc, #104]	; 200133f4 <recall_mem+0xb0>
20013388:	e7923103 	ldr	r3, [r2, r3, lsl #2]
2001338c:	e1a00003 	mov	r0, r3
20013390:	ebfff4e7 	bl	20010734 <set_calling_IP>
20013394:	e59f3054 	ldr	r3, [pc, #84]	; 200133f0 <recall_mem+0xac>
20013398:	e5933000 	ldr	r3, [r3]
2001339c:	e59f2050 	ldr	r2, [pc, #80]	; 200133f4 <recall_mem+0xb0>
200133a0:	e7923103 	ldr	r3, [r2, r3, lsl #2]
200133a4:	e1a00003 	mov	r0, r3
200133a8:	ebfff8af 	bl	2001166c <display_IP>
200133ac:	e59f3044 	ldr	r3, [pc, #68]	; 200133f8 <recall_mem+0xb4>
200133b0:	e5d33000 	ldrb	r3, [r3]
200133b4:	e3530001 	cmp	r3, #1
200133b8:	0a000002 	beq	200133c8 <recall_mem+0x84>
200133bc:	e3a0300a 	mov	r3, #10
200133c0:	e54b3005 	strb	r3, [fp, #-5]
200133c4:	ea000004 	b	200133dc <recall_mem+0x98>
200133c8:	e3a03001 	mov	r3, #1
200133cc:	e54b3005 	strb	r3, [fp, #-5]
200133d0:	ea000001 	b	200133dc <recall_mem+0x98>
200133d4:	e3a00005 	mov	r0, #5
200133d8:	ebfffe5e 	bl	20012d58 <process_error>
200133dc:	e55b3005 	ldrb	r3, [fp, #-5]
200133e0:	e1a00003 	mov	r0, r3
200133e4:	e24bd004 	sub	sp, fp, #4
200133e8:	e8bd4800 	pop	{fp, lr}
200133ec:	e12fff1e 	bx	lr
200133f0:	2001559c 	.word	0x2001559c
200133f4:	200155a0 	.word	0x200155a0
200133f8:	20015624 	.word	0x20015624

200133fc <__aeabi_idiv>:
200133fc:	e3510000 	cmp	r1, #0
20013400:	0a000043 	beq	20013514 <.divsi3_skip_div0_test+0x110>

20013404 <.divsi3_skip_div0_test>:
20013404:	e020c001 	eor	ip, r0, r1
20013408:	42611000 	rsbmi	r1, r1, #0
2001340c:	e2512001 	subs	r2, r1, #1
20013410:	0a000027 	beq	200134b4 <.divsi3_skip_div0_test+0xb0>
20013414:	e1b03000 	movs	r3, r0
20013418:	42603000 	rsbmi	r3, r0, #0
2001341c:	e1530001 	cmp	r3, r1
20013420:	9a000026 	bls	200134c0 <.divsi3_skip_div0_test+0xbc>
20013424:	e1110002 	tst	r1, r2
20013428:	0a000028 	beq	200134d0 <.divsi3_skip_div0_test+0xcc>
2001342c:	e311020e 	tst	r1, #-536870912	; 0xe0000000
20013430:	01a01181 	lsleq	r1, r1, #3
20013434:	03a02008 	moveq	r2, #8
20013438:	13a02001 	movne	r2, #1
2001343c:	e3510201 	cmp	r1, #268435456	; 0x10000000
20013440:	31510003 	cmpcc	r1, r3
20013444:	31a01201 	lslcc	r1, r1, #4
20013448:	31a02202 	lslcc	r2, r2, #4
2001344c:	3afffffa 	bcc	2001343c <.divsi3_skip_div0_test+0x38>
20013450:	e3510102 	cmp	r1, #-2147483648	; 0x80000000
20013454:	31510003 	cmpcc	r1, r3
20013458:	31a01081 	lslcc	r1, r1, #1
2001345c:	31a02082 	lslcc	r2, r2, #1
20013460:	3afffffa 	bcc	20013450 <.divsi3_skip_div0_test+0x4c>
20013464:	e3a00000 	mov	r0, #0
20013468:	e1530001 	cmp	r3, r1
2001346c:	20433001 	subcs	r3, r3, r1
20013470:	21800002 	orrcs	r0, r0, r2
20013474:	e15300a1 	cmp	r3, r1, lsr #1
20013478:	204330a1 	subcs	r3, r3, r1, lsr #1
2001347c:	218000a2 	orrcs	r0, r0, r2, lsr #1
20013480:	e1530121 	cmp	r3, r1, lsr #2
20013484:	20433121 	subcs	r3, r3, r1, lsr #2
20013488:	21800122 	orrcs	r0, r0, r2, lsr #2
2001348c:	e15301a1 	cmp	r3, r1, lsr #3
20013490:	204331a1 	subcs	r3, r3, r1, lsr #3
20013494:	218001a2 	orrcs	r0, r0, r2, lsr #3
20013498:	e3530000 	cmp	r3, #0
2001349c:	11b02222 	lsrsne	r2, r2, #4
200134a0:	11a01221 	lsrne	r1, r1, #4
200134a4:	1affffef 	bne	20013468 <.divsi3_skip_div0_test+0x64>
200134a8:	e35c0000 	cmp	ip, #0
200134ac:	42600000 	rsbmi	r0, r0, #0
200134b0:	e12fff1e 	bx	lr
200134b4:	e13c0000 	teq	ip, r0
200134b8:	42600000 	rsbmi	r0, r0, #0
200134bc:	e12fff1e 	bx	lr
200134c0:	33a00000 	movcc	r0, #0
200134c4:	01a00fcc 	asreq	r0, ip, #31
200134c8:	03800001 	orreq	r0, r0, #1
200134cc:	e12fff1e 	bx	lr
200134d0:	e3510801 	cmp	r1, #65536	; 0x10000
200134d4:	21a01821 	lsrcs	r1, r1, #16
200134d8:	23a02010 	movcs	r2, #16
200134dc:	33a02000 	movcc	r2, #0
200134e0:	e3510c01 	cmp	r1, #256	; 0x100
200134e4:	21a01421 	lsrcs	r1, r1, #8
200134e8:	22822008 	addcs	r2, r2, #8
200134ec:	e3510010 	cmp	r1, #16
200134f0:	21a01221 	lsrcs	r1, r1, #4
200134f4:	22822004 	addcs	r2, r2, #4
200134f8:	e3510004 	cmp	r1, #4
200134fc:	82822003 	addhi	r2, r2, #3
20013500:	908220a1 	addls	r2, r2, r1, lsr #1
20013504:	e35c0000 	cmp	ip, #0
20013508:	e1a00233 	lsr	r0, r3, r2
2001350c:	42600000 	rsbmi	r0, r0, #0
20013510:	e12fff1e 	bx	lr
20013514:	e3500000 	cmp	r0, #0
20013518:	c3e00102 	mvngt	r0, #-2147483648	; 0x80000000
2001351c:	b3a00102 	movlt	r0, #-2147483648	; 0x80000000
20013520:	ea000007 	b	20013544 <__aeabi_idiv0>

20013524 <__aeabi_idivmod>:
20013524:	e3510000 	cmp	r1, #0
20013528:	0afffff9 	beq	20013514 <.divsi3_skip_div0_test+0x110>
2001352c:	e92d4003 	push	{r0, r1, lr}
20013530:	ebffffb3 	bl	20013404 <.divsi3_skip_div0_test>
20013534:	e8bd4006 	pop	{r1, r2, lr}
20013538:	e0030092 	mul	r3, r2, r0
2001353c:	e0411003 	sub	r1, r1, r3
20013540:	e12fff1e 	bx	lr

20013544 <__aeabi_idiv0>:
20013544:	e12fff1e 	bx	lr

20013548 <__ecode>:
20013548:	0020001c 	.word	0x0020001c
2001354c:	002000a0 	.word	0x002000a0
20013550:	00200014 	.word	0x00200014
20013554:	00200010 	.word	0x00200010
20013558:	00900010 	.word	0x00900010

2001355c <memp_num>:
2001355c:	00040004 00080002 00050008 00000000     ................
2001356c:	00080008 534f4c43 00004445 5453494c     ....CLOSED..LIST
2001357c:	00004e45 5f4e5953 544e4553 00000000     EN..SYN_SENT....
2001358c:	5f4e5953 44564352 00000000 41545345     SYN_RCVD....ESTA
2001359c:	53494c42 00444548 5f4e4946 54494157     BLISHED.FIN_WAIT
200135ac:	0000315f 5f4e4946 54494157 0000325f     _1..FIN_WAIT_2..
200135bc:	534f4c43 41575f45 00005449 534f4c43     CLOSE_WAIT..CLOS
200135cc:	00474e49 5453414c 4b43415f 00000000     ING.LAST_ACK....
200135dc:	454d4954 4941575f 00000054              TIME_WAIT...

200135e8 <tcp_backoff>:
200135e8:	04030201 07070605 07070707 00000007     ................

200135f8 <tcp_persist_backoff>:
200135f8:	180c0603 00786030                       ....0`x.

20013600 <ip_addr_any>:
20013600:	00000000                                ....

20013604 <ip_addr_broadcast>:
20013604:	ffffffff                                ....

20013608 <ethbroadcast>:
20013608:	ffffffff 0000ffff                       ........

20013610 <ethzero>:
	...

20013618 <sin_wave.4339>:
20013618:	00190000 004b0032 007e0064 00b00097     ....2.K.d.~.....
20013628:	00e200c9 011400fb 0146012d 0178015f     ........-.F._.x.
20013638:	01aa0191 01dc01c3 020e01f5 02400227     ............'.@.
20013648:	02720259 02a3028b 02d502bc 030602ee     Y.r.............
20013658:	0338031f 03690350 039a0381 03cb03b2     ..8.P.i.........
20013668:	03fb03e3 042c0414 045c0444 048d0475     ......,.D.\.u...
20013678:	04bd04a5 04ed04d5 051c0505 054c0534     ............4.L.
20013688:	057b0564 05aa0593 05d905c2 060805f1     d.{.............
20013698:	0636061f 0664064d 0692067b 06c006a9     ..6.M.d.{.......
200136a8:	06ed06d7 071b0704 07480731 0774075e     ........1.H.^.t.
200136b8:	07a0078a 07cc07b7 07f807e2 0824080e     ..............$.
200136c8:	084f0839 087a0864 08a4088f 08ce08b9     9.O.d.z.........
200136d8:	08f808e3 0921090d 094a0936 0973095f     ......!.6.J._.s.
200136e8:	099b0987 09c309b0 09eb09d7 0a1209ff     ................
200136f8:	0a390a26 0a600a4c 0a860a73 0aab0a99     &.9.L.`.s.......
20013708:	0ad10abe 0af50ae3 0b1a0b08 0b3e0b2c     ............,.>.
20013718:	0b610b50 0b840b73 0ba70b96 0bc90bb8     P.a.s...........
20013728:	0beb0bda 0c0c0bfc 0c2d0c1d 0c4d0c3d     ..........-.=.M.
20013738:	0c6d0c5d 0c8d0c7d 0cac0c9c 0cca0cbb     ].m.}...........
20013748:	0ce80cd9 0d050cf7 0d220d14 0d3f0d31     ..........".1.?.
20013758:	0d5b0d4d 0d760d69 0d910d84 0dab0d9e     M.[.i.v.........
20013768:	0dc50db8 0ddf0dd2 0df70deb 0e100e03     ................
20013778:	0e270e1b 0e3e0e33 0e550e4a 0e6b0e60     ..'.3.>.J.U.`.k.
20013788:	0e800e76 0e950e8b 0eaa0ea0 0ebe0eb4     v...............
20013798:	0ed10ec7 0ee30eda 0ef60eed 0f070efe     ................
200137a8:	0f180f10 0f280f20 0f380f30 0f470f40     .... .(.0.8.@.G.
200137b8:	0f560f4f 0f640f5d 0f710f6b 0f7e0f78     O.V.].d.k.q.x.~.
200137c8:	0f8a0f84 0f960f90 0fa10f9b 0fab0fa6     ................
200137d8:	0fb50fb0 0fbe0fba 0fc70fc3 0fcf0fcb     ................
200137e8:	0fd60fd3 0fdd0fda 0fe30fe0 0fe90fe6     ................
200137f8:	0fee0feb 0ff20ff0 0ff60ff4 0ff90ff7     ................
20013808:	0ffb0ffa 0ffd0ffc 0ffe0ffe 0fff0fff     ................
20013818:	00307465 00000041 00000052 00000042     et0.A...R...B...

20013828 <xlat_stat.4748>:
20013828:	00000000 00000001 00000002 00000003     ................
20013838:	00000004 00000005 00000006 00000007     ................
20013848:	00000008 00000009 0000000a              ............

20013854 <numeric_priority.4751>:
20013854:	00000000 00000001 00000000 00000000     ................
20013864:	00000000 00000001 00000001 00000001     ................
20013874:	00000001 00000001 00000000              ............

20013880 <key_type.4749>:
	...
20013888:	02010000 06050403 0a090807 0000000b     ................

20013898 <process_key.4754>:
20013898:	200121e4 200110f4 200121e4 200121e4     .!. ... .!. .!. 
200138a8:	200121e4 200110f4 200110f4 200110f4     .!. ... ... ... 
200138b8:	2001318c 2001318c 200121e4 200121e4     .1. .1. .!. .!. 
200138c8:	2001108c 200121e4 200121e4 200121e4     ... .!. .!. .!. 
200138d8:	2001108c 2001108c 2001108c 20013140     ... ... ... @1. 
200138e8:	20013140 2001108c 200121e4 200112ac     @1. ... .!. ... 
200138f8:	200121e4 200121e4 200121e4 200112ac     .!. .!. .!. ... 
20013908:	200112ac 200112ac 20013230 20013230     ... ... 02. 02. 
20013918:	200121e4 200121e4 20012580 20012550     .!. .!. .%. P%. 
20013928:	200125b0 200125b0 20011434 20011534     .%. .%. 4.. 4.. 
20013938:	200114b4 200132ac 20013344 20012580     ... .2. D3. .%. 
20013948:	20010fcc 200121e4 20012550 200121e4     ... .!. P%. .!. 
20013958:	200121e4 200121e4 200121e4 200121e4     .!. .!. .!. .!. 
20013968:	200121e4 200121e4 20010fcc 200121e4     .!. .!. ... .!. 
20013978:	200125b0 200121e4 200125b0 200125b0     .%. .!. .%. .%. 
20013988:	200121e4 200121e4 200121e4 200121e4     .!. .!. .!. .!. 
20013998:	200121e4 200121e4 20010fcc 200121e4     .!. .!. ... .!. 
200139a8:	20010fcc 200121e4 200121e4 20012210     ... .!. .!. .". 
200139b8:	200121e4 200121e4 200121e4 200121e4     .!. .!. .!. .!. 
200139c8:	20011434 20010fcc 200121e4 20010fcc     4.. ... .!. ... 
200139d8:	200121e4 200121e4 200121e4 20012210     .!. .!. .!. .". 
200139e8:	200121e4 200121e4 200121e4 20011534     .!. .!. .!. 4.. 
200139f8:	20010fcc 200121e4 20010fcc 200121e4     ... .!. ... .!. 
20013a08:	200121e4 200121e4 200121e4 20012210     .!. .!. .!. .". 
20013a18:	200121e4 200121e4 200114b4 200130a8     .!. .!. ... .0. 
20013a28:	200130a8 200130a8 200130a8 200130a8     .0. .0. .0. .0. 
20013a38:	200121e4 200121e4 200121e4 20012210     .!. .!. .!. .". 
20013a48:	200121e4 200130a8 200130a8 200130a8     .!. .0. .0. .0. 
20013a58:	200130a8 200121e4 200121e4 200121e4     .0. .!. .!. .!. 
20013a68:	200121e4 200121e4 200121e4 20012210     .!. .!. .!. .". 
20013a78:	200130a8 200121e4 200121e4 200121e4     .0. .!. .!. .!. 
20013a88:	200121e4 200121e4 200121e4 200121e4     .!. .!. .!. .!. 
20013a98:	200121e4 200121e4 200121e4 200121e4     .!. .!. .!. .!. 

20013aa8 <key_value.4750>:
20013aa8:	00000000 00000001 00000002 00000003     ................
20013ab8:	00000004 00000005 00000006 00000007     ................
20013ac8:	00000008 00000009 0000000a 0000000b     ................
20013ad8:	0000000c 0000000d 0000000e 0000000f     ................
20013ae8:	00000010 00000011 00000012 00000013     ................
20013af8:	00000000                                ....

20013afc <nkeycodes.4760>:
20013afc:	03020100 07060504 0b0a0908 0f0e0d0c     ................
20013b0c:	13121110 00000014                       ........

20013b14 <nkeys.4763>:
20013b14:	00000000 00000001 00000002 00000003     ................
20013b24:	00000004 00000005 00000006 00000007     ................
20013b34:	00000008 00000009 0000000a 0000000b     ................
20013b44:	0000000c 0000000d 0000000e 0000000f     ................
20013b54:	00000010 00000011 00000012 00000013     ................

20013b64 <nnkeycodes.4759>:
20013b64:	0d0c0b0a 11100f0e 01001312 05040302     ................
20013b74:	09080706 00000014                       ........

20013b7c <nnkeys.4762>:
20013b7c:	0000000a 0000000b 0000000c 0000000d     ................
20013b8c:	0000000e 0000000f 00000010 00000011     ................
20013b9c:	00000012 00000013 00000000 00000001     ................
20013bac:	00000002 00000003 00000004 00000005     ................
20013bbc:	00000006 00000007 00000008 00000009     ................

Disassembly of section .text.memcpy:

20013bcc <memcpy>:
20013bcc:	e352000f 	cmp	r2, #15
20013bd0:	e92d40f0 	push	{r4, r5, r6, r7, lr}
20013bd4:	9a000029 	bls	20013c80 <memcpy+0xb4>
20013bd8:	e1813000 	orr	r3, r1, r0
20013bdc:	e3130003 	tst	r3, #3
20013be0:	1a000031 	bne	20013cac <memcpy+0xe0>
20013be4:	e1a0e002 	mov	lr, r2
20013be8:	e280c010 	add	ip, r0, #16
20013bec:	e2813010 	add	r3, r1, #16
20013bf0:	e5137010 	ldr	r7, [r3, #-16]
20013bf4:	e513600c 	ldr	r6, [r3, #-12]
20013bf8:	e5135008 	ldr	r5, [r3, #-8]
20013bfc:	e5134004 	ldr	r4, [r3, #-4]
20013c00:	e24ee010 	sub	lr, lr, #16
20013c04:	e35e000f 	cmp	lr, #15
20013c08:	e50c7010 	str	r7, [ip, #-16]
20013c0c:	e50c600c 	str	r6, [ip, #-12]
20013c10:	e50c5008 	str	r5, [ip, #-8]
20013c14:	e50c4004 	str	r4, [ip, #-4]
20013c18:	e2833010 	add	r3, r3, #16
20013c1c:	e28cc010 	add	ip, ip, #16
20013c20:	8afffff2 	bhi	20013bf0 <memcpy+0x24>
20013c24:	e2423010 	sub	r3, r2, #16
20013c28:	e3c3300f 	bic	r3, r3, #15
20013c2c:	e202600f 	and	r6, r2, #15
20013c30:	e2833010 	add	r3, r3, #16
20013c34:	e3560003 	cmp	r6, #3
20013c38:	e0811003 	add	r1, r1, r3
20013c3c:	e0803003 	add	r3, r0, r3
20013c40:	9a00001b 	bls	20013cb4 <memcpy+0xe8>
20013c44:	e1a04001 	mov	r4, r1
20013c48:	e1a0c006 	mov	ip, r6
20013c4c:	e243e004 	sub	lr, r3, #4
20013c50:	e24cc004 	sub	ip, ip, #4
20013c54:	e4945004 	ldr	r5, [r4], #4
20013c58:	e35c0003 	cmp	ip, #3
20013c5c:	e5ae5004 	str	r5, [lr, #4]!
20013c60:	8afffffa 	bhi	20013c50 <memcpy+0x84>
20013c64:	e246c004 	sub	ip, r6, #4
20013c68:	e3ccc003 	bic	ip, ip, #3
20013c6c:	e28cc004 	add	ip, ip, #4
20013c70:	e083300c 	add	r3, r3, ip
20013c74:	e081100c 	add	r1, r1, ip
20013c78:	e2022003 	and	r2, r2, #3
20013c7c:	ea000000 	b	20013c84 <memcpy+0xb8>
20013c80:	e1a03000 	mov	r3, r0
20013c84:	e3520000 	cmp	r2, #0
20013c88:	0a000005 	beq	20013ca4 <memcpy+0xd8>
20013c8c:	e2433001 	sub	r3, r3, #1
20013c90:	e0812002 	add	r2, r1, r2
20013c94:	e4d1c001 	ldrb	ip, [r1], #1
20013c98:	e1510002 	cmp	r1, r2
20013c9c:	e5e3c001 	strb	ip, [r3, #1]!
20013ca0:	1afffffb 	bne	20013c94 <memcpy+0xc8>
20013ca4:	e8bd40f0 	pop	{r4, r5, r6, r7, lr}
20013ca8:	e12fff1e 	bx	lr
20013cac:	e1a03000 	mov	r3, r0
20013cb0:	eafffff5 	b	20013c8c <memcpy+0xc0>
20013cb4:	e1a02006 	mov	r2, r6
20013cb8:	eafffff1 	b	20013c84 <memcpy+0xb8>

Disassembly of section .text.memset:

20013cbc <memset>:
20013cbc:	e3100003 	tst	r0, #3
20013cc0:	e92d4010 	push	{r4, lr}
20013cc4:	0a000037 	beq	20013da8 <memset+0xec>
20013cc8:	e3520000 	cmp	r2, #0
20013ccc:	e2422001 	sub	r2, r2, #1
20013cd0:	0a000032 	beq	20013da0 <memset+0xe4>
20013cd4:	e201c0ff 	and	ip, r1, #255	; 0xff
20013cd8:	e1a03000 	mov	r3, r0
20013cdc:	ea000002 	b	20013cec <memset+0x30>
20013ce0:	e3520000 	cmp	r2, #0
20013ce4:	e2422001 	sub	r2, r2, #1
20013ce8:	0a00002c 	beq	20013da0 <memset+0xe4>
20013cec:	e4c3c001 	strb	ip, [r3], #1
20013cf0:	e3130003 	tst	r3, #3
20013cf4:	1afffff9 	bne	20013ce0 <memset+0x24>
20013cf8:	e3520003 	cmp	r2, #3
20013cfc:	9a000020 	bls	20013d84 <memset+0xc8>
20013d00:	e201e0ff 	and	lr, r1, #255	; 0xff
20013d04:	e18ee40e 	orr	lr, lr, lr, lsl #8
20013d08:	e352000f 	cmp	r2, #15
20013d0c:	e18ee80e 	orr	lr, lr, lr, lsl #16
20013d10:	9a000010 	bls	20013d58 <memset+0x9c>
20013d14:	e1a04002 	mov	r4, r2
20013d18:	e283c010 	add	ip, r3, #16
20013d1c:	e2444010 	sub	r4, r4, #16
20013d20:	e354000f 	cmp	r4, #15
20013d24:	e50ce010 	str	lr, [ip, #-16]
20013d28:	e50ce00c 	str	lr, [ip, #-12]
20013d2c:	e50ce008 	str	lr, [ip, #-8]
20013d30:	e50ce004 	str	lr, [ip, #-4]
20013d34:	e28cc010 	add	ip, ip, #16
20013d38:	8afffff7 	bhi	20013d1c <memset+0x60>
20013d3c:	e242c010 	sub	ip, r2, #16
20013d40:	e3ccc00f 	bic	ip, ip, #15
20013d44:	e202200f 	and	r2, r2, #15
20013d48:	e28cc010 	add	ip, ip, #16
20013d4c:	e3520003 	cmp	r2, #3
20013d50:	e083300c 	add	r3, r3, ip
20013d54:	9a00000a 	bls	20013d84 <memset+0xc8>
20013d58:	e1a04003 	mov	r4, r3
20013d5c:	e1a0c002 	mov	ip, r2
20013d60:	e24cc004 	sub	ip, ip, #4
20013d64:	e35c0003 	cmp	ip, #3
20013d68:	e484e004 	str	lr, [r4], #4
20013d6c:	8afffffb 	bhi	20013d60 <memset+0xa4>
20013d70:	e242c004 	sub	ip, r2, #4
20013d74:	e3ccc003 	bic	ip, ip, #3
20013d78:	e28cc004 	add	ip, ip, #4
20013d7c:	e083300c 	add	r3, r3, ip
20013d80:	e2022003 	and	r2, r2, #3
20013d84:	e3520000 	cmp	r2, #0
20013d88:	120110ff 	andne	r1, r1, #255	; 0xff
20013d8c:	10832002 	addne	r2, r3, r2
20013d90:	0a000002 	beq	20013da0 <memset+0xe4>
20013d94:	e4c31001 	strb	r1, [r3], #1
20013d98:	e1530002 	cmp	r3, r2
20013d9c:	1afffffc 	bne	20013d94 <memset+0xd8>
20013da0:	e8bd4010 	pop	{r4, lr}
20013da4:	e12fff1e 	bx	lr
20013da8:	e1a03000 	mov	r3, r0
20013dac:	eaffffd1 	b	20013cf8 <memset+0x3c>
